
arm9/ds-avr.arm9.elf:     file format elf32-littlearm


Disassembly of section .init:

02000000 <__text_start>:
 2000000:	e3a00301 	mov	r0, #67108864	; 0x4000000
 2000004:	e5800208 	str	r0, [r0, #520]	; 0x208
 2000008:	e3a00013 	mov	r0, #19
 200000c:	e129f000 	msr	CPSR_fc, r0
 2000010:	e3a01403 	mov	r1, #50331648	; 0x3000000
 2000014:	e2411a01 	sub	r1, r1, #4096	; 0x1000
 2000018:	e1a0d001 	mov	sp, r1
 200001c:	e3a0001f 	mov	r0, #31
 2000020:	e129f000 	msr	CPSR_fc, r0
 2000024:	e2411c01 	sub	r1, r1, #256	; 0x100
 2000028:	e1a0d001 	mov	sp, r1
 200002c:	e59f318c 	ldr	r3, [pc, #396]	; 20001c0 <CIDLoop+0x14>
 2000030:	e12fff33 	blx	r3
 2000034:	e3a00012 	mov	r0, #18
 2000038:	e129f000 	msr	CPSR_fc, r0
 200003c:	e59fd180 	ldr	sp, [pc, #384]	; 20001c4 <CIDLoop+0x18>
 2000040:	e3a00013 	mov	r0, #19
 2000044:	e129f000 	msr	CPSR_fc, r0
 2000048:	e59fd178 	ldr	sp, [pc, #376]	; 20001c8 <CIDLoop+0x1c>
 200004c:	e3a0001f 	mov	r0, #31
 2000050:	e129f000 	msr	CPSR_fc, r0
 2000054:	e59fd170 	ldr	sp, [pc, #368]	; 20001cc <CIDLoop+0x20>
 2000058:	e59f1170 	ldr	r1, [pc, #368]	; 20001d0 <CIDLoop+0x24>
 200005c:	e59f2170 	ldr	r2, [pc, #368]	; 20001d4 <CIDLoop+0x28>
 2000060:	e59f4170 	ldr	r4, [pc, #368]	; 20001d8 <CIDLoop+0x2c>
 2000064:	eb00004b 	bl	2000198 <CopyMemCheck>
 2000068:	e59f116c 	ldr	r1, [pc, #364]	; 20001dc <CIDLoop+0x30>
 200006c:	e59f216c 	ldr	r2, [pc, #364]	; 20001e0 <CIDLoop+0x34>
 2000070:	e59f416c 	ldr	r4, [pc, #364]	; 20001e4 <CIDLoop+0x38>
 2000074:	eb000047 	bl	2000198 <CopyMemCheck>
 2000078:	e59f1168 	ldr	r1, [pc, #360]	; 20001e8 <CIDLoop+0x3c>
 200007c:	e59f2168 	ldr	r2, [pc, #360]	; 20001ec <CIDLoop+0x40>
 2000080:	e59f4168 	ldr	r4, [pc, #360]	; 20001f0 <CIDLoop+0x44>
 2000084:	eb000043 	bl	2000198 <CopyMemCheck>
 2000088:	eb000019 	bl	20000f4 <checkARGV>
 200008c:	e59f0160 	ldr	r0, [pc, #352]	; 20001f4 <CIDLoop+0x48>
 2000090:	e59f1160 	ldr	r1, [pc, #352]	; 20001f8 <CIDLoop+0x4c>
 2000094:	e0411000 	sub	r1, r1, r0
 2000098:	eb000035 	bl	2000174 <ClearMem>
 200009c:	e59f0158 	ldr	r0, [pc, #344]	; 20001fc <CIDLoop+0x50>
 20000a0:	e59f1158 	ldr	r1, [pc, #344]	; 2000200 <CIDLoop+0x54>
 20000a4:	e0411000 	sub	r1, r1, r0
 20000a8:	eb000031 	bl	2000174 <ClearMem>
 20000ac:	e59f0150 	ldr	r0, [pc, #336]	; 2000204 <CIDLoop+0x58>
 20000b0:	e5902014 	ldr	r2, [r0, #20]
 20000b4:	e59f114c 	ldr	r1, [pc, #332]	; 2000208 <CIDLoop+0x5c>
 20000b8:	e5812000 	str	r2, [r1]
 20000bc:	e59f1148 	ldr	r1, [pc, #328]	; 200020c <CIDLoop+0x60>
 20000c0:	e2488903 	sub	r8, r8, #49152	; 0xc000
 20000c4:	e5818000 	str	r8, [r1]
 20000c8:	e92d0001 	push	{r0}
 20000cc:	e59f313c 	ldr	r3, [pc, #316]	; 2000210 <CIDLoop+0x64>
 20000d0:	e12fff33 	blx	r3
 20000d4:	e59f3138 	ldr	r3, [pc, #312]	; 2000214 <CIDLoop+0x68>
 20000d8:	e12fff33 	blx	r3
 20000dc:	e8bd0001 	pop	{r0}
 20000e0:	e5901010 	ldr	r1, [r0, #16]
 20000e4:	e590000c 	ldr	r0, [r0, #12]
 20000e8:	e59f3128 	ldr	r3, [pc, #296]	; 2000218 <CIDLoop+0x6c>
 20000ec:	e59fe128 	ldr	lr, [pc, #296]	; 200021c <CIDLoop+0x70>
 20000f0:	e12fff13 	bx	r3

020000f4 <checkARGV>:
 20000f4:	e59f0108 	ldr	r0, [pc, #264]	; 2000204 <CIDLoop+0x58>
 20000f8:	e3a01000 	mov	r1, #0
 20000fc:	e580100c 	str	r1, [r0, #12]
 2000100:	e5801010 	str	r1, [r0, #16]
 2000104:	e5903000 	ldr	r3, [r0]
 2000108:	e59f2110 	ldr	r2, [pc, #272]	; 2000220 <CIDLoop+0x74>
 200010c:	e1530002 	cmp	r3, r2
 2000110:	15801014 	strne	r1, [r0, #20]
 2000114:	112fff1e 	bxne	lr
 2000118:	e5901004 	ldr	r1, [r0, #4]
 200011c:	e5902008 	ldr	r2, [r0, #8]
 2000120:	e59f30fc 	ldr	r3, [pc, #252]	; 2000224 <CIDLoop+0x78>
 2000124:	e5803004 	str	r3, [r0, #4]
 2000128:	e3520000 	cmp	r2, #0
 200012c:	10534001 	subsne	r4, r3, r1
 2000130:	012fff1e 	bxeq	lr
 2000134:	81520004 	cmphi	r2, r4
 2000138:	8a000004 	bhi	2000150 <.copybackward>

0200013c <.copyforward>:
 200013c:	e4d14001 	ldrb	r4, [r1], #1
 2000140:	e4c34001 	strb	r4, [r3], #1
 2000144:	e2522001 	subs	r2, r2, #1
 2000148:	1afffffb 	bne	200013c <.copyforward>
 200014c:	ea000003 	b	2000160 <.copydone>

02000150 <.copybackward>:
 2000150:	e2522001 	subs	r2, r2, #1
 2000154:	e7d14002 	ldrb	r4, [r1, r2]
 2000158:	e7c34002 	strb	r4, [r3, r2]
 200015c:	1afffffb 	bne	2000150 <.copybackward>

02000160 <.copydone>:
 2000160:	e92d4000 	push	{lr}
 2000164:	e59f30bc 	ldr	r3, [pc, #188]	; 2000228 <CIDLoop+0x7c>
 2000168:	e12fff33 	blx	r3
 200016c:	e8bd4000 	pop	{lr}
 2000170:	e12fff1e 	bx	lr

02000174 <ClearMem>:
 2000174:	e3a02003 	mov	r2, #3
 2000178:	e0811002 	add	r1, r1, r2
 200017c:	e1d11002 	bics	r1, r1, r2
 2000180:	012fff1e 	bxeq	lr
 2000184:	e3a02000 	mov	r2, #0

02000188 <ClrLoop>:
 2000188:	e8a00004 	stmia	r0!, {r2}
 200018c:	e2511004 	subs	r1, r1, #4
 2000190:	1afffffc 	bne	2000188 <ClrLoop>
 2000194:	e12fff1e 	bx	lr

02000198 <CopyMemCheck>:
 2000198:	e0443002 	sub	r3, r4, r2

0200019c <CopyMem>:
 200019c:	e3a00003 	mov	r0, #3
 20001a0:	e0833000 	add	r3, r3, r0
 20001a4:	e1d33000 	bics	r3, r3, r0
 20001a8:	012fff1e 	bxeq	lr

020001ac <CIDLoop>:
 20001ac:	e8b10001 	ldm	r1!, {r0}
 20001b0:	e8a20001 	stmia	r2!, {r0}
 20001b4:	e2533004 	subs	r3, r3, #4
 20001b8:	1afffffb 	bne	20001ac <CIDLoop>
 20001bc:	e12fff1e 	bx	lr
 20001c0:	020022cc 	.word	0x020022cc
 20001c4:	0b003e00 	.word	0x0b003e00
 20001c8:	0b003f00 	.word	0x0b003f00
 20001cc:	0b003d00 	.word	0x0b003d00
 20001d0:	0200f318 	.word	0x0200f318
 20001d4:	01000100 	.word	0x01000100
 20001d8:	01000294 	.word	0x01000294
 20001dc:	0200f4ac 	.word	0x0200f4ac
 20001e0:	01000000 	.word	0x01000000
 20001e4:	01000000 	.word	0x01000000
 20001e8:	0200f318 	.word	0x0200f318
 20001ec:	0b000000 	.word	0x0b000000
 20001f0:	0b000000 	.word	0x0b000000
 20001f4:	0200f318 	.word	0x0200f318
 20001f8:	02011234 	.word	0x02011234
 20001fc:	0b000000 	.word	0x0b000000
 2000200:	0b000000 	.word	0x0b000000
 2000204:	02fffe70 	.word	0x02fffe70
 2000208:	0200f640 	.word	0x0200f640
 200020c:	0200f63c 	.word	0x0200f63c
 2000210:	02001291 	.word	0x02001291
 2000214:	02002c39 	.word	0x02002c39
 2000218:	02000399 	.word	0x02000399
 200021c:	02002291 	.word	0x02002291
 2000220:	5f617267 	.word	0x5f617267
 2000224:	02011234 	.word	0x02011234
 2000228:	0200829d 	.word	0x0200829d
 200022c:	e1a00000 	nop			; (mov r0, r0)

02000230 <_init>:
 2000230:	b5f8      	push	{r3, r4, r5, r6, r7, lr}
 2000232:	46c0      	nop			; (mov r8, r8)
 2000234:	bcf8      	pop	{r3, r4, r5, r6, r7}
 2000236:	bc08      	pop	{r3}
 2000238:	469e      	mov	lr, r3
 200023a:	4770      	bx	lr

Disassembly of section .text:

02000240 <__do_global_dtors_aux>:
 2000240:	b510      	push	{r4, lr}
 2000242:	4c07      	ldr	r4, [pc, #28]	; (2000260 <__do_global_dtors_aux+0x20>)
 2000244:	7823      	ldrb	r3, [r4, #0]
 2000246:	2b00      	cmp	r3, #0
 2000248:	d107      	bne.n	200025a <__do_global_dtors_aux+0x1a>
 200024a:	4b06      	ldr	r3, [pc, #24]	; (2000264 <__do_global_dtors_aux+0x24>)
 200024c:	2b00      	cmp	r3, #0
 200024e:	d002      	beq.n	2000256 <__do_global_dtors_aux+0x16>
 2000250:	4805      	ldr	r0, [pc, #20]	; (2000268 <__do_global_dtors_aux+0x28>)
 2000252:	e000      	b.n	2000256 <__do_global_dtors_aux+0x16>
 2000254:	bf00      	nop
 2000256:	2301      	movs	r3, #1
 2000258:	7023      	strb	r3, [r4, #0]
 200025a:	bc10      	pop	{r4}
 200025c:	bc01      	pop	{r0}
 200025e:	4700      	bx	r0
 2000260:	0200f318 	.word	0x0200f318
 2000264:	00000000 	.word	0x00000000
 2000268:	0200e550 	.word	0x0200e550

0200026c <frame_dummy>:
 200026c:	b510      	push	{r4, lr}
 200026e:	4b09      	ldr	r3, [pc, #36]	; (2000294 <frame_dummy+0x28>)
 2000270:	2b00      	cmp	r3, #0
 2000272:	d003      	beq.n	200027c <frame_dummy+0x10>
 2000274:	4808      	ldr	r0, [pc, #32]	; (2000298 <frame_dummy+0x2c>)
 2000276:	4909      	ldr	r1, [pc, #36]	; (200029c <frame_dummy+0x30>)
 2000278:	e000      	b.n	200027c <frame_dummy+0x10>
 200027a:	bf00      	nop
 200027c:	4808      	ldr	r0, [pc, #32]	; (20002a0 <frame_dummy+0x34>)
 200027e:	6803      	ldr	r3, [r0, #0]
 2000280:	2b00      	cmp	r3, #0
 2000282:	d004      	beq.n	200028e <frame_dummy+0x22>
 2000284:	4b07      	ldr	r3, [pc, #28]	; (20002a4 <frame_dummy+0x38>)
 2000286:	2b00      	cmp	r3, #0
 2000288:	d001      	beq.n	200028e <frame_dummy+0x22>
 200028a:	f000 f80d 	bl	20002a8 <frame_dummy+0x3c>
 200028e:	bc10      	pop	{r4}
 2000290:	bc01      	pop	{r0}
 2000292:	4700      	bx	r0
 2000294:	00000000 	.word	0x00000000
 2000298:	0200e550 	.word	0x0200e550
 200029c:	0200f31c 	.word	0x0200f31c
 20002a0:	0200e554 	.word	0x0200e554
 20002a4:	00000000 	.word	0x00000000
 20002a8:	4718      	bx	r3
 20002aa:	46c0      	nop			; (mov r8, r8)

020002ac <avrValue32Handler>:
	return (int)fifoGetValue32(FIFO_AVR); 
	
	//return 0;
}

void avrValue32Handler(u32 value32, void * userdata) {
 20002ac:	b510      	push	{r4, lr}
 20002ae:	1c01      	adds	r1, r0, #0
    iprintf("analog data: %d\n", value32);
 20002b0:	4801      	ldr	r0, [pc, #4]	; (20002b8 <avrValue32Handler+0xc>)
 20002b2:	f002 fcf9 	bl	2002ca8 <iprintf>
}
 20002b6:	bd10      	pop	{r4, pc}
 20002b8:	0200e2fc 	.word	0x0200e2fc

020002bc <delay_vblanks>:
		swiWaitForVBlank();
	}
	scanKeys();
}

void delay_vblanks(int n) {
 20002bc:	b570      	push	{r4, r5, r6, lr}
 20002be:	1c05      	adds	r5, r0, #0
	int i;
	for(i=0; i < n; i++)
 20002c0:	2800      	cmp	r0, #0
 20002c2:	dd05      	ble.n	20002d0 <delay_vblanks+0x14>
 20002c4:	2400      	movs	r4, #0
 20002c6:	3401      	adds	r4, #1
		swiWaitForVBlank();
 20002c8:	f002 f8de 	bl	2002488 <swiWaitForVBlank>
	scanKeys();
}

void delay_vblanks(int n) {
	int i;
	for(i=0; i < n; i++)
 20002cc:	42a5      	cmp	r5, r4
 20002ce:	dcfa      	bgt.n	20002c6 <delay_vblanks+0xa>
		swiWaitForVBlank();
}
 20002d0:	bd70      	pop	{r4, r5, r6, pc}
 20002d2:	46c0      	nop			; (mov r8, r8)

020002d4 <pause>:
	AUXSPICNT = SLOT_ENABLE;
	return AUXSPIDATA;
} 
*/

void pause() {
 20002d4:	b510      	push	{r4, lr}
	iprintf("Press start...\n");
 20002d6:	4808      	ldr	r0, [pc, #32]	; (20002f8 <pause+0x24>)
 20002d8:	f002 fce6 	bl	2002ca8 <iprintf>
	while(1) {
		scanKeys();
		if(keysDown() & KEY_START)
 20002dc:	2408      	movs	r4, #8
 20002de:	e001      	b.n	20002e4 <pause+0x10>
			break;
		swiWaitForVBlank();
 20002e0:	f002 f8d2 	bl	2002488 <swiWaitForVBlank>
*/

void pause() {
	iprintf("Press start...\n");
	while(1) {
		scanKeys();
 20002e4:	f000 fee8 	bl	20010b8 <scanKeys>
		if(keysDown() & KEY_START)
 20002e8:	f000 ff24 	bl	2001134 <keysDown>
 20002ec:	4220      	tst	r0, r4
 20002ee:	d0f7      	beq.n	20002e0 <pause+0xc>
			break;
		swiWaitForVBlank();
	}
	scanKeys();
 20002f0:	f000 fee2 	bl	20010b8 <scanKeys>
}
 20002f4:	bd10      	pop	{r4, pc}
 20002f6:	46c0      	nop			; (mov r8, r8)
 20002f8:	0200e310 	.word	0x0200e310

020002fc <flash_led>:
	int i;
	for(i=0; i < n; i++)
		swiWaitForVBlank();
}

void flash_led(int n) {
 20002fc:	b510      	push	{r4, lr}
 20002fe:	1c04      	adds	r4, r0, #0
 2000300:	b082      	sub	sp, #8
    AvrFifoMessage msg;
	iprintf("flash_led(%i)\n", n);
 2000302:	1c21      	adds	r1, r4, #0
 2000304:	4807      	ldr	r0, [pc, #28]	; (2000324 <flash_led+0x28>)
 2000306:	f002 fccf 	bl	2002ca8 <iprintf>
	
	msg.type = LED_FLASH_MESSAGE;
 200030a:	4b07      	ldr	r3, [pc, #28]	; (2000328 <flash_led+0x2c>)
 200030c:	aa01      	add	r2, sp, #4
 200030e:	8013      	strh	r3, [r2, #0]
	msg.LEDFlash.count = n;
 2000310:	466b      	mov	r3, sp
 2000312:	3306      	adds	r3, #6
 2000314:	701c      	strb	r4, [r3, #0]

	fifoSendDatamsg(FIFO_AVR, sizeof(msg), (u8*)&msg);
 2000316:	2104      	movs	r1, #4
 2000318:	200d      	movs	r0, #13
 200031a:	f001 fe99 	bl	2002050 <fifoSendDatamsg>

	//send_chars(2, FLASH_LED_COMMAND, n);
	//while(!fifoCheckValue32(FIFO_AVR));

	//iprintf("recieved: %i\n", (int)fifoGetValue32(FIFO_AVR) );
}
 200031e:	b002      	add	sp, #8
 2000320:	bd10      	pop	{r4, pc}
 2000322:	46c0      	nop			; (mov r8, r8)
 2000324:	0200e320 	.word	0x0200e320
 2000328:	00002345 	.word	0x00002345

0200032c <analog_read>:

int analog_read(uint8_t pin) {
 200032c:	b510      	push	{r4, lr}
 200032e:	1c04      	adds	r4, r0, #0
 2000330:	b082      	sub	sp, #8
    AvrFifoMessage msg;
	iprintf("analog_read(%i)\n", pin);
 2000332:	1c21      	adds	r1, r4, #0
 2000334:	480b      	ldr	r0, [pc, #44]	; (2000364 <analog_read+0x38>)
 2000336:	f002 fcb7 	bl	2002ca8 <iprintf>
	
	msg.type = ANALOG_READ_MESSAGE;
 200033a:	4b0b      	ldr	r3, [pc, #44]	; (2000368 <analog_read+0x3c>)
 200033c:	aa01      	add	r2, sp, #4
 200033e:	8013      	strh	r3, [r2, #0]
	msg.AnalogRead.pin = pin;
 2000340:	466b      	mov	r3, sp
 2000342:	3306      	adds	r3, #6
 2000344:	701c      	strb	r4, [r3, #0]

	fifoSendDatamsg(FIFO_AVR, sizeof(msg), (u8*)&msg);
 2000346:	200d      	movs	r0, #13
 2000348:	2104      	movs	r1, #4
 200034a:	f001 fe81 	bl	2002050 <fifoSendDatamsg>
	
	while(!fifoCheckValue32(FIFO_AVR));
 200034e:	200d      	movs	r0, #13
 2000350:	f001 fa34 	bl	20017bc <fifoCheckValue32>
 2000354:	2800      	cmp	r0, #0
 2000356:	d0fa      	beq.n	200034e <analog_read+0x22>

	return (int)fifoGetValue32(FIFO_AVR); 
 2000358:	200d      	movs	r0, #13
 200035a:	f001 f999 	bl	2001690 <fifoGetValue32>
	
	//return 0;
}
 200035e:	b002      	add	sp, #8
 2000360:	bd10      	pop	{r4, pc}
 2000362:	46c0      	nop			; (mov r8, r8)
 2000364:	0200e330 	.word	0x0200e330
 2000368:	00002346 	.word	0x00002346

0200036c <analog_read_test>:

void avrValue32Handler(u32 value32, void * userdata) {
    iprintf("analog data: %d\n", value32);
}

void analog_read_test() {
 200036c:	b570      	push	{r4, r5, r6, lr}
    time_t start, end;
    int i;
    start = time(NULL);
 200036e:	2000      	movs	r0, #0
 2000370:	f003 fbe8 	bl	2003b44 <time>
 2000374:	2400      	movs	r4, #0
 2000376:	1c05      	adds	r5, r0, #0
    for(i=0;i <100;i++) {
        analog_read(0);
 2000378:	2000      	movs	r0, #0

void analog_read_test() {
    time_t start, end;
    int i;
    start = time(NULL);
    for(i=0;i <100;i++) {
 200037a:	3401      	adds	r4, #1
        analog_read(0);
 200037c:	f7ff ffd6 	bl	200032c <analog_read>

void analog_read_test() {
    time_t start, end;
    int i;
    start = time(NULL);
    for(i=0;i <100;i++) {
 2000380:	2c64      	cmp	r4, #100	; 0x64
 2000382:	d1f9      	bne.n	2000378 <analog_read_test+0xc>
        analog_read(0);
    }
    end = time(NULL);
 2000384:	2000      	movs	r0, #0
 2000386:	f003 fbdd 	bl	2003b44 <time>
    iprintf("time: %i\n", end - start);
 200038a:	1b41      	subs	r1, r0, r5
 200038c:	4801      	ldr	r0, [pc, #4]	; (2000394 <analog_read_test+0x28>)
 200038e:	f002 fc8b 	bl	2002ca8 <iprintf>
}
 2000392:	bd70      	pop	{r4, r5, r6, pc}
 2000394:	0200e344 	.word	0x0200e344

02000398 <main>:

int main(void) {
 2000398:	b5f8      	push	{r3, r4, r5, r6, r7, lr}
 200039a:	465f      	mov	r7, fp
 200039c:	4656      	mov	r6, sl
 200039e:	464d      	mov	r5, r9
 20003a0:	4644      	mov	r4, r8
 20003a2:	b4f0      	push	{r4, r5, r6, r7}
//    irqInit();
//	fifoInit();
    //fifoSetValue32Handler(FIFO_PM, powerValueHandler, 0);
	//fifoSetDatamsgHandler(FIFO_SYSTEM, systemMsgHandler, 0);

	consoleDemoInit();
 20003a4:	f000 fce6 	bl	2000d74 <consoleDemoInit>
	powerOff(PM_BACKLIGHT_TOP);
 20003a8:	2008      	movs	r0, #8
 20003aa:	f000 ff0d 	bl	20011c8 <powerOff>
    \brief Sets the owner of the DS card bus (slot 1) and gba cart bus (slot 2).  Only one cpu may access the device at a time.
*   \param arm9rom if true the arm9 is the owner of slot 2, otherwise the arm7
*   \param arm9card if true the arm9 is the owner of slot 1, otherwise the arm7
*/
void sysSetBusOwners(bool arm9rom, bool arm9card) {
  REG_EXMEMCNT = (REG_EXMEMCNT & ~(ARM7_OWNS_CARD|ARM7_OWNS_ROM)) |
 20003ae:	4a34      	ldr	r2, [pc, #208]	; (2000480 <main+0xe8>)
 20003b0:	4b34      	ldr	r3, [pc, #208]	; (2000484 <main+0xec>)
 20003b2:	8811      	ldrh	r1, [r2, #0]
	sysSetBusOwners(true, false); // give ARM9 access to the cart
	
	//iprintf("a = fast tranfers b = slow transfers\n");
	transmission_delay = 4;

	iprintf("up/down adjust transmission delay\n");
 20003b4:	4834      	ldr	r0, [pc, #208]	; (2000488 <main+0xf0>)
 20003b6:	4019      	ands	r1, r3
 20003b8:	2380      	movs	r3, #128	; 0x80
 20003ba:	011b      	lsls	r3, r3, #4
 20003bc:	430b      	orrs	r3, r1
 20003be:	8013      	strh	r3, [r2, #0]
	powerOff(PM_BACKLIGHT_TOP);
	
	sysSetBusOwners(true, false); // give ARM9 access to the cart
	
	//iprintf("a = fast tranfers b = slow transfers\n");
	transmission_delay = 4;
 20003c0:	4a32      	ldr	r2, [pc, #200]	; (200048c <main+0xf4>)
 20003c2:	2304      	movs	r3, #4
 20003c4:	6013      	str	r3, [r2, #0]
 20003c6:	4690      	mov	r8, r2

	iprintf("up/down adjust transmission delay\n");
 20003c8:	f002 fc6e 	bl	2002ca8 <iprintf>
	iprintf("a = led b = analog\n");
 20003cc:	4830      	ldr	r0, [pc, #192]	; (2000490 <main+0xf8>)
 20003ce:	f002 fc6b 	bl	2002ca8 <iprintf>
	iprintf("old func: 0x%x\n", (u32)fifo_value32_func[FIFO_SYSTEM]);
 20003d2:	4c30      	ldr	r4, [pc, #192]	; (2000494 <main+0xfc>)
 20003d4:	4d30      	ldr	r5, [pc, #192]	; (2000498 <main+0x100>)
 20003d6:	1c20      	adds	r0, r4, #0
 20003d8:	68a9      	ldr	r1, [r5, #8]
 20003da:	f002 fc65 	bl	2002ca8 <iprintf>
	iprintf("old func: 0x%x\n", (u32)fifo_value32_func[FIFO_PM]);
 20003de:	1c20      	adds	r0, r4, #0
 20003e0:	6829      	ldr	r1, [r5, #0]
 20003e2:	f002 fc61 	bl	2002ca8 <iprintf>
 20003e6:	4b2d      	ldr	r3, [pc, #180]	; (200049c <main+0x104>)
		    //channel = soundPlayPSG(DutyCycle_50, 440, 127, 64);
	        //iprintf("channel: %i\n", channel);
	        //break;
		    //analog_read(0);
			iprintf("analog data: %d\n", analog_read(0));
		} else if(keysDown() & KEY_START) {
 20003e8:	2208      	movs	r2, #8
 20003ea:	469a      	mov	sl, r3
		    analog_read_test();
		} else if(keysDown() & KEY_UP) {
 20003ec:	2340      	movs	r3, #64	; 0x40
	transmission_delay = 4;

	iprintf("up/down adjust transmission delay\n");
	iprintf("a = led b = analog\n");
	iprintf("old func: 0x%x\n", (u32)fifo_value32_func[FIFO_SYSTEM]);
	iprintf("old func: 0x%x\n", (u32)fifo_value32_func[FIFO_PM]);
 20003ee:	2401      	movs	r4, #1
	
	//pause();
	i = 1;
	while(1) {
		scanKeys();
		if(keysDown() & KEY_A) {
 20003f0:	2601      	movs	r6, #1
			flash_led(i++);
			if(i > 9)
				i = 1;
		
		} else if(keysHeld() & KEY_B) {
 20003f2:	2702      	movs	r7, #2
		    //channel = soundPlayPSG(DutyCycle_50, 440, 127, 64);
	        //iprintf("channel: %i\n", channel);
	        //break;
		    //analog_read(0);
			iprintf("analog data: %d\n", analog_read(0));
		} else if(keysDown() & KEY_START) {
 20003f4:	4691      	mov	r9, r2
		    analog_read_test();
		} else if(keysDown() & KEY_UP) {
 20003f6:	469b      	mov	fp, r3
 20003f8:	e008      	b.n	200040c <main+0x74>
	//pause();
	i = 1;
	while(1) {
		scanKeys();
		if(keysDown() & KEY_A) {
			flash_led(i++);
 20003fa:	1c65      	adds	r5, r4, #1
 20003fc:	1c20      	adds	r0, r4, #0
 20003fe:	f7ff ff7d 	bl	20002fc <flash_led>
			if(i > 9)
 2000402:	2d09      	cmp	r5, #9
 2000404:	dd14      	ble.n	2000430 <main+0x98>
 2000406:	2401      	movs	r4, #1
			iprintf("transmission_delay: %d\n", transmission_delay);
		} else if(keysDown() & KEY_DOWN && transmission_delay > 0) {
			transmission_delay-= 1;
			iprintf("transmission_delay: %d\n", transmission_delay);
		}
		swiWaitForVBlank();
 2000408:	f002 f83e 	bl	2002488 <swiWaitForVBlank>
	
	
	//pause();
	i = 1;
	while(1) {
		scanKeys();
 200040c:	f000 fe54 	bl	20010b8 <scanKeys>
		if(keysDown() & KEY_A) {
 2000410:	f000 fe90 	bl	2001134 <keysDown>
 2000414:	4230      	tst	r0, r6
 2000416:	d1f0      	bne.n	20003fa <main+0x62>
			flash_led(i++);
			if(i > 9)
				i = 1;
		
		} else if(keysHeld() & KEY_B) {
 2000418:	f000 fe86 	bl	2001128 <keysHeld>
 200041c:	4238      	tst	r0, r7
 200041e:	d009      	beq.n	2000434 <main+0x9c>
		    //channel = soundPlayPSG(DutyCycle_50, 440, 127, 64);
	        //iprintf("channel: %i\n", channel);
	        //break;
		    //analog_read(0);
			iprintf("analog data: %d\n", analog_read(0));
 2000420:	2000      	movs	r0, #0
 2000422:	f7ff ff83 	bl	200032c <analog_read>
 2000426:	1c01      	adds	r1, r0, #0
 2000428:	4650      	mov	r0, sl
 200042a:	f002 fc3d 	bl	2002ca8 <iprintf>
 200042e:	e7eb      	b.n	2000408 <main+0x70>
	i = 1;
	while(1) {
		scanKeys();
		if(keysDown() & KEY_A) {
			flash_led(i++);
			if(i > 9)
 2000430:	1c2c      	adds	r4, r5, #0
 2000432:	e7e9      	b.n	2000408 <main+0x70>
		    //channel = soundPlayPSG(DutyCycle_50, 440, 127, 64);
	        //iprintf("channel: %i\n", channel);
	        //break;
		    //analog_read(0);
			iprintf("analog data: %d\n", analog_read(0));
		} else if(keysDown() & KEY_START) {
 2000434:	f000 fe7e 	bl	2001134 <keysDown>
 2000438:	464a      	mov	r2, r9
 200043a:	4210      	tst	r0, r2
 200043c:	d002      	beq.n	2000444 <main+0xac>
		    analog_read_test();
 200043e:	f7ff ff95 	bl	200036c <analog_read_test>
 2000442:	e7e1      	b.n	2000408 <main+0x70>
		} else if(keysDown() & KEY_UP) {
 2000444:	f000 fe76 	bl	2001134 <keysDown>
 2000448:	465b      	mov	r3, fp
 200044a:	4218      	tst	r0, r3
 200044c:	d007      	beq.n	200045e <main+0xc6>
			transmission_delay+= 1;
 200044e:	4642      	mov	r2, r8
 2000450:	6811      	ldr	r1, [r2, #0]
			iprintf("transmission_delay: %d\n", transmission_delay);
 2000452:	4813      	ldr	r0, [pc, #76]	; (20004a0 <main+0x108>)
		    //analog_read(0);
			iprintf("analog data: %d\n", analog_read(0));
		} else if(keysDown() & KEY_START) {
		    analog_read_test();
		} else if(keysDown() & KEY_UP) {
			transmission_delay+= 1;
 2000454:	3101      	adds	r1, #1
 2000456:	6011      	str	r1, [r2, #0]
			iprintf("transmission_delay: %d\n", transmission_delay);
 2000458:	f002 fc26 	bl	2002ca8 <iprintf>
 200045c:	e7d4      	b.n	2000408 <main+0x70>
		} else if(keysDown() & KEY_DOWN && transmission_delay > 0) {
 200045e:	f000 fe69 	bl	2001134 <keysDown>
 2000462:	2380      	movs	r3, #128	; 0x80
 2000464:	4218      	tst	r0, r3
 2000466:	d0cf      	beq.n	2000408 <main+0x70>
 2000468:	4642      	mov	r2, r8
 200046a:	6811      	ldr	r1, [r2, #0]
 200046c:	2900      	cmp	r1, #0
 200046e:	d0cb      	beq.n	2000408 <main+0x70>
			transmission_delay-= 1;
 2000470:	4b06      	ldr	r3, [pc, #24]	; (200048c <main+0xf4>)
 2000472:	3901      	subs	r1, #1
 2000474:	6019      	str	r1, [r3, #0]
			iprintf("transmission_delay: %d\n", transmission_delay);
 2000476:	480a      	ldr	r0, [pc, #40]	; (20004a0 <main+0x108>)
 2000478:	f002 fc16 	bl	2002ca8 <iprintf>
 200047c:	e7c4      	b.n	2000408 <main+0x70>
 200047e:	46c0      	nop			; (mov r8, r8)
 2000480:	04000204 	.word	0x04000204
 2000484:	fffff77f 	.word	0xfffff77f
 2000488:	0200e350 	.word	0x0200e350
 200048c:	0200f334 	.word	0x0200f334
 2000490:	0200e374 	.word	0x0200e374
 2000494:	0200e388 	.word	0x0200e388
 2000498:	02010ee8 	.word	0x02010ee8
 200049c:	0200e2fc 	.word	0x0200e2fc
 20004a0:	0200e398 	.word	0x0200e398

020004a4 <CRC8>:
	return out_byte;
}

// http://www.avrtutor.com/tutorial/thermo/crc.php
uint8_t CRC8(uint8_t input, uint8_t seed)
{
 20004a4:	b570      	push	{r4, r5, r6, lr}
        if (!feedback) seed >>= 1;
        else
        {
            seed ^= 0x18;
            seed >>= 1;
            seed |= 0x80;
 20004a6:	2580      	movs	r5, #128	; 0x80
	return out_byte;
}

// http://www.avrtutor.com/tutorial/thermo/crc.php
uint8_t CRC8(uint8_t input, uint8_t seed)
{
 20004a8:	1c03      	adds	r3, r0, #0
 20004aa:	2200      	movs	r2, #0
    uint8_t i, feedback;

    for (i=0; i<8; i++)
    {
        feedback = ((seed ^ input) & 0x01);
        if (!feedback) seed >>= 1;
 20004ac:	2401      	movs	r4, #1
        else
        {
            seed ^= 0x18;
 20004ae:	2618      	movs	r6, #24
            seed >>= 1;
            seed |= 0x80;
 20004b0:	426d      	negs	r5, r5
 20004b2:	e006      	b.n	20004c2 <CRC8+0x1e>
// http://www.avrtutor.com/tutorial/thermo/crc.php
uint8_t CRC8(uint8_t input, uint8_t seed)
{
    uint8_t i, feedback;

    for (i=0; i<8; i++)
 20004b4:	3201      	adds	r2, #1
 20004b6:	0612      	lsls	r2, r2, #24
 20004b8:	0e12      	lsrs	r2, r2, #24
    {
        feedback = ((seed ^ input) & 0x01);
        if (!feedback) seed >>= 1;
 20004ba:	0849      	lsrs	r1, r1, #1
// http://www.avrtutor.com/tutorial/thermo/crc.php
uint8_t CRC8(uint8_t input, uint8_t seed)
{
    uint8_t i, feedback;

    for (i=0; i<8; i++)
 20004bc:	2a08      	cmp	r2, #8
 20004be:	d00f      	beq.n	20004e0 <CRC8+0x3c>
        {
            seed ^= 0x18;
            seed >>= 1;
            seed |= 0x80;
        }
        input >>= 1;
 20004c0:	085b      	lsrs	r3, r3, #1
    uint8_t i, feedback;

    for (i=0; i<8; i++)
    {
        feedback = ((seed ^ input) & 0x01);
        if (!feedback) seed >>= 1;
 20004c2:	1c08      	adds	r0, r1, #0
 20004c4:	4058      	eors	r0, r3
 20004c6:	4220      	tst	r0, r4
 20004c8:	d0f4      	beq.n	20004b4 <CRC8+0x10>
        else
        {
            seed ^= 0x18;
 20004ca:	4071      	eors	r1, r6
 20004cc:	0609      	lsls	r1, r1, #24
            seed >>= 1;
 20004ce:	0e49      	lsrs	r1, r1, #25
// http://www.avrtutor.com/tutorial/thermo/crc.php
uint8_t CRC8(uint8_t input, uint8_t seed)
{
    uint8_t i, feedback;

    for (i=0; i<8; i++)
 20004d0:	3201      	adds	r2, #1
        if (!feedback) seed >>= 1;
        else
        {
            seed ^= 0x18;
            seed >>= 1;
            seed |= 0x80;
 20004d2:	4329      	orrs	r1, r5
// http://www.avrtutor.com/tutorial/thermo/crc.php
uint8_t CRC8(uint8_t input, uint8_t seed)
{
    uint8_t i, feedback;

    for (i=0; i<8; i++)
 20004d4:	0612      	lsls	r2, r2, #24
        if (!feedback) seed >>= 1;
        else
        {
            seed ^= 0x18;
            seed >>= 1;
            seed |= 0x80;
 20004d6:	0609      	lsls	r1, r1, #24
// http://www.avrtutor.com/tutorial/thermo/crc.php
uint8_t CRC8(uint8_t input, uint8_t seed)
{
    uint8_t i, feedback;

    for (i=0; i<8; i++)
 20004d8:	0e12      	lsrs	r2, r2, #24
        if (!feedback) seed >>= 1;
        else
        {
            seed ^= 0x18;
            seed >>= 1;
            seed |= 0x80;
 20004da:	0e09      	lsrs	r1, r1, #24
// http://www.avrtutor.com/tutorial/thermo/crc.php
uint8_t CRC8(uint8_t input, uint8_t seed)
{
    uint8_t i, feedback;

    for (i=0; i<8; i++)
 20004dc:	2a08      	cmp	r2, #8
 20004de:	d1ef      	bne.n	20004c0 <CRC8+0x1c>
        }
        input >>= 1;
    }

    return seed;   
}
 20004e0:	1c08      	adds	r0, r1, #0
 20004e2:	bd70      	pop	{r4, r5, r6, pc}

020004e4 <spi_send>:
	CARD_WaitBusy(); // wait for transmission to complete
	out_byte=AUXSPIDATA; // read the input byte from the SPI bus
	return out_byte;
}

uint8_t spi_send(uint8_t in_byte) {
 20004e4:	b510      	push	{r4, lr}
#include "ds-avr-ds.h"

// sends and receives 1 byte on the SPI bus
static inline uint8_t spi_transfer(uint8_t in_byte){
	uint8_t out_byte;
	AUXSPIDATA = in_byte; // send the output byte to the SPI bus
 20004e6:	4b07      	ldr	r3, [pc, #28]	; (2000504 <spi_send+0x20>)
	CARD_WaitBusy(); // wait for transmission to complete
 20004e8:	4907      	ldr	r1, [pc, #28]	; (2000508 <spi_send+0x24>)
#include "ds-avr-ds.h"

// sends and receives 1 byte on the SPI bus
static inline uint8_t spi_transfer(uint8_t in_byte){
	uint8_t out_byte;
	AUXSPIDATA = in_byte; // send the output byte to the SPI bus
 20004ea:	7018      	strb	r0, [r3, #0]
	CARD_WaitBusy(); // wait for transmission to complete
 20004ec:	2280      	movs	r2, #128	; 0x80
 20004ee:	880b      	ldrh	r3, [r1, #0]
 20004f0:	4213      	tst	r3, r2
 20004f2:	d1fc      	bne.n	20004ee <spi_send+0xa>
	out_byte=AUXSPIDATA; // read the input byte from the SPI bus
 20004f4:	4b03      	ldr	r3, [pc, #12]	; (2000504 <spi_send+0x20>)
uint8_t spi_send(uint8_t in_byte) {
	uint8_t out_byte;
	//swiDelay(WAIT_CYCLES);
	out_byte = spi_transfer(in_byte);
	//swiDelay(WAIT_CYCLES);
	swiDelay(30);
 20004f6:	201e      	movs	r0, #30
// sends and receives 1 byte on the SPI bus
static inline uint8_t spi_transfer(uint8_t in_byte){
	uint8_t out_byte;
	AUXSPIDATA = in_byte; // send the output byte to the SPI bus
	CARD_WaitBusy(); // wait for transmission to complete
	out_byte=AUXSPIDATA; // read the input byte from the SPI bus
 20004f8:	781c      	ldrb	r4, [r3, #0]
uint8_t spi_send(uint8_t in_byte) {
	uint8_t out_byte;
	//swiDelay(WAIT_CYCLES);
	out_byte = spi_transfer(in_byte);
	//swiDelay(WAIT_CYCLES);
	swiDelay(30);
 20004fa:	f001 ffc1 	bl	2002480 <swiDelay>
//	iprintf("transmit: 0x%x recieved: 0x%x\n", in_byte, out_byte);	
	//delay_vblanks(transmission_delay);
	return out_byte;
}
 20004fe:	1c20      	adds	r0, r4, #0
 2000500:	bd10      	pop	{r4, pc}
 2000502:	46c0      	nop			; (mov r8, r8)
 2000504:	040001a2 	.word	0x040001a2
 2000508:	040001a0 	.word	0x040001a0

0200050c <send_array>:

    return seed;   
}

uint8_t send_array(int length, uint8_t *data)
{
 200050c:	b5f8      	push	{r3, r4, r5, r6, r7, lr}
    uint8_t data_in;
    int j;
    AUXSPION();
 200050e:	4a0f      	ldr	r2, [pc, #60]	; (200054c <send_array+0x40>)
 2000510:	4b0f      	ldr	r3, [pc, #60]	; (2000550 <send_array+0x44>)

    return seed;   
}

uint8_t send_array(int length, uint8_t *data)
{
 2000512:	1c05      	adds	r5, r0, #0
    uint8_t data_in;
    int j;
    AUXSPION();
	swiDelay(WAIT_CYCLES);
 2000514:	20b9      	movs	r0, #185	; 0xb9

    return seed;   
}

uint8_t send_array(int length, uint8_t *data)
{
 2000516:	1c0e      	adds	r6, r1, #0
    uint8_t data_in;
    int j;
    AUXSPION();
 2000518:	801a      	strh	r2, [r3, #0]
	swiDelay(WAIT_CYCLES);
 200051a:	0080      	lsls	r0, r0, #2
 200051c:	f001 ffb0 	bl	2002480 <swiDelay>
	data_in = spi_send(*data);
 2000520:	7830      	ldrb	r0, [r6, #0]
 2000522:	f7ff ffdf 	bl	20004e4 <spi_send>
 2000526:	1c07      	adds	r7, r0, #0
	data++;
    for(j=1; j<length; j++) {
 2000528:	2d01      	cmp	r5, #1
 200052a:	dd06      	ble.n	200053a <send_array+0x2e>
 200052c:	2401      	movs	r4, #1
        spi_send(*data);
 200052e:	5d30      	ldrb	r0, [r6, r4]
    int j;
    AUXSPION();
	swiDelay(WAIT_CYCLES);
	data_in = spi_send(*data);
	data++;
    for(j=1; j<length; j++) {
 2000530:	3401      	adds	r4, #1
        spi_send(*data);
 2000532:	f7ff ffd7 	bl	20004e4 <spi_send>
    int j;
    AUXSPION();
	swiDelay(WAIT_CYCLES);
	data_in = spi_send(*data);
	data++;
    for(j=1; j<length; j++) {
 2000536:	42a5      	cmp	r5, r4
 2000538:	dcf9      	bgt.n	200052e <send_array+0x22>
        spi_send(*data);
        data++;
    }
    swiDelay(12 + WAIT_CYCLES);
 200053a:	20bc      	movs	r0, #188	; 0xbc
 200053c:	0080      	lsls	r0, r0, #2
 200053e:	f001 ff9f 	bl	2002480 <swiDelay>
    AUXSPIOFF();
 2000542:	4b03      	ldr	r3, [pc, #12]	; (2000550 <send_array+0x44>)
 2000544:	2200      	movs	r2, #0
    return data_in;
}
 2000546:	1c38      	adds	r0, r7, #0
    for(j=1; j<length; j++) {
        spi_send(*data);
        data++;
    }
    swiDelay(12 + WAIT_CYCLES);
    AUXSPIOFF();
 2000548:	801a      	strh	r2, [r3, #0]
    return data_in;
}
 200054a:	bdf8      	pop	{r3, r4, r5, r6, r7, pc}
 200054c:	ffffa043 	.word	0xffffa043
 2000550:	040001a0 	.word	0x040001a0

02000554 <send_chars>:


uint8_t send_chars(int length, ...)
{
 2000554:	b40f      	push	{r0, r1, r2, r3}
 2000556:	b5f0      	push	{r4, r5, r6, r7, lr}
 2000558:	465f      	mov	r7, fp
 200055a:	4656      	mov	r6, sl
 200055c:	464d      	mov	r5, r9
 200055e:	4644      	mov	r4, r8
 2000560:	b4f0      	push	{r4, r5, r6, r7}
 2000562:	b087      	sub	sp, #28
 2000564:	9910      	ldr	r1, [sp, #64]	; 0x40
 2000566:	4688      	mov	r8, r1
    uint8_t check, data_array[BUFFER_LENGTH];
    va_list ap;
    int j;
    
    if(length > BUFFER_LENGTH - 2) {
 2000568:	2912      	cmp	r1, #18
 200056a:	dd0e      	ble.n	200058a <send_chars+0x36>
        iprintf("Error: cannot send more then %d bytes\n", BUFFER_LENGTH - 2);
 200056c:	4837      	ldr	r0, [pc, #220]	; (200064c <send_chars+0xf8>)
 200056e:	2112      	movs	r1, #18
 2000570:	f002 fb9a 	bl	2002ca8 <iprintf>
 2000574:	20ff      	movs	r0, #255	; 0xff
    //iprintf("CRC: 0x%x\n", check);
    data_array[j+1] = check;
    va_end(ap);
    
    return send_array(length + 2, data_array);
}
 2000576:	b007      	add	sp, #28
 2000578:	bc3c      	pop	{r2, r3, r4, r5}
 200057a:	4690      	mov	r8, r2
 200057c:	4699      	mov	r9, r3
 200057e:	46a2      	mov	sl, r4
 2000580:	46ab      	mov	fp, r5
 2000582:	bcf0      	pop	{r4, r5, r6, r7}
 2000584:	bc08      	pop	{r3}
 2000586:	b004      	add	sp, #16
 2000588:	4718      	bx	r3
        iprintf("Error: cannot send more then %d bytes\n", BUFFER_LENGTH - 2);
        return 0xFF;
    }
    
    check = 0xFF;
    va_start(ap, length);
 200058a:	ab11      	add	r3, sp, #68	; 0x44
 200058c:	9305      	str	r3, [sp, #20]
    data_array[0] = 0xDE;
 200058e:	2322      	movs	r3, #34	; 0x22
 2000590:	466a      	mov	r2, sp
 2000592:	425b      	negs	r3, r3
        if (!feedback) seed >>= 1;
        else
        {
            seed ^= 0x18;
            seed >>= 1;
            seed |= 0x80;
 2000594:	2680      	movs	r6, #128	; 0x80
        return 0xFF;
    }
    
    check = 0xFF;
    va_start(ap, length);
    data_array[0] = 0xDE;
 2000596:	7013      	strb	r3, [r2, #0]
 2000598:	46eb      	mov	fp, sp
 200059a:	2200      	movs	r2, #0
 200059c:	20de      	movs	r0, #222	; 0xde
 200059e:	23ff      	movs	r3, #255	; 0xff
    uint8_t i, feedback;

    for (i=0; i<8; i++)
    {
        feedback = ((seed ^ input) & 0x01);
        if (!feedback) seed >>= 1;
 20005a0:	2501      	movs	r5, #1
        else
        {
            seed ^= 0x18;
 20005a2:	2718      	movs	r7, #24
            seed >>= 1;
            seed |= 0x80;
 20005a4:	4276      	negs	r6, r6
 20005a6:	e006      	b.n	20005b6 <send_chars+0x62>
// http://www.avrtutor.com/tutorial/thermo/crc.php
uint8_t CRC8(uint8_t input, uint8_t seed)
{
    uint8_t i, feedback;

    for (i=0; i<8; i++)
 20005a8:	3201      	adds	r2, #1
 20005aa:	0612      	lsls	r2, r2, #24
 20005ac:	0e12      	lsrs	r2, r2, #24
    {
        feedback = ((seed ^ input) & 0x01);
        if (!feedback) seed >>= 1;
 20005ae:	085b      	lsrs	r3, r3, #1
// http://www.avrtutor.com/tutorial/thermo/crc.php
uint8_t CRC8(uint8_t input, uint8_t seed)
{
    uint8_t i, feedback;

    for (i=0; i<8; i++)
 20005b0:	2a08      	cmp	r2, #8
 20005b2:	d00f      	beq.n	20005d4 <send_chars+0x80>
        {
            seed ^= 0x18;
            seed >>= 1;
            seed |= 0x80;
        }
        input >>= 1;
 20005b4:	0840      	lsrs	r0, r0, #1
    uint8_t i, feedback;

    for (i=0; i<8; i++)
    {
        feedback = ((seed ^ input) & 0x01);
        if (!feedback) seed >>= 1;
 20005b6:	1c1c      	adds	r4, r3, #0
 20005b8:	4044      	eors	r4, r0
 20005ba:	422c      	tst	r4, r5
 20005bc:	d0f4      	beq.n	20005a8 <send_chars+0x54>
        else
        {
            seed ^= 0x18;
 20005be:	407b      	eors	r3, r7
 20005c0:	061b      	lsls	r3, r3, #24
            seed >>= 1;
            seed |= 0x80;
 20005c2:	0e5b      	lsrs	r3, r3, #25
// http://www.avrtutor.com/tutorial/thermo/crc.php
uint8_t CRC8(uint8_t input, uint8_t seed)
{
    uint8_t i, feedback;

    for (i=0; i<8; i++)
 20005c4:	3201      	adds	r2, #1
        if (!feedback) seed >>= 1;
        else
        {
            seed ^= 0x18;
            seed >>= 1;
            seed |= 0x80;
 20005c6:	4333      	orrs	r3, r6
// http://www.avrtutor.com/tutorial/thermo/crc.php
uint8_t CRC8(uint8_t input, uint8_t seed)
{
    uint8_t i, feedback;

    for (i=0; i<8; i++)
 20005c8:	0612      	lsls	r2, r2, #24
        if (!feedback) seed >>= 1;
        else
        {
            seed ^= 0x18;
            seed >>= 1;
            seed |= 0x80;
 20005ca:	061b      	lsls	r3, r3, #24
// http://www.avrtutor.com/tutorial/thermo/crc.php
uint8_t CRC8(uint8_t input, uint8_t seed)
{
    uint8_t i, feedback;

    for (i=0; i<8; i++)
 20005cc:	0e12      	lsrs	r2, r2, #24
        if (!feedback) seed >>= 1;
        else
        {
            seed ^= 0x18;
            seed >>= 1;
            seed |= 0x80;
 20005ce:	0e1b      	lsrs	r3, r3, #24
// http://www.avrtutor.com/tutorial/thermo/crc.php
uint8_t CRC8(uint8_t input, uint8_t seed)
{
    uint8_t i, feedback;

    for (i=0; i<8; i++)
 20005d0:	2a08      	cmp	r2, #8
 20005d2:	d1ef      	bne.n	20005b4 <send_chars+0x60>
    
    check = 0xFF;
    va_start(ap, length);
    data_array[0] = 0xDE;
    check = CRC8(0xDE, check);
    for(j=0; j<length; j++) {
 20005d4:	4641      	mov	r1, r8
 20005d6:	2900      	cmp	r1, #0
 20005d8:	dd36      	ble.n	2000648 <send_chars+0xf4>
 20005da:	9a05      	ldr	r2, [sp, #20]
        if (!feedback) seed >>= 1;
        else
        {
            seed ^= 0x18;
            seed >>= 1;
            seed |= 0x80;
 20005dc:	2580      	movs	r5, #128	; 0x80
    
    check = 0xFF;
    va_start(ap, length);
    data_array[0] = 0xDE;
    check = CRC8(0xDE, check);
    for(j=0; j<length; j++) {
 20005de:	4692      	mov	sl, r2
 20005e0:	4694      	mov	ip, r2
 20005e2:	2700      	movs	r7, #0
    uint8_t i, feedback;

    for (i=0; i<8; i++)
    {
        feedback = ((seed ^ input) & 0x01);
        if (!feedback) seed >>= 1;
 20005e4:	2401      	movs	r4, #1
        else
        {
            seed ^= 0x18;
 20005e6:	2618      	movs	r6, #24
            seed >>= 1;
            seed |= 0x80;
 20005e8:	426d      	negs	r5, r5
    check = 0xFF;
    va_start(ap, length);
    data_array[0] = 0xDE;
    check = CRC8(0xDE, check);
    for(j=0; j<length; j++) {
        data_array[j+1] = va_arg(ap, int);
 20005ea:	4661      	mov	r1, ip
 20005ec:	7808      	ldrb	r0, [r1, #0]
 20005ee:	465a      	mov	r2, fp
 20005f0:	3701      	adds	r7, #1
 20005f2:	55d0      	strb	r0, [r2, r7]
 20005f4:	2200      	movs	r2, #0
 20005f6:	e006      	b.n	2000606 <send_chars+0xb2>
// http://www.avrtutor.com/tutorial/thermo/crc.php
uint8_t CRC8(uint8_t input, uint8_t seed)
{
    uint8_t i, feedback;

    for (i=0; i<8; i++)
 20005f8:	3201      	adds	r2, #1
 20005fa:	0612      	lsls	r2, r2, #24
 20005fc:	0e12      	lsrs	r2, r2, #24
    {
        feedback = ((seed ^ input) & 0x01);
        if (!feedback) seed >>= 1;
 20005fe:	085b      	lsrs	r3, r3, #1
// http://www.avrtutor.com/tutorial/thermo/crc.php
uint8_t CRC8(uint8_t input, uint8_t seed)
{
    uint8_t i, feedback;

    for (i=0; i<8; i++)
 2000600:	2a08      	cmp	r2, #8
 2000602:	d00f      	beq.n	2000624 <send_chars+0xd0>
        {
            seed ^= 0x18;
            seed >>= 1;
            seed |= 0x80;
        }
        input >>= 1;
 2000604:	0840      	lsrs	r0, r0, #1
    uint8_t i, feedback;

    for (i=0; i<8; i++)
    {
        feedback = ((seed ^ input) & 0x01);
        if (!feedback) seed >>= 1;
 2000606:	1c01      	adds	r1, r0, #0
 2000608:	4059      	eors	r1, r3
 200060a:	4221      	tst	r1, r4
 200060c:	d0f4      	beq.n	20005f8 <send_chars+0xa4>
        else
        {
            seed ^= 0x18;
 200060e:	4073      	eors	r3, r6
 2000610:	061b      	lsls	r3, r3, #24
            seed >>= 1;
            seed |= 0x80;
 2000612:	0e5b      	lsrs	r3, r3, #25
// http://www.avrtutor.com/tutorial/thermo/crc.php
uint8_t CRC8(uint8_t input, uint8_t seed)
{
    uint8_t i, feedback;

    for (i=0; i<8; i++)
 2000614:	3201      	adds	r2, #1
        if (!feedback) seed >>= 1;
        else
        {
            seed ^= 0x18;
            seed >>= 1;
            seed |= 0x80;
 2000616:	432b      	orrs	r3, r5
// http://www.avrtutor.com/tutorial/thermo/crc.php
uint8_t CRC8(uint8_t input, uint8_t seed)
{
    uint8_t i, feedback;

    for (i=0; i<8; i++)
 2000618:	0612      	lsls	r2, r2, #24
        if (!feedback) seed >>= 1;
        else
        {
            seed ^= 0x18;
            seed >>= 1;
            seed |= 0x80;
 200061a:	061b      	lsls	r3, r3, #24
// http://www.avrtutor.com/tutorial/thermo/crc.php
uint8_t CRC8(uint8_t input, uint8_t seed)
{
    uint8_t i, feedback;

    for (i=0; i<8; i++)
 200061c:	0e12      	lsrs	r2, r2, #24
        if (!feedback) seed >>= 1;
        else
        {
            seed ^= 0x18;
            seed >>= 1;
            seed |= 0x80;
 200061e:	0e1b      	lsrs	r3, r3, #24
// http://www.avrtutor.com/tutorial/thermo/crc.php
uint8_t CRC8(uint8_t input, uint8_t seed)
{
    uint8_t i, feedback;

    for (i=0; i<8; i++)
 2000620:	2a08      	cmp	r2, #8
 2000622:	d1ef      	bne.n	2000604 <send_chars+0xb0>
        {
            seed ^= 0x18;
            seed >>= 1;
            seed |= 0x80;
        }
        input >>= 1;
 2000624:	2204      	movs	r2, #4
 2000626:	4494      	add	ip, r2
    
    check = 0xFF;
    va_start(ap, length);
    data_array[0] = 0xDE;
    check = CRC8(0xDE, check);
    for(j=0; j<length; j++) {
 2000628:	4547      	cmp	r7, r8
 200062a:	d1de      	bne.n	20005ea <send_chars+0x96>
 200062c:	4644      	mov	r4, r8
 200062e:	00a2      	lsls	r2, r4, #2
 2000630:	4452      	add	r2, sl
 2000632:	9205      	str	r2, [sp, #20]
 2000634:	4642      	mov	r2, r8
 2000636:	3201      	adds	r2, #1
        data_array[j+1] = va_arg(ap, int);
        check = CRC8(data_array[j+1], check);
    }
    //iprintf("CRC: 0x%x\n", check);
    data_array[j+1] = check;
 2000638:	4659      	mov	r1, fp
    va_end(ap);
    
    return send_array(length + 2, data_array);
 200063a:	4640      	mov	r0, r8
    for(j=0; j<length; j++) {
        data_array[j+1] = va_arg(ap, int);
        check = CRC8(data_array[j+1], check);
    }
    //iprintf("CRC: 0x%x\n", check);
    data_array[j+1] = check;
 200063c:	548b      	strb	r3, [r1, r2]
    va_end(ap);
    
    return send_array(length + 2, data_array);
 200063e:	3002      	adds	r0, #2
 2000640:	4669      	mov	r1, sp
 2000642:	f7ff ff63 	bl	200050c <send_array>
 2000646:	e796      	b.n	2000576 <send_chars+0x22>
    
    check = 0xFF;
    va_start(ap, length);
    data_array[0] = 0xDE;
    check = CRC8(0xDE, check);
    for(j=0; j<length; j++) {
 2000648:	2201      	movs	r2, #1
 200064a:	e7f5      	b.n	2000638 <send_chars+0xe4>
 200064c:	0200e3b0 	.word	0x0200e3b0

02000650 <consoleGetDefault>:
 2000650:	4800      	ldr	r0, [pc, #0]	; (2000654 <consoleGetDefault+0x4>)
 2000652:	4770      	bx	lr
 2000654:	0200e55c 	.word	0x0200e55c

02000658 <consoleSelect>:
 2000658:	4b01      	ldr	r3, [pc, #4]	; (2000660 <consoleSelect+0x8>)
 200065a:	65d8      	str	r0, [r3, #92]	; 0x5c
 200065c:	4770      	bx	lr
 200065e:	46c0      	nop			; (mov r8, r8)
 2000660:	0200e55c 	.word	0x0200e55c

02000664 <newRow>:
 2000664:	b5f0      	push	{r4, r5, r6, r7, lr}
 2000666:	4657      	mov	r7, sl
 2000668:	4646      	mov	r6, r8
 200066a:	b4c0      	push	{r6, r7}
 200066c:	4b26      	ldr	r3, [pc, #152]	; (2000708 <newRow+0xa4>)
 200066e:	6ddd      	ldr	r5, [r3, #92]	; 0x5c
 2000670:	6aa9      	ldr	r1, [r5, #40]	; 0x28
 2000672:	6cab      	ldr	r3, [r5, #72]	; 0x48
 2000674:	1c4a      	adds	r2, r1, #1
 2000676:	62aa      	str	r2, [r5, #40]	; 0x28
 2000678:	429a      	cmp	r2, r3
 200067a:	db3d      	blt.n	20006f8 <newRow+0x94>
 200067c:	62a9      	str	r1, [r5, #40]	; 0x28
 200067e:	2b01      	cmp	r3, #1
 2000680:	dd3e      	ble.n	2000700 <newRow+0x9c>
 2000682:	3b01      	subs	r3, #1
 2000684:	6c6c      	ldr	r4, [r5, #68]	; 0x44
 2000686:	2600      	movs	r6, #0
 2000688:	469c      	mov	ip, r3
 200068a:	2c00      	cmp	r4, #0
 200068c:	dd1a      	ble.n	20006c4 <newRow+0x60>
 200068e:	6c28      	ldr	r0, [r5, #64]	; 0x40
 2000690:	6b6f      	ldr	r7, [r5, #52]	; 0x34
 2000692:	1830      	adds	r0, r6, r0
 2000694:	6969      	ldr	r1, [r5, #20]
 2000696:	1c43      	adds	r3, r0, #1
 2000698:	4698      	mov	r8, r3
 200069a:	1c3b      	adds	r3, r7, #0
 200069c:	4343      	muls	r3, r0
 200069e:	468a      	mov	sl, r1
 20006a0:	4641      	mov	r1, r8
 20006a2:	4379      	muls	r1, r7
 20006a4:	6bea      	ldr	r2, [r5, #60]	; 0x3c
 20006a6:	4698      	mov	r8, r3
 20006a8:	1889      	adds	r1, r1, r2
 20006aa:	4442      	add	r2, r8
 20006ac:	0049      	lsls	r1, r1, #1
 20006ae:	0052      	lsls	r2, r2, #1
 20006b0:	4451      	add	r1, sl
 20006b2:	4452      	add	r2, sl
 20006b4:	2300      	movs	r3, #0
 20006b6:	8808      	ldrh	r0, [r1, #0]
 20006b8:	3301      	adds	r3, #1
 20006ba:	8010      	strh	r0, [r2, #0]
 20006bc:	3102      	adds	r1, #2
 20006be:	3202      	adds	r2, #2
 20006c0:	429c      	cmp	r4, r3
 20006c2:	dcf8      	bgt.n	20006b6 <newRow+0x52>
 20006c4:	3601      	adds	r6, #1
 20006c6:	45b4      	cmp	ip, r6
 20006c8:	dcdf      	bgt.n	200068a <newRow+0x26>
 20006ca:	2c00      	cmp	r4, #0
 20006cc:	dd14      	ble.n	20006f8 <newRow+0x94>
 20006ce:	6c2b      	ldr	r3, [r5, #64]	; 0x40
 20006d0:	18f6      	adds	r6, r6, r3
 20006d2:	6b6b      	ldr	r3, [r5, #52]	; 0x34
 20006d4:	1c1a      	adds	r2, r3, #0
 20006d6:	4372      	muls	r2, r6
 20006d8:	6beb      	ldr	r3, [r5, #60]	; 0x3c
 20006da:	2650      	movs	r6, #80	; 0x50
 20006dc:	18d3      	adds	r3, r2, r3
 20006de:	696a      	ldr	r2, [r5, #20]
 20006e0:	005b      	lsls	r3, r3, #1
 20006e2:	18d2      	adds	r2, r2, r3
 20006e4:	2300      	movs	r3, #0
 20006e6:	5ba9      	ldrh	r1, [r5, r6]
 20006e8:	89a8      	ldrh	r0, [r5, #12]
 20006ea:	3120      	adds	r1, #32
 20006ec:	1a09      	subs	r1, r1, r0
 20006ee:	3301      	adds	r3, #1
 20006f0:	8011      	strh	r1, [r2, #0]
 20006f2:	3202      	adds	r2, #2
 20006f4:	429c      	cmp	r4, r3
 20006f6:	dcf6      	bgt.n	20006e6 <newRow+0x82>
 20006f8:	bc0c      	pop	{r2, r3}
 20006fa:	4690      	mov	r8, r2
 20006fc:	469a      	mov	sl, r3
 20006fe:	bdf0      	pop	{r4, r5, r6, r7, pc}
 2000700:	6c6c      	ldr	r4, [r5, #68]	; 0x44
 2000702:	2600      	movs	r6, #0
 2000704:	e7e1      	b.n	20006ca <newRow+0x66>
 2000706:	46c0      	nop			; (mov r8, r8)
 2000708:	0200e55c 	.word	0x0200e55c

0200070c <consolePrintChar>:
 200070c:	b570      	push	{r4, r5, r6, lr}
 200070e:	4d36      	ldr	r5, [pc, #216]	; (20007e8 <consolePrintChar+0xdc>)
 2000710:	1c04      	adds	r4, r0, #0
 2000712:	6de8      	ldr	r0, [r5, #92]	; 0x5c
 2000714:	6d43      	ldr	r3, [r0, #84]	; 0x54
 2000716:	2b00      	cmp	r3, #0
 2000718:	d004      	beq.n	2000724 <consolePrintChar+0x18>
 200071a:	1c21      	adds	r1, r4, #0
 200071c:	4798      	blx	r3
 200071e:	2800      	cmp	r0, #0
 2000720:	d123      	bne.n	200076a <consolePrintChar+0x5e>
 2000722:	6de8      	ldr	r0, [r5, #92]	; 0x5c
 2000724:	6a42      	ldr	r2, [r0, #36]	; 0x24
 2000726:	6c43      	ldr	r3, [r0, #68]	; 0x44
 2000728:	429a      	cmp	r2, r3
 200072a:	da3b      	bge.n	20007a4 <consolePrintChar+0x98>
 200072c:	2c09      	cmp	r4, #9
 200072e:	d040      	beq.n	20007b2 <consolePrintChar+0xa6>
 2000730:	2c09      	cmp	r4, #9
 2000732:	d91b      	bls.n	200076c <consolePrintChar+0x60>
 2000734:	2c0a      	cmp	r4, #10
 2000736:	d041      	beq.n	20007bc <consolePrintChar+0xb0>
 2000738:	2c0d      	cmp	r4, #13
 200073a:	d044      	beq.n	20007c6 <consolePrintChar+0xba>
 200073c:	6c02      	ldr	r2, [r0, #64]	; 0x40
 200073e:	6a83      	ldr	r3, [r0, #40]	; 0x28
 2000740:	6b41      	ldr	r1, [r0, #52]	; 0x34
 2000742:	2550      	movs	r5, #80	; 0x50
 2000744:	5b46      	ldrh	r6, [r0, r5]
 2000746:	18d3      	adds	r3, r2, r3
 2000748:	8985      	ldrh	r5, [r0, #12]
 200074a:	1c0a      	adds	r2, r1, #0
 200074c:	435a      	muls	r2, r3
 200074e:	1b75      	subs	r5, r6, r5
 2000750:	6a43      	ldr	r3, [r0, #36]	; 0x24
 2000752:	6bc1      	ldr	r1, [r0, #60]	; 0x3c
 2000754:	1964      	adds	r4, r4, r5
 2000756:	2552      	movs	r5, #82	; 0x52
 2000758:	5b45      	ldrh	r5, [r0, r5]
 200075a:	18c9      	adds	r1, r1, r3
 200075c:	1889      	adds	r1, r1, r2
 200075e:	6942      	ldr	r2, [r0, #20]
 2000760:	0049      	lsls	r1, r1, #1
 2000762:	432c      	orrs	r4, r5
 2000764:	3301      	adds	r3, #1
 2000766:	528c      	strh	r4, [r1, r2]
 2000768:	6243      	str	r3, [r0, #36]	; 0x24
 200076a:	bd70      	pop	{r4, r5, r6, pc}
 200076c:	2c08      	cmp	r4, #8
 200076e:	d1e5      	bne.n	200073c <consolePrintChar+0x30>
 2000770:	6a43      	ldr	r3, [r0, #36]	; 0x24
 2000772:	3b01      	subs	r3, #1
 2000774:	6243      	str	r3, [r0, #36]	; 0x24
 2000776:	2b00      	cmp	r3, #0
 2000778:	db28      	blt.n	20007cc <consolePrintChar+0xc0>
 200077a:	6a81      	ldr	r1, [r0, #40]	; 0x28
 200077c:	6bc2      	ldr	r2, [r0, #60]	; 0x3c
 200077e:	6c04      	ldr	r4, [r0, #64]	; 0x40
 2000780:	6b45      	ldr	r5, [r0, #52]	; 0x34
 2000782:	1909      	adds	r1, r1, r4
 2000784:	1c2c      	adds	r4, r5, #0
 2000786:	434c      	muls	r4, r1
 2000788:	189b      	adds	r3, r3, r2
 200078a:	2250      	movs	r2, #80	; 0x50
 200078c:	5a82      	ldrh	r2, [r0, r2]
 200078e:	191b      	adds	r3, r3, r4
 2000790:	8984      	ldrh	r4, [r0, #12]
 2000792:	3220      	adds	r2, #32
 2000794:	1b12      	subs	r2, r2, r4
 2000796:	2452      	movs	r4, #82	; 0x52
 2000798:	6941      	ldr	r1, [r0, #20]
 200079a:	5b00      	ldrh	r0, [r0, r4]
 200079c:	005b      	lsls	r3, r3, #1
 200079e:	4302      	orrs	r2, r0
 20007a0:	525a      	strh	r2, [r3, r1]
 20007a2:	e7e2      	b.n	200076a <consolePrintChar+0x5e>
 20007a4:	2300      	movs	r3, #0
 20007a6:	6243      	str	r3, [r0, #36]	; 0x24
 20007a8:	f7ff ff5c 	bl	2000664 <newRow>
 20007ac:	6de8      	ldr	r0, [r5, #92]	; 0x5c
 20007ae:	2c09      	cmp	r4, #9
 20007b0:	d1be      	bne.n	2000730 <consolePrintChar+0x24>
 20007b2:	6a42      	ldr	r2, [r0, #36]	; 0x24
 20007b4:	6cc3      	ldr	r3, [r0, #76]	; 0x4c
 20007b6:	18d3      	adds	r3, r2, r3
 20007b8:	6243      	str	r3, [r0, #36]	; 0x24
 20007ba:	e7d6      	b.n	200076a <consolePrintChar+0x5e>
 20007bc:	2300      	movs	r3, #0
 20007be:	6243      	str	r3, [r0, #36]	; 0x24
 20007c0:	f7ff ff50 	bl	2000664 <newRow>
 20007c4:	e7d1      	b.n	200076a <consolePrintChar+0x5e>
 20007c6:	2300      	movs	r3, #0
 20007c8:	6243      	str	r3, [r0, #36]	; 0x24
 20007ca:	e7ce      	b.n	200076a <consolePrintChar+0x5e>
 20007cc:	6a81      	ldr	r1, [r0, #40]	; 0x28
 20007ce:	2900      	cmp	r1, #0
 20007d0:	dd05      	ble.n	20007de <consolePrintChar+0xd2>
 20007d2:	6bc2      	ldr	r2, [r0, #60]	; 0x3c
 20007d4:	3901      	subs	r1, #1
 20007d6:	1e53      	subs	r3, r2, #1
 20007d8:	6243      	str	r3, [r0, #36]	; 0x24
 20007da:	6281      	str	r1, [r0, #40]	; 0x28
 20007dc:	e7cf      	b.n	200077e <consolePrintChar+0x72>
 20007de:	2300      	movs	r3, #0
 20007e0:	6243      	str	r3, [r0, #36]	; 0x24
 20007e2:	6bc2      	ldr	r2, [r0, #60]	; 0x3c
 20007e4:	e7cb      	b.n	200077e <consolePrintChar+0x72>
 20007e6:	46c0      	nop			; (mov r8, r8)
 20007e8:	0200e55c 	.word	0x0200e55c

020007ec <consoleCls>:
 20007ec:	b5f8      	push	{r3, r4, r5, r6, r7, lr}
 20007ee:	2831      	cmp	r0, #49	; 0x31
 20007f0:	d047      	beq.n	2000882 <consoleCls+0x96>
 20007f2:	2832      	cmp	r0, #50	; 0x32
 20007f4:	d028      	beq.n	2000848 <consoleCls+0x5c>
 20007f6:	2830      	cmp	r0, #48	; 0x30
 20007f8:	d000      	beq.n	20007fc <consoleCls+0x10>
 20007fa:	bdf8      	pop	{r3, r4, r5, r6, r7, pc}
 20007fc:	4c30      	ldr	r4, [pc, #192]	; (20008c0 <consoleCls+0xd4>)
 20007fe:	6de3      	ldr	r3, [r4, #92]	; 0x5c
 2000800:	6c59      	ldr	r1, [r3, #68]	; 0x44
 2000802:	6c98      	ldr	r0, [r3, #72]	; 0x48
 2000804:	6a9f      	ldr	r7, [r3, #40]	; 0x28
 2000806:	1c02      	adds	r2, r0, #0
 2000808:	434a      	muls	r2, r1
 200080a:	6b58      	ldr	r0, [r3, #52]	; 0x34
 200080c:	6a5e      	ldr	r6, [r3, #36]	; 0x24
 200080e:	1c01      	adds	r1, r0, #0
 2000810:	4379      	muls	r1, r7
 2000812:	1b92      	subs	r2, r2, r6
 2000814:	1a52      	subs	r2, r2, r1
 2000816:	2a00      	cmp	r2, #0
 2000818:	dd13      	ble.n	2000842 <consoleCls+0x56>
 200081a:	2501      	movs	r5, #1
 200081c:	e000      	b.n	2000820 <consoleCls+0x34>
 200081e:	4665      	mov	r5, ip
 2000820:	2020      	movs	r0, #32
 2000822:	f7ff ff73 	bl	200070c <consolePrintChar>
 2000826:	6de3      	ldr	r3, [r4, #92]	; 0x5c
 2000828:	1c6a      	adds	r2, r5, #1
 200082a:	6c59      	ldr	r1, [r3, #68]	; 0x44
 200082c:	6c98      	ldr	r0, [r3, #72]	; 0x48
 200082e:	4694      	mov	ip, r2
 2000830:	1c02      	adds	r2, r0, #0
 2000832:	434a      	muls	r2, r1
 2000834:	6b58      	ldr	r0, [r3, #52]	; 0x34
 2000836:	1b92      	subs	r2, r2, r6
 2000838:	1c01      	adds	r1, r0, #0
 200083a:	4379      	muls	r1, r7
 200083c:	1a52      	subs	r2, r2, r1
 200083e:	42aa      	cmp	r2, r5
 2000840:	dced      	bgt.n	200081e <consoleCls+0x32>
 2000842:	625e      	str	r6, [r3, #36]	; 0x24
 2000844:	629f      	str	r7, [r3, #40]	; 0x28
 2000846:	e7d8      	b.n	20007fa <consoleCls+0xe>
 2000848:	4c1d      	ldr	r4, [pc, #116]	; (20008c0 <consoleCls+0xd4>)
 200084a:	2200      	movs	r2, #0
 200084c:	6de3      	ldr	r3, [r4, #92]	; 0x5c
 200084e:	6c59      	ldr	r1, [r3, #68]	; 0x44
 2000850:	6c98      	ldr	r0, [r3, #72]	; 0x48
 2000852:	629a      	str	r2, [r3, #40]	; 0x28
 2000854:	625a      	str	r2, [r3, #36]	; 0x24
 2000856:	1c02      	adds	r2, r0, #0
 2000858:	434a      	muls	r2, r1
 200085a:	2a00      	cmp	r2, #0
 200085c:	dd0d      	ble.n	200087a <consoleCls+0x8e>
 200085e:	2501      	movs	r5, #1
 2000860:	e000      	b.n	2000864 <consoleCls+0x78>
 2000862:	1c35      	adds	r5, r6, #0
 2000864:	2020      	movs	r0, #32
 2000866:	f7ff ff51 	bl	200070c <consolePrintChar>
 200086a:	6de3      	ldr	r3, [r4, #92]	; 0x5c
 200086c:	1c6e      	adds	r6, r5, #1
 200086e:	6c59      	ldr	r1, [r3, #68]	; 0x44
 2000870:	6c98      	ldr	r0, [r3, #72]	; 0x48
 2000872:	1c02      	adds	r2, r0, #0
 2000874:	434a      	muls	r2, r1
 2000876:	42aa      	cmp	r2, r5
 2000878:	dcf3      	bgt.n	2000862 <consoleCls+0x76>
 200087a:	2200      	movs	r2, #0
 200087c:	629a      	str	r2, [r3, #40]	; 0x28
 200087e:	625a      	str	r2, [r3, #36]	; 0x24
 2000880:	e7bb      	b.n	20007fa <consoleCls+0xe>
 2000882:	4c0f      	ldr	r4, [pc, #60]	; (20008c0 <consoleCls+0xd4>)
 2000884:	2200      	movs	r2, #0
 2000886:	6de3      	ldr	r3, [r4, #92]	; 0x5c
 2000888:	6a9f      	ldr	r7, [r3, #40]	; 0x28
 200088a:	6c59      	ldr	r1, [r3, #68]	; 0x44
 200088c:	6a5e      	ldr	r6, [r3, #36]	; 0x24
 200088e:	629a      	str	r2, [r3, #40]	; 0x28
 2000890:	625a      	str	r2, [r3, #36]	; 0x24
 2000892:	1c0a      	adds	r2, r1, #0
 2000894:	437a      	muls	r2, r7
 2000896:	1992      	adds	r2, r2, r6
 2000898:	2a00      	cmp	r2, #0
 200089a:	ddd2      	ble.n	2000842 <consoleCls+0x56>
 200089c:	2501      	movs	r5, #1
 200089e:	e000      	b.n	20008a2 <consoleCls+0xb6>
 20008a0:	1c05      	adds	r5, r0, #0
 20008a2:	2020      	movs	r0, #32
 20008a4:	f7ff ff32 	bl	200070c <consolePrintChar>
 20008a8:	6de3      	ldr	r3, [r4, #92]	; 0x5c
 20008aa:	1c68      	adds	r0, r5, #1
 20008ac:	6c59      	ldr	r1, [r3, #68]	; 0x44
 20008ae:	1c0a      	adds	r2, r1, #0
 20008b0:	437a      	muls	r2, r7
 20008b2:	1992      	adds	r2, r2, r6
 20008b4:	42aa      	cmp	r2, r5
 20008b6:	dcf3      	bgt.n	20008a0 <consoleCls+0xb4>
 20008b8:	625e      	str	r6, [r3, #36]	; 0x24
 20008ba:	629f      	str	r7, [r3, #40]	; 0x28
 20008bc:	e79d      	b.n	20007fa <consoleCls+0xe>
 20008be:	46c0      	nop			; (mov r8, r8)
 20008c0:	0200e55c 	.word	0x0200e55c

020008c4 <consoleLoadFont>:
 20008c4:	b5f0      	push	{r4, r5, r6, r7, lr}
 20008c6:	465f      	mov	r7, fp
 20008c8:	4656      	mov	r6, sl
 20008ca:	464d      	mov	r5, r9
 20008cc:	4644      	mov	r4, r8
 20008ce:	b4f0      	push	{r4, r5, r6, r7}
 20008d0:	6985      	ldr	r5, [r0, #24]
 20008d2:	4b91      	ldr	r3, [pc, #580]	; (2000b18 <consoleLoadFont+0x254>)
 20008d4:	b083      	sub	sp, #12
 20008d6:	429d      	cmp	r5, r3
 20008d8:	d812      	bhi.n	2000900 <consoleLoadFont+0x3c>
 20008da:	7a83      	ldrb	r3, [r0, #10]
 20008dc:	24a0      	movs	r4, #160	; 0xa0
 20008de:	04e4      	lsls	r4, r4, #19
 20008e0:	2b04      	cmp	r3, #4
 20008e2:	d011      	beq.n	2000908 <consoleLoadFont+0x44>
 20008e4:	2b08      	cmp	r3, #8
 20008e6:	d04d      	beq.n	2000984 <consoleLoadFont+0xc0>
 20008e8:	2300      	movs	r3, #0
 20008ea:	8023      	strh	r3, [r4, #0]
 20008ec:	2032      	movs	r0, #50	; 0x32
 20008ee:	f7ff ff7d 	bl	20007ec <consoleCls>
 20008f2:	b003      	add	sp, #12
 20008f4:	bc3c      	pop	{r2, r3, r4, r5}
 20008f6:	4690      	mov	r8, r2
 20008f8:	4699      	mov	r9, r3
 20008fa:	46a2      	mov	sl, r4
 20008fc:	46ab      	mov	fp, r5
 20008fe:	bdf0      	pop	{r4, r5, r6, r7, pc}
 2000900:	7a83      	ldrb	r3, [r0, #10]
 2000902:	4c86      	ldr	r4, [pc, #536]	; (2000b1c <consoleLoadFont+0x258>)
 2000904:	2b04      	cmp	r3, #4
 2000906:	d1ed      	bne.n	20008e4 <consoleLoadFont+0x20>
 2000908:	7c03      	ldrb	r3, [r0, #16]
 200090a:	2b00      	cmp	r3, #0
 200090c:	d077      	beq.n	20009fe <consoleLoadFont+0x13a>
 200090e:	4b84      	ldr	r3, [pc, #528]	; (2000b20 <consoleLoadFont+0x25c>)
 2000910:	2252      	movs	r2, #82	; 0x52
 2000912:	5283      	strh	r3, [r0, r2]
 2000914:	89c2      	ldrh	r2, [r0, #14]
 2000916:	2a00      	cmp	r2, #0
 2000918:	d100      	bne.n	200091c <consoleLoadFont+0x58>
 200091a:	e0b9      	b.n	2000a90 <consoleLoadFont+0x1cc>
 200091c:	6802      	ldr	r2, [r0, #0]
 200091e:	1c2b      	adds	r3, r5, #0
 2000920:	9201      	str	r2, [sp, #4]
 2000922:	220f      	movs	r2, #15
 2000924:	4692      	mov	sl, r2
 2000926:	22f0      	movs	r2, #240	; 0xf0
 2000928:	4690      	mov	r8, r2
 200092a:	4693      	mov	fp, r2
 200092c:	22f0      	movs	r2, #240	; 0xf0
 200092e:	27f0      	movs	r7, #240	; 0xf0
 2000930:	0212      	lsls	r2, r2, #8
 2000932:	46a1      	mov	r9, r4
 2000934:	2100      	movs	r1, #0
 2000936:	2600      	movs	r6, #0
 2000938:	013f      	lsls	r7, r7, #4
 200093a:	4694      	mov	ip, r2
 200093c:	1c05      	adds	r5, r0, #0
 200093e:	1c1c      	adds	r4, r3, #0
 2000940:	e019      	b.n	2000976 <consoleLoadFont+0xb2>
 2000942:	2300      	movs	r3, #0
 2000944:	4640      	mov	r0, r8
 2000946:	4202      	tst	r2, r0
 2000948:	d003      	beq.n	2000952 <consoleLoadFont+0x8e>
 200094a:	4658      	mov	r0, fp
 200094c:	4303      	orrs	r3, r0
 200094e:	041b      	lsls	r3, r3, #16
 2000950:	0c1b      	lsrs	r3, r3, #16
 2000952:	423a      	tst	r2, r7
 2000954:	d000      	beq.n	2000958 <consoleLoadFont+0x94>
 2000956:	433b      	orrs	r3, r7
 2000958:	4660      	mov	r0, ip
 200095a:	4202      	tst	r2, r0
 200095c:	d003      	beq.n	2000966 <consoleLoadFont+0xa2>
 200095e:	4a70      	ldr	r2, [pc, #448]	; (2000b20 <consoleLoadFont+0x25c>)
 2000960:	4313      	orrs	r3, r2
 2000962:	041b      	lsls	r3, r3, #16
 2000964:	0c1b      	lsrs	r3, r3, #16
 2000966:	5263      	strh	r3, [r4, r1]
 2000968:	89eb      	ldrh	r3, [r5, #14]
 200096a:	3601      	adds	r6, #1
 200096c:	011b      	lsls	r3, r3, #4
 200096e:	3102      	adds	r1, #2
 2000970:	42b3      	cmp	r3, r6
 2000972:	dc00      	bgt.n	2000976 <consoleLoadFont+0xb2>
 2000974:	e08b      	b.n	2000a8e <consoleLoadFont+0x1ca>
 2000976:	9b01      	ldr	r3, [sp, #4]
 2000978:	4650      	mov	r0, sl
 200097a:	5a5a      	ldrh	r2, [r3, r1]
 200097c:	4202      	tst	r2, r0
 200097e:	d0e0      	beq.n	2000942 <consoleLoadFont+0x7e>
 2000980:	230f      	movs	r3, #15
 2000982:	e7df      	b.n	2000944 <consoleLoadFont+0x80>
 2000984:	2352      	movs	r3, #82	; 0x52
 2000986:	2200      	movs	r2, #0
 2000988:	52c2      	strh	r2, [r0, r3]
 200098a:	7c03      	ldrb	r3, [r0, #16]
 200098c:	2b00      	cmp	r3, #0
 200098e:	d05d      	beq.n	2000a4c <consoleLoadFont+0x188>
 2000990:	89c3      	ldrh	r3, [r0, #14]
 2000992:	2b00      	cmp	r3, #0
 2000994:	d100      	bne.n	2000998 <consoleLoadFont+0xd4>
 2000996:	e0b7      	b.n	2000b08 <consoleLoadFont+0x244>
 2000998:	011b      	lsls	r3, r3, #4
 200099a:	469a      	mov	sl, r3
 200099c:	230f      	movs	r3, #15
 200099e:	22f0      	movs	r2, #240	; 0xf0
 20009a0:	4698      	mov	r8, r3
 20009a2:	26f0      	movs	r6, #240	; 0xf0
 20009a4:	23ff      	movs	r3, #255	; 0xff
 20009a6:	0236      	lsls	r6, r6, #8
 20009a8:	4694      	mov	ip, r2
 20009aa:	021a      	lsls	r2, r3, #8
 20009ac:	041b      	lsls	r3, r3, #16
 20009ae:	27f0      	movs	r7, #240	; 0xf0
 20009b0:	4699      	mov	r9, r3
 20009b2:	1c33      	adds	r3, r6, #0
 20009b4:	6800      	ldr	r0, [r0, #0]
 20009b6:	1c2e      	adds	r6, r5, #0
 20009b8:	2100      	movs	r1, #0
 20009ba:	4655      	mov	r5, sl
 20009bc:	4693      	mov	fp, r2
 20009be:	013f      	lsls	r7, r7, #4
 20009c0:	46a2      	mov	sl, r4
 20009c2:	9301      	str	r3, [sp, #4]
 20009c4:	e015      	b.n	20009f2 <consoleLoadFont+0x12e>
 20009c6:	2200      	movs	r2, #0
 20009c8:	4664      	mov	r4, ip
 20009ca:	4223      	tst	r3, r4
 20009cc:	d001      	beq.n	20009d2 <consoleLoadFont+0x10e>
 20009ce:	465c      	mov	r4, fp
 20009d0:	4322      	orrs	r2, r4
 20009d2:	423b      	tst	r3, r7
 20009d4:	d001      	beq.n	20009da <consoleLoadFont+0x116>
 20009d6:	464c      	mov	r4, r9
 20009d8:	4322      	orrs	r2, r4
 20009da:	9c01      	ldr	r4, [sp, #4]
 20009dc:	4223      	tst	r3, r4
 20009de:	d001      	beq.n	20009e4 <consoleLoadFont+0x120>
 20009e0:	4b50      	ldr	r3, [pc, #320]	; (2000b24 <consoleLoadFont+0x260>)
 20009e2:	431a      	orrs	r2, r3
 20009e4:	008b      	lsls	r3, r1, #2
 20009e6:	3101      	adds	r1, #1
 20009e8:	50f2      	str	r2, [r6, r3]
 20009ea:	3002      	adds	r0, #2
 20009ec:	428d      	cmp	r5, r1
 20009ee:	dc00      	bgt.n	20009f2 <consoleLoadFont+0x12e>
 20009f0:	e089      	b.n	2000b06 <consoleLoadFont+0x242>
 20009f2:	8803      	ldrh	r3, [r0, #0]
 20009f4:	4644      	mov	r4, r8
 20009f6:	4223      	tst	r3, r4
 20009f8:	d0e5      	beq.n	20009c6 <consoleLoadFont+0x102>
 20009fa:	22ff      	movs	r2, #255	; 0xff
 20009fc:	e7e4      	b.n	20009c8 <consoleLoadFont+0x104>
 20009fe:	6803      	ldr	r3, [r0, #0]
 2000a00:	2b00      	cmp	r3, #0
 2000a02:	d00c      	beq.n	2000a1e <consoleLoadFont+0x15a>
 2000a04:	4a48      	ldr	r2, [pc, #288]	; (2000b28 <consoleLoadFont+0x264>)
 2000a06:	6013      	str	r3, [r2, #0]
 2000a08:	4b48      	ldr	r3, [pc, #288]	; (2000b2c <consoleLoadFont+0x268>)
 2000a0a:	4a49      	ldr	r2, [pc, #292]	; (2000b30 <consoleLoadFont+0x26c>)
 2000a0c:	601d      	str	r5, [r3, #0]
 2000a0e:	89c3      	ldrh	r3, [r0, #14]
 2000a10:	011b      	lsls	r3, r3, #4
 2000a12:	4313      	orrs	r3, r2
 2000a14:	4a47      	ldr	r2, [pc, #284]	; (2000b34 <consoleLoadFont+0x270>)
 2000a16:	6013      	str	r3, [r2, #0]
 2000a18:	6813      	ldr	r3, [r2, #0]
 2000a1a:	2b00      	cmp	r3, #0
 2000a1c:	dbfc      	blt.n	2000a18 <consoleLoadFont+0x154>
 2000a1e:	6843      	ldr	r3, [r0, #4]
 2000a20:	2b00      	cmp	r3, #0
 2000a22:	d076      	beq.n	2000b12 <consoleLoadFont+0x24e>
 2000a24:	2252      	movs	r2, #82	; 0x52
 2000a26:	5a81      	ldrh	r1, [r0, r2]
 2000a28:	4a3f      	ldr	r2, [pc, #252]	; (2000b28 <consoleLoadFont+0x264>)
 2000a2a:	6013      	str	r3, [r2, #0]
 2000a2c:	4b3f      	ldr	r3, [pc, #252]	; (2000b2c <consoleLoadFont+0x268>)
 2000a2e:	014a      	lsls	r2, r1, #5
 2000a30:	18a2      	adds	r2, r4, r2
 2000a32:	601a      	str	r2, [r3, #0]
 2000a34:	8902      	ldrh	r2, [r0, #8]
 2000a36:	4b3e      	ldr	r3, [pc, #248]	; (2000b30 <consoleLoadFont+0x26c>)
 2000a38:	4313      	orrs	r3, r2
 2000a3a:	4a3e      	ldr	r2, [pc, #248]	; (2000b34 <consoleLoadFont+0x270>)
 2000a3c:	6013      	str	r3, [r2, #0]
 2000a3e:	6813      	ldr	r3, [r2, #0]
 2000a40:	2b00      	cmp	r3, #0
 2000a42:	dbfc      	blt.n	2000a3e <consoleLoadFont+0x17a>
 2000a44:	0309      	lsls	r1, r1, #12
 2000a46:	2352      	movs	r3, #82	; 0x52
 2000a48:	52c1      	strh	r1, [r0, r3]
 2000a4a:	e74d      	b.n	20008e8 <consoleLoadFont+0x24>
 2000a4c:	6803      	ldr	r3, [r0, #0]
 2000a4e:	2b00      	cmp	r3, #0
 2000a50:	d00c      	beq.n	2000a6c <consoleLoadFont+0x1a8>
 2000a52:	4a35      	ldr	r2, [pc, #212]	; (2000b28 <consoleLoadFont+0x264>)
 2000a54:	6013      	str	r3, [r2, #0]
 2000a56:	4b35      	ldr	r3, [pc, #212]	; (2000b2c <consoleLoadFont+0x268>)
 2000a58:	4a35      	ldr	r2, [pc, #212]	; (2000b30 <consoleLoadFont+0x26c>)
 2000a5a:	601d      	str	r5, [r3, #0]
 2000a5c:	89c3      	ldrh	r3, [r0, #14]
 2000a5e:	015b      	lsls	r3, r3, #5
 2000a60:	4313      	orrs	r3, r2
 2000a62:	4a34      	ldr	r2, [pc, #208]	; (2000b34 <consoleLoadFont+0x270>)
 2000a64:	6013      	str	r3, [r2, #0]
 2000a66:	6813      	ldr	r3, [r2, #0]
 2000a68:	2b00      	cmp	r3, #0
 2000a6a:	dbfc      	blt.n	2000a66 <consoleLoadFont+0x1a2>
 2000a6c:	6843      	ldr	r3, [r0, #4]
 2000a6e:	2b00      	cmp	r3, #0
 2000a70:	d100      	bne.n	2000a74 <consoleLoadFont+0x1b0>
 2000a72:	e739      	b.n	20008e8 <consoleLoadFont+0x24>
 2000a74:	4a2c      	ldr	r2, [pc, #176]	; (2000b28 <consoleLoadFont+0x264>)
 2000a76:	6013      	str	r3, [r2, #0]
 2000a78:	4b2c      	ldr	r3, [pc, #176]	; (2000b2c <consoleLoadFont+0x268>)
 2000a7a:	601c      	str	r4, [r3, #0]
 2000a7c:	8902      	ldrh	r2, [r0, #8]
 2000a7e:	4b2c      	ldr	r3, [pc, #176]	; (2000b30 <consoleLoadFont+0x26c>)
 2000a80:	4313      	orrs	r3, r2
 2000a82:	4a2c      	ldr	r2, [pc, #176]	; (2000b34 <consoleLoadFont+0x270>)
 2000a84:	6013      	str	r3, [r2, #0]
 2000a86:	6813      	ldr	r3, [r2, #0]
 2000a88:	2b00      	cmp	r3, #0
 2000a8a:	dbfc      	blt.n	2000a86 <consoleLoadFont+0x1c2>
 2000a8c:	e72c      	b.n	20008e8 <consoleLoadFont+0x24>
 2000a8e:	464c      	mov	r4, r9
 2000a90:	2300      	movs	r3, #0
 2000a92:	83e3      	strh	r3, [r4, #30]
 2000a94:	230f      	movs	r3, #15
 2000a96:	87e3      	strh	r3, [r4, #62]	; 0x3e
 2000a98:	23f0      	movs	r3, #240	; 0xf0
 2000a9a:	005b      	lsls	r3, r3, #1
 2000a9c:	225e      	movs	r2, #94	; 0x5e
 2000a9e:	52a3      	strh	r3, [r4, r2]
 2000aa0:	4a25      	ldr	r2, [pc, #148]	; (2000b38 <consoleLoadFont+0x274>)
 2000aa2:	237e      	movs	r3, #126	; 0x7e
 2000aa4:	52e2      	strh	r2, [r4, r3]
 2000aa6:	23f0      	movs	r3, #240	; 0xf0
 2000aa8:	019b      	lsls	r3, r3, #6
 2000aaa:	229e      	movs	r2, #158	; 0x9e
 2000aac:	52a3      	strh	r3, [r4, r2]
 2000aae:	4a23      	ldr	r2, [pc, #140]	; (2000b3c <consoleLoadFont+0x278>)
 2000ab0:	23be      	movs	r3, #190	; 0xbe
 2000ab2:	52e2      	strh	r2, [r4, r3]
 2000ab4:	4a22      	ldr	r2, [pc, #136]	; (2000b40 <consoleLoadFont+0x27c>)
 2000ab6:	23de      	movs	r3, #222	; 0xde
 2000ab8:	52e2      	strh	r2, [r4, r3]
 2000aba:	4a22      	ldr	r2, [pc, #136]	; (2000b44 <consoleLoadFont+0x280>)
 2000abc:	23fe      	movs	r3, #254	; 0xfe
 2000abe:	52e2      	strh	r2, [r4, r3]
 2000ac0:	4a21      	ldr	r2, [pc, #132]	; (2000b48 <consoleLoadFont+0x284>)
 2000ac2:	238f      	movs	r3, #143	; 0x8f
 2000ac4:	005b      	lsls	r3, r3, #1
 2000ac6:	52e2      	strh	r2, [r4, r3]
 2000ac8:	239f      	movs	r3, #159	; 0x9f
 2000aca:	005b      	lsls	r3, r3, #1
 2000acc:	221f      	movs	r2, #31
 2000ace:	52e2      	strh	r2, [r4, r3]
 2000ad0:	23af      	movs	r3, #175	; 0xaf
 2000ad2:	22f8      	movs	r2, #248	; 0xf8
 2000ad4:	005b      	lsls	r3, r3, #1
 2000ad6:	0092      	lsls	r2, r2, #2
 2000ad8:	52e2      	strh	r2, [r4, r3]
 2000ada:	4a1c      	ldr	r2, [pc, #112]	; (2000b4c <consoleLoadFont+0x288>)
 2000adc:	23bf      	movs	r3, #191	; 0xbf
 2000ade:	005b      	lsls	r3, r3, #1
 2000ae0:	52e2      	strh	r2, [r4, r3]
 2000ae2:	23cf      	movs	r3, #207	; 0xcf
 2000ae4:	22f8      	movs	r2, #248	; 0xf8
 2000ae6:	005b      	lsls	r3, r3, #1
 2000ae8:	01d2      	lsls	r2, r2, #7
 2000aea:	52e2      	strh	r2, [r4, r3]
 2000aec:	4a18      	ldr	r2, [pc, #96]	; (2000b50 <consoleLoadFont+0x28c>)
 2000aee:	23df      	movs	r3, #223	; 0xdf
 2000af0:	005b      	lsls	r3, r3, #1
 2000af2:	52e2      	strh	r2, [r4, r3]
 2000af4:	4a17      	ldr	r2, [pc, #92]	; (2000b54 <consoleLoadFont+0x290>)
 2000af6:	23ef      	movs	r3, #239	; 0xef
 2000af8:	005b      	lsls	r3, r3, #1
 2000afa:	52e2      	strh	r2, [r4, r3]
 2000afc:	23ff      	movs	r3, #255	; 0xff
 2000afe:	005b      	lsls	r3, r3, #1
 2000b00:	321f      	adds	r2, #31
 2000b02:	52e2      	strh	r2, [r4, r3]
 2000b04:	e6f0      	b.n	20008e8 <consoleLoadFont+0x24>
 2000b06:	4654      	mov	r4, sl
 2000b08:	23ff      	movs	r3, #255	; 0xff
 2000b0a:	4a13      	ldr	r2, [pc, #76]	; (2000b58 <consoleLoadFont+0x294>)
 2000b0c:	005b      	lsls	r3, r3, #1
 2000b0e:	52e2      	strh	r2, [r4, r3]
 2000b10:	e6ea      	b.n	20008e8 <consoleLoadFont+0x24>
 2000b12:	2352      	movs	r3, #82	; 0x52
 2000b14:	5ac1      	ldrh	r1, [r0, r3]
 2000b16:	e795      	b.n	2000a44 <consoleLoadFont+0x180>
 2000b18:	061fffff 	.word	0x061fffff
 2000b1c:	05000400 	.word	0x05000400
 2000b20:	fffff000 	.word	0xfffff000
 2000b24:	ff000000 	.word	0xff000000
 2000b28:	040000d4 	.word	0x040000d4
 2000b2c:	040000d8 	.word	0x040000d8
 2000b30:	80000000 	.word	0x80000000
 2000b34:	040000dc 	.word	0x040000dc
 2000b38:	000001ef 	.word	0x000001ef
 2000b3c:	00003c0f 	.word	0x00003c0f
 2000b40:	00003de0 	.word	0x00003de0
 2000b44:	00006318 	.word	0x00006318
 2000b48:	00003def 	.word	0x00003def
 2000b4c:	000003ff 	.word	0x000003ff
 2000b50:	00007c1f 	.word	0x00007c1f
 2000b54:	00007fe0 	.word	0x00007fe0
 2000b58:	00007fff 	.word	0x00007fff

02000b5c <consoleSetFont>:
 2000b5c:	b570      	push	{r4, r5, r6, lr}
 2000b5e:	1c03      	adds	r3, r0, #0
 2000b60:	1c04      	adds	r4, r0, #0
 2000b62:	c925      	ldmia	r1!, {r0, r2, r5}
 2000b64:	c325      	stmia	r3!, {r0, r2, r5}
 2000b66:	c905      	ldmia	r1!, {r0, r2}
 2000b68:	c305      	stmia	r3!, {r0, r2}
 2000b6a:	1c20      	adds	r0, r4, #0
 2000b6c:	f7ff feaa 	bl	20008c4 <consoleLoadFont>
 2000b70:	4b01      	ldr	r3, [pc, #4]	; (2000b78 <consoleSetFont+0x1c>)
 2000b72:	65dc      	str	r4, [r3, #92]	; 0x5c
 2000b74:	bd70      	pop	{r4, r5, r6, pc}
 2000b76:	46c0      	nop			; (mov r8, r8)
 2000b78:	0200e55c 	.word	0x0200e55c

02000b7c <consoleSetWindow>:
 2000b7c:	b500      	push	{lr}
 2000b7e:	2800      	cmp	r0, #0
 2000b80:	d008      	beq.n	2000b94 <consoleSetWindow+0x18>
 2000b82:	6443      	str	r3, [r0, #68]	; 0x44
 2000b84:	9b01      	ldr	r3, [sp, #4]
 2000b86:	6483      	str	r3, [r0, #72]	; 0x48
 2000b88:	2300      	movs	r3, #0
 2000b8a:	63c1      	str	r1, [r0, #60]	; 0x3c
 2000b8c:	6402      	str	r2, [r0, #64]	; 0x40
 2000b8e:	6243      	str	r3, [r0, #36]	; 0x24
 2000b90:	6283      	str	r3, [r0, #40]	; 0x28
 2000b92:	bd00      	pop	{pc}
 2000b94:	4801      	ldr	r0, [pc, #4]	; (2000b9c <consoleSetWindow+0x20>)
 2000b96:	6dc0      	ldr	r0, [r0, #92]	; 0x5c
 2000b98:	e7f3      	b.n	2000b82 <consoleSetWindow+0x6>
 2000b9a:	46c0      	nop			; (mov r8, r8)
 2000b9c:	0200e55c 	.word	0x0200e55c

02000ba0 <consoleClear>:
 2000ba0:	b510      	push	{r4, lr}
 2000ba2:	4802      	ldr	r0, [pc, #8]	; (2000bac <consoleClear+0xc>)
 2000ba4:	f002 f880 	bl	2002ca8 <iprintf>
 2000ba8:	bd10      	pop	{r4, pc}
 2000baa:	46c0      	nop			; (mov r8, r8)
 2000bac:	0200e3d8 	.word	0x0200e3d8

02000bb0 <consoleDebugInit>:
 2000bb0:	b510      	push	{r4, lr}
 2000bb2:	2801      	cmp	r0, #1
 2000bb4:	d015      	beq.n	2000be2 <consoleDebugInit+0x32>
 2000bb6:	2800      	cmp	r0, #0
 2000bb8:	d00e      	beq.n	2000bd8 <consoleDebugInit+0x28>
 2000bba:	2802      	cmp	r0, #2
 2000bbc:	d103      	bne.n	2000bc6 <consoleDebugInit+0x16>
 2000bbe:	4a0b      	ldr	r2, [pc, #44]	; (2000bec <consoleDebugInit+0x3c>)
 2000bc0:	4b0b      	ldr	r3, [pc, #44]	; (2000bf0 <consoleDebugInit+0x40>)
 2000bc2:	325c      	adds	r2, #92	; 0x5c
 2000bc4:	609a      	str	r2, [r3, #8]
 2000bc6:	4b0b      	ldr	r3, [pc, #44]	; (2000bf4 <consoleDebugInit+0x44>)
 2000bc8:	2100      	movs	r1, #0
 2000bca:	681b      	ldr	r3, [r3, #0]
 2000bcc:	2202      	movs	r2, #2
 2000bce:	68d8      	ldr	r0, [r3, #12]
 2000bd0:	2300      	movs	r3, #0
 2000bd2:	f002 f905 	bl	2002de0 <setvbuf>
 2000bd6:	bd10      	pop	{r4, pc}
 2000bd8:	4a07      	ldr	r2, [pc, #28]	; (2000bf8 <consoleDebugInit+0x48>)
 2000bda:	4b05      	ldr	r3, [pc, #20]	; (2000bf0 <consoleDebugInit+0x40>)
 2000bdc:	3238      	adds	r2, #56	; 0x38
 2000bde:	609a      	str	r2, [r3, #8]
 2000be0:	e7f1      	b.n	2000bc6 <consoleDebugInit+0x16>
 2000be2:	4a02      	ldr	r2, [pc, #8]	; (2000bec <consoleDebugInit+0x3c>)
 2000be4:	4b02      	ldr	r3, [pc, #8]	; (2000bf0 <consoleDebugInit+0x40>)
 2000be6:	609a      	str	r2, [r3, #8]
 2000be8:	e7ed      	b.n	2000bc6 <consoleDebugInit+0x16>
 2000bea:	46c0      	nop			; (mov r8, r8)
 2000bec:	020084f4 	.word	0x020084f4
 2000bf0:	0200f2d8 	.word	0x0200f2d8
 2000bf4:	0200e940 	.word	0x0200e940
 2000bf8:	02008574 	.word	0x02008574

02000bfc <consoleInit>:
 2000bfc:	b5f0      	push	{r4, r5, r6, r7, lr}
 2000bfe:	465f      	mov	r7, fp
 2000c00:	4656      	mov	r6, sl
 2000c02:	464d      	mov	r5, r9
 2000c04:	4644      	mov	r4, r8
 2000c06:	b4f0      	push	{r4, r5, r6, r7}
 2000c08:	b083      	sub	sp, #12
 2000c0a:	4699      	mov	r9, r3
 2000c0c:	ab0e      	add	r3, sp, #56	; 0x38
 2000c0e:	781f      	ldrb	r7, [r3, #0]
 2000c10:	ab0f      	add	r3, sp, #60	; 0x3c
 2000c12:	781b      	ldrb	r3, [r3, #0]
 2000c14:	4d51      	ldr	r5, [pc, #324]	; (2000d5c <consoleInit+0x160>)
 2000c16:	2660      	movs	r6, #96	; 0x60
 2000c18:	469b      	mov	fp, r3
 2000c1a:	5dab      	ldrb	r3, [r5, r6]
 2000c1c:	1c04      	adds	r4, r0, #0
 2000c1e:	4688      	mov	r8, r1
 2000c20:	4692      	mov	sl, r2
 2000c22:	2b00      	cmp	r3, #0
 2000c24:	d000      	beq.n	2000c28 <consoleInit+0x2c>
 2000c26:	e086      	b.n	2000d36 <consoleInit+0x13a>
 2000c28:	2c00      	cmp	r4, #0
 2000c2a:	d100      	bne.n	2000c2e <consoleInit+0x32>
 2000c2c:	e094      	b.n	2000d58 <consoleInit+0x15c>
 2000c2e:	65ec      	str	r4, [r5, #92]	; 0x5c
 2000c30:	1c20      	adds	r0, r4, #0
 2000c32:	1c29      	adds	r1, r5, #0
 2000c34:	225c      	movs	r2, #92	; 0x5c
 2000c36:	f002 f849 	bl	2002ccc <memcpy>
 2000c3a:	2f00      	cmp	r7, #0
 2000c3c:	d029      	beq.n	2000c92 <consoleInit+0x96>
 2000c3e:	990d      	ldr	r1, [sp, #52]	; 0x34
 2000c40:	464a      	mov	r2, r9
 2000c42:	9100      	str	r1, [sp, #0]
 2000c44:	9b0c      	ldr	r3, [sp, #48]	; 0x30
 2000c46:	4651      	mov	r1, sl
 2000c48:	4640      	mov	r0, r8
 2000c4a:	f001 fdfd 	bl	2002848 <bgInit_call>
 2000c4e:	0082      	lsls	r2, r0, #2
 2000c50:	1813      	adds	r3, r2, r0
 2000c52:	4943      	ldr	r1, [pc, #268]	; (2000d60 <consoleInit+0x164>)
 2000c54:	00db      	lsls	r3, r3, #3
 2000c56:	6220      	str	r0, [r4, #32]
 2000c58:	18cb      	adds	r3, r1, r3
 2000c5a:	6a1b      	ldr	r3, [r3, #32]
 2000c5c:	2b03      	cmp	r3, #3
 2000c5e:	dc29      	bgt.n	2000cb4 <consoleInit+0xb8>
 2000c60:	2803      	cmp	r0, #3
 2000c62:	dc5e      	bgt.n	2000d22 <consoleInit+0x126>
 2000c64:	4b3f      	ldr	r3, [pc, #252]	; (2000d64 <consoleInit+0x168>)
 2000c66:	21c0      	movs	r1, #192	; 0xc0
 2000c68:	589a      	ldr	r2, [r3, r2]
 2000c6a:	0149      	lsls	r1, r1, #5
 2000c6c:	8812      	ldrh	r2, [r2, #0]
 2000c6e:	0652      	lsls	r2, r2, #25
 2000c70:	0ed2      	lsrs	r2, r2, #27
 2000c72:	1852      	adds	r2, r2, r1
 2000c74:	0392      	lsls	r2, r2, #14
 2000c76:	61a2      	str	r2, [r4, #24]
 2000c78:	6a22      	ldr	r2, [r4, #32]
 2000c7a:	2a03      	cmp	r2, #3
 2000c7c:	dd29      	ble.n	2000cd2 <consoleInit+0xd6>
 2000c7e:	0092      	lsls	r2, r2, #2
 2000c80:	589b      	ldr	r3, [r3, r2]
 2000c82:	21c4      	movs	r1, #196	; 0xc4
 2000c84:	881b      	ldrh	r3, [r3, #0]
 2000c86:	0209      	lsls	r1, r1, #8
 2000c88:	04db      	lsls	r3, r3, #19
 2000c8a:	0edb      	lsrs	r3, r3, #27
 2000c8c:	185b      	adds	r3, r3, r1
 2000c8e:	02db      	lsls	r3, r3, #11
 2000c90:	e028      	b.n	2000ce4 <consoleInit+0xe8>
 2000c92:	9a0d      	ldr	r2, [sp, #52]	; 0x34
 2000c94:	4651      	mov	r1, sl
 2000c96:	9200      	str	r2, [sp, #0]
 2000c98:	9b0c      	ldr	r3, [sp, #48]	; 0x30
 2000c9a:	464a      	mov	r2, r9
 2000c9c:	4640      	mov	r0, r8
 2000c9e:	f001 fd4b 	bl	2002738 <bgInitSub_call>
 2000ca2:	0082      	lsls	r2, r0, #2
 2000ca4:	1813      	adds	r3, r2, r0
 2000ca6:	492e      	ldr	r1, [pc, #184]	; (2000d60 <consoleInit+0x164>)
 2000ca8:	00db      	lsls	r3, r3, #3
 2000caa:	6220      	str	r0, [r4, #32]
 2000cac:	18cb      	adds	r3, r1, r3
 2000cae:	6a1b      	ldr	r3, [r3, #32]
 2000cb0:	2b03      	cmp	r3, #3
 2000cb2:	ddd5      	ble.n	2000c60 <consoleInit+0x64>
 2000cb4:	2803      	cmp	r0, #3
 2000cb6:	dd2a      	ble.n	2000d0e <consoleInit+0x112>
 2000cb8:	4b2a      	ldr	r3, [pc, #168]	; (2000d64 <consoleInit+0x168>)
 2000cba:	21c4      	movs	r1, #196	; 0xc4
 2000cbc:	589a      	ldr	r2, [r3, r2]
 2000cbe:	04c9      	lsls	r1, r1, #19
 2000cc0:	8812      	ldrh	r2, [r2, #0]
 2000cc2:	04d2      	lsls	r2, r2, #19
 2000cc4:	0ed2      	lsrs	r2, r2, #27
 2000cc6:	0392      	lsls	r2, r2, #14
 2000cc8:	1852      	adds	r2, r2, r1
 2000cca:	61a2      	str	r2, [r4, #24]
 2000ccc:	6a22      	ldr	r2, [r4, #32]
 2000cce:	2a03      	cmp	r2, #3
 2000cd0:	dcd5      	bgt.n	2000c7e <consoleInit+0x82>
 2000cd2:	0092      	lsls	r2, r2, #2
 2000cd4:	589b      	ldr	r3, [r3, r2]
 2000cd6:	22c0      	movs	r2, #192	; 0xc0
 2000cd8:	881b      	ldrh	r3, [r3, #0]
 2000cda:	0212      	lsls	r2, r2, #8
 2000cdc:	04db      	lsls	r3, r3, #19
 2000cde:	0edb      	lsrs	r3, r3, #27
 2000ce0:	189b      	adds	r3, r3, r2
 2000ce2:	02db      	lsls	r3, r3, #11
 2000ce4:	2201      	movs	r2, #1
 2000ce6:	6163      	str	r3, [r4, #20]
 2000ce8:	2358      	movs	r3, #88	; 0x58
 2000cea:	54e2      	strb	r2, [r4, r3]
 2000cec:	2032      	movs	r0, #50	; 0x32
 2000cee:	f7ff fd7d 	bl	20007ec <consoleCls>
 2000cf2:	465a      	mov	r2, fp
 2000cf4:	2a00      	cmp	r2, #0
 2000cf6:	d002      	beq.n	2000cfe <consoleInit+0x102>
 2000cf8:	1c20      	adds	r0, r4, #0
 2000cfa:	f7ff fde3 	bl	20008c4 <consoleLoadFont>
 2000cfe:	b003      	add	sp, #12
 2000d00:	6de8      	ldr	r0, [r5, #92]	; 0x5c
 2000d02:	bc3c      	pop	{r2, r3, r4, r5}
 2000d04:	4690      	mov	r8, r2
 2000d06:	4699      	mov	r9, r3
 2000d08:	46a2      	mov	sl, r4
 2000d0a:	46ab      	mov	fp, r5
 2000d0c:	bdf0      	pop	{r4, r5, r6, r7, pc}
 2000d0e:	4b15      	ldr	r3, [pc, #84]	; (2000d64 <consoleInit+0x168>)
 2000d10:	21c0      	movs	r1, #192	; 0xc0
 2000d12:	589a      	ldr	r2, [r3, r2]
 2000d14:	04c9      	lsls	r1, r1, #19
 2000d16:	8812      	ldrh	r2, [r2, #0]
 2000d18:	04d2      	lsls	r2, r2, #19
 2000d1a:	0ed2      	lsrs	r2, r2, #27
 2000d1c:	0392      	lsls	r2, r2, #14
 2000d1e:	1852      	adds	r2, r2, r1
 2000d20:	e7d3      	b.n	2000cca <consoleInit+0xce>
 2000d22:	4b10      	ldr	r3, [pc, #64]	; (2000d64 <consoleInit+0x168>)
 2000d24:	21c4      	movs	r1, #196	; 0xc4
 2000d26:	589a      	ldr	r2, [r3, r2]
 2000d28:	0149      	lsls	r1, r1, #5
 2000d2a:	8812      	ldrh	r2, [r2, #0]
 2000d2c:	0652      	lsls	r2, r2, #25
 2000d2e:	0ed2      	lsrs	r2, r2, #27
 2000d30:	1852      	adds	r2, r2, r1
 2000d32:	0392      	lsls	r2, r2, #14
 2000d34:	e7c9      	b.n	2000cca <consoleInit+0xce>
 2000d36:	4a0c      	ldr	r2, [pc, #48]	; (2000d68 <consoleInit+0x16c>)
 2000d38:	4b0c      	ldr	r3, [pc, #48]	; (2000d6c <consoleInit+0x170>)
 2000d3a:	325c      	adds	r2, #92	; 0x5c
 2000d3c:	605a      	str	r2, [r3, #4]
 2000d3e:	4b0c      	ldr	r3, [pc, #48]	; (2000d70 <consoleInit+0x174>)
 2000d40:	2100      	movs	r1, #0
 2000d42:	681b      	ldr	r3, [r3, #0]
 2000d44:	2202      	movs	r2, #2
 2000d46:	6898      	ldr	r0, [r3, #8]
 2000d48:	2300      	movs	r3, #0
 2000d4a:	f002 f849 	bl	2002de0 <setvbuf>
 2000d4e:	2300      	movs	r3, #0
 2000d50:	55ab      	strb	r3, [r5, r6]
 2000d52:	2c00      	cmp	r4, #0
 2000d54:	d000      	beq.n	2000d58 <consoleInit+0x15c>
 2000d56:	e76a      	b.n	2000c2e <consoleInit+0x32>
 2000d58:	6dec      	ldr	r4, [r5, #92]	; 0x5c
 2000d5a:	e769      	b.n	2000c30 <consoleInit+0x34>
 2000d5c:	0200e55c 	.word	0x0200e55c
 2000d60:	020110e8 	.word	0x020110e8
 2000d64:	0200e614 	.word	0x0200e614
 2000d68:	020084f4 	.word	0x020084f4
 2000d6c:	0200f2d8 	.word	0x0200f2d8
 2000d70:	0200e940 	.word	0x0200e940

02000d74 <consoleDemoInit>:
 2000d74:	b500      	push	{lr}
 2000d76:	4a0c      	ldr	r2, [pc, #48]	; (2000da8 <consoleDemoInit+0x34>)
 2000d78:	2380      	movs	r3, #128	; 0x80
 2000d7a:	025b      	lsls	r3, r3, #9
 2000d7c:	6013      	str	r3, [r2, #0]
 2000d7e:	490b      	ldr	r1, [pc, #44]	; (2000dac <consoleDemoInit+0x38>)
 2000d80:	227c      	movs	r2, #124	; 0x7c
 2000d82:	4252      	negs	r2, r2
 2000d84:	700a      	strb	r2, [r1, #0]
 2000d86:	4a0a      	ldr	r2, [pc, #40]	; (2000db0 <consoleDemoInit+0x3c>)
 2000d88:	b085      	sub	sp, #20
 2000d8a:	7f10      	ldrb	r0, [r2, #28]
 2000d8c:	7f91      	ldrb	r1, [r2, #30]
 2000d8e:	9000      	str	r0, [sp, #0]
 2000d90:	7f52      	ldrb	r2, [r2, #29]
 2000d92:	2000      	movs	r0, #0
 2000d94:	9201      	str	r2, [sp, #4]
 2000d96:	2200      	movs	r2, #0
 2000d98:	9202      	str	r2, [sp, #8]
 2000d9a:	2201      	movs	r2, #1
 2000d9c:	9203      	str	r2, [sp, #12]
 2000d9e:	f7ff ff2d 	bl	2000bfc <consoleInit>
 2000da2:	b005      	add	sp, #20
 2000da4:	bd00      	pop	{pc}
 2000da6:	46c0      	nop			; (mov r8, r8)
 2000da8:	04001000 	.word	0x04001000
 2000dac:	04000242 	.word	0x04000242
 2000db0:	0200e55c 	.word	0x0200e55c

02000db4 <con_write>:
 2000db4:	b5f0      	push	{r4, r5, r6, r7, lr}
 2000db6:	465f      	mov	r7, fp
 2000db8:	4656      	mov	r6, sl
 2000dba:	464d      	mov	r5, r9
 2000dbc:	4644      	mov	r4, r8
 2000dbe:	b4f0      	push	{r4, r5, r6, r7}
 2000dc0:	b085      	sub	sp, #20
 2000dc2:	4698      	mov	r8, r3
 2000dc4:	2b00      	cmp	r3, #0
 2000dc6:	d109      	bne.n	2000ddc <con_write+0x28>
 2000dc8:	2601      	movs	r6, #1
 2000dca:	4276      	negs	r6, r6
 2000dcc:	b005      	add	sp, #20
 2000dce:	1c30      	adds	r0, r6, #0
 2000dd0:	bc3c      	pop	{r2, r3, r4, r5}
 2000dd2:	4690      	mov	r8, r2
 2000dd4:	4699      	mov	r9, r3
 2000dd6:	46a2      	mov	sl, r4
 2000dd8:	46ab      	mov	fp, r5
 2000dda:	bdf0      	pop	{r4, r5, r6, r7, pc}
 2000ddc:	2a00      	cmp	r2, #0
 2000dde:	d0f3      	beq.n	2000dc8 <con_write+0x14>
 2000de0:	48a1      	ldr	r0, [pc, #644]	; (2001068 <con_write+0x2b4>)
 2000de2:	2300      	movs	r3, #0
 2000de4:	a902      	add	r1, sp, #8
 2000de6:	9303      	str	r3, [sp, #12]
 2000de8:	1c14      	adds	r4, r2, #0
 2000dea:	2600      	movs	r6, #0
 2000dec:	2500      	movs	r5, #0
 2000dee:	4681      	mov	r9, r0
 2000df0:	468b      	mov	fp, r1
 2000df2:	7820      	ldrb	r0, [r4, #0]
 2000df4:	4545      	cmp	r5, r8
 2000df6:	d2e9      	bcs.n	2000dcc <con_write+0x18>
 2000df8:	2800      	cmp	r0, #0
 2000dfa:	d0e7      	beq.n	2000dcc <con_write+0x18>
 2000dfc:	3401      	adds	r4, #1
 2000dfe:	3501      	adds	r5, #1
 2000e00:	3601      	adds	r6, #1
 2000e02:	281b      	cmp	r0, #27
 2000e04:	d102      	bne.n	2000e0c <con_write+0x58>
 2000e06:	7823      	ldrb	r3, [r4, #0]
 2000e08:	2b5b      	cmp	r3, #91	; 0x5b
 2000e0a:	d005      	beq.n	2000e18 <con_write+0x64>
 2000e0c:	f7ff fc7e 	bl	200070c <consolePrintChar>
 2000e10:	7820      	ldrb	r0, [r4, #0]
 2000e12:	4545      	cmp	r5, r8
 2000e14:	d2da      	bcs.n	2000dcc <con_write+0x18>
 2000e16:	e7ef      	b.n	2000df8 <con_write+0x44>
 2000e18:	1c27      	adds	r7, r4, #0
 2000e1a:	2200      	movs	r2, #0
 2000e1c:	3b41      	subs	r3, #65	; 0x41
 2000e1e:	061b      	lsls	r3, r3, #24
 2000e20:	0e1b      	lsrs	r3, r3, #24
 2000e22:	3701      	adds	r7, #1
 2000e24:	3501      	adds	r5, #1
 2000e26:	3601      	adds	r6, #1
 2000e28:	3201      	adds	r2, #1
 2000e2a:	2b34      	cmp	r3, #52	; 0x34
 2000e2c:	d901      	bls.n	2000e32 <con_write+0x7e>
 2000e2e:	783b      	ldrb	r3, [r7, #0]
 2000e30:	e7f4      	b.n	2000e1c <con_write+0x68>
 2000e32:	009b      	lsls	r3, r3, #2
 2000e34:	4648      	mov	r0, r9
 2000e36:	58c3      	ldr	r3, [r0, r3]
 2000e38:	469f      	mov	pc, r3
 2000e3a:	4b8c      	ldr	r3, [pc, #560]	; (200106c <con_write+0x2b8>)
 2000e3c:	6ddb      	ldr	r3, [r3, #92]	; 0x5c
 2000e3e:	6ada      	ldr	r2, [r3, #44]	; 0x2c
 2000e40:	625a      	str	r2, [r3, #36]	; 0x24
 2000e42:	6b1a      	ldr	r2, [r3, #48]	; 0x30
 2000e44:	629a      	str	r2, [r3, #40]	; 0x28
 2000e46:	1c3c      	adds	r4, r7, #0
 2000e48:	e7d3      	b.n	2000df2 <con_write+0x3e>
 2000e4a:	4b88      	ldr	r3, [pc, #544]	; (200106c <con_write+0x2b8>)
 2000e4c:	1c3c      	adds	r4, r7, #0
 2000e4e:	6ddb      	ldr	r3, [r3, #92]	; 0x5c
 2000e50:	6a5a      	ldr	r2, [r3, #36]	; 0x24
 2000e52:	62da      	str	r2, [r3, #44]	; 0x2c
 2000e54:	6a9a      	ldr	r2, [r3, #40]	; 0x28
 2000e56:	631a      	str	r2, [r3, #48]	; 0x30
 2000e58:	e7cb      	b.n	2000df2 <con_write+0x3e>
 2000e5a:	465a      	mov	r2, fp
 2000e5c:	ab03      	add	r3, sp, #12
 2000e5e:	1c20      	adds	r0, r4, #0
 2000e60:	4983      	ldr	r1, [pc, #524]	; (2001070 <con_write+0x2bc>)
 2000e62:	f002 f86b 	bl	2002f3c <siscanf>
 2000e66:	9a02      	ldr	r2, [sp, #8]
 2000e68:	1c13      	adds	r3, r2, #0
 2000e6a:	3b1e      	subs	r3, #30
 2000e6c:	9302      	str	r3, [sp, #8]
 2000e6e:	2b09      	cmp	r3, #9
 2000e70:	d100      	bne.n	2000e74 <con_write+0xc0>
 2000e72:	e0b4      	b.n	2000fde <con_write+0x22a>
 2000e74:	2b08      	cmp	r3, #8
 2000e76:	dd00      	ble.n	2000e7a <con_write+0xc6>
 2000e78:	e08c      	b.n	2000f94 <con_write+0x1e0>
 2000e7a:	9903      	ldr	r1, [sp, #12]
 2000e7c:	2900      	cmp	r1, #0
 2000e7e:	d002      	beq.n	2000e86 <con_write+0xd2>
 2000e80:	1c13      	adds	r3, r2, #0
 2000e82:	3b16      	subs	r3, #22
 2000e84:	9302      	str	r3, [sp, #8]
 2000e86:	2b0f      	cmp	r3, #15
 2000e88:	d8dd      	bhi.n	2000e46 <con_write+0x92>
 2000e8a:	071b      	lsls	r3, r3, #28
 2000e8c:	0c1b      	lsrs	r3, r3, #16
 2000e8e:	4877      	ldr	r0, [pc, #476]	; (200106c <con_write+0x2b8>)
 2000e90:	2152      	movs	r1, #82	; 0x52
 2000e92:	6dc2      	ldr	r2, [r0, #92]	; 0x5c
 2000e94:	1c3c      	adds	r4, r7, #0
 2000e96:	5253      	strh	r3, [r2, r1]
 2000e98:	e7ab      	b.n	2000df2 <con_write+0x3e>
 2000e9a:	18a2      	adds	r2, r4, r2
 2000e9c:	3a02      	subs	r2, #2
 2000e9e:	7813      	ldrb	r3, [r2, #0]
 2000ea0:	2b31      	cmp	r3, #49	; 0x31
 2000ea2:	d07b      	beq.n	2000f9c <con_write+0x1e8>
 2000ea4:	2b32      	cmp	r3, #50	; 0x32
 2000ea6:	d100      	bne.n	2000eaa <con_write+0xf6>
 2000ea8:	e0be      	b.n	2001028 <con_write+0x274>
 2000eaa:	2b30      	cmp	r3, #48	; 0x30
 2000eac:	d100      	bne.n	2000eb0 <con_write+0xfc>
 2000eae:	e09e      	b.n	2000fee <con_write+0x23a>
 2000eb0:	4c6e      	ldr	r4, [pc, #440]	; (200106c <con_write+0x2b8>)
 2000eb2:	6de3      	ldr	r3, [r4, #92]	; 0x5c
 2000eb4:	6a58      	ldr	r0, [r3, #36]	; 0x24
 2000eb6:	6c5a      	ldr	r2, [r3, #68]	; 0x44
 2000eb8:	9001      	str	r0, [sp, #4]
 2000eba:	1a12      	subs	r2, r2, r0
 2000ebc:	2a00      	cmp	r2, #0
 2000ebe:	dd15      	ble.n	2000eec <con_write+0x138>
 2000ec0:	1c23      	adds	r3, r4, #0
 2000ec2:	2101      	movs	r1, #1
 2000ec4:	46ba      	mov	sl, r7
 2000ec6:	1c0c      	adds	r4, r1, #0
 2000ec8:	1c37      	adds	r7, r6, #0
 2000eca:	1c2e      	adds	r6, r5, #0
 2000ecc:	1c1d      	adds	r5, r3, #0
 2000ece:	e000      	b.n	2000ed2 <con_write+0x11e>
 2000ed0:	1c0c      	adds	r4, r1, #0
 2000ed2:	2020      	movs	r0, #32
 2000ed4:	f7ff fc1a 	bl	200070c <consolePrintChar>
 2000ed8:	6deb      	ldr	r3, [r5, #92]	; 0x5c
 2000eda:	9801      	ldr	r0, [sp, #4]
 2000edc:	6c5a      	ldr	r2, [r3, #68]	; 0x44
 2000ede:	1c61      	adds	r1, r4, #1
 2000ee0:	1a12      	subs	r2, r2, r0
 2000ee2:	42a2      	cmp	r2, r4
 2000ee4:	dcf4      	bgt.n	2000ed0 <con_write+0x11c>
 2000ee6:	1c35      	adds	r5, r6, #0
 2000ee8:	1c3e      	adds	r6, r7, #0
 2000eea:	4657      	mov	r7, sl
 2000eec:	9901      	ldr	r1, [sp, #4]
 2000eee:	1c3c      	adds	r4, r7, #0
 2000ef0:	6259      	str	r1, [r3, #36]	; 0x24
 2000ef2:	e77e      	b.n	2000df2 <con_write+0x3e>
 2000ef4:	18a2      	adds	r2, r4, r2
 2000ef6:	3a02      	subs	r2, #2
 2000ef8:	7810      	ldrb	r0, [r2, #0]
 2000efa:	f7ff fc77 	bl	20007ec <consoleCls>
 2000efe:	1c3c      	adds	r4, r7, #0
 2000f00:	e777      	b.n	2000df2 <con_write+0x3e>
 2000f02:	4b5a      	ldr	r3, [pc, #360]	; (200106c <con_write+0x2b8>)
 2000f04:	1c20      	adds	r0, r4, #0
 2000f06:	6ddb      	ldr	r3, [r3, #92]	; 0x5c
 2000f08:	495a      	ldr	r1, [pc, #360]	; (2001074 <con_write+0x2c0>)
 2000f0a:	1c1a      	adds	r2, r3, #0
 2000f0c:	3228      	adds	r2, #40	; 0x28
 2000f0e:	3324      	adds	r3, #36	; 0x24
 2000f10:	f002 f814 	bl	2002f3c <siscanf>
 2000f14:	1c3c      	adds	r4, r7, #0
 2000f16:	e76c      	b.n	2000df2 <con_write+0x3e>
 2000f18:	4957      	ldr	r1, [pc, #348]	; (2001078 <con_write+0x2c4>)
 2000f1a:	465a      	mov	r2, fp
 2000f1c:	1c20      	adds	r0, r4, #0
 2000f1e:	f002 f80d 	bl	2002f3c <siscanf>
 2000f22:	4b52      	ldr	r3, [pc, #328]	; (200106c <con_write+0x2b8>)
 2000f24:	9a02      	ldr	r2, [sp, #8]
 2000f26:	6ddb      	ldr	r3, [r3, #92]	; 0x5c
 2000f28:	6a59      	ldr	r1, [r3, #36]	; 0x24
 2000f2a:	1a8a      	subs	r2, r1, r2
 2000f2c:	d45c      	bmi.n	2000fe8 <con_write+0x234>
 2000f2e:	625a      	str	r2, [r3, #36]	; 0x24
 2000f30:	1c3c      	adds	r4, r7, #0
 2000f32:	e75e      	b.n	2000df2 <con_write+0x3e>
 2000f34:	4951      	ldr	r1, [pc, #324]	; (200107c <con_write+0x2c8>)
 2000f36:	465a      	mov	r2, fp
 2000f38:	1c20      	adds	r0, r4, #0
 2000f3a:	f001 ffff 	bl	2002f3c <siscanf>
 2000f3e:	4b4b      	ldr	r3, [pc, #300]	; (200106c <con_write+0x2b8>)
 2000f40:	9802      	ldr	r0, [sp, #8]
 2000f42:	6ddb      	ldr	r3, [r3, #92]	; 0x5c
 2000f44:	6a5a      	ldr	r2, [r3, #36]	; 0x24
 2000f46:	6c59      	ldr	r1, [r3, #68]	; 0x44
 2000f48:	1882      	adds	r2, r0, r2
 2000f4a:	4291      	cmp	r1, r2
 2000f4c:	dcef      	bgt.n	2000f2e <con_write+0x17a>
 2000f4e:	1e4a      	subs	r2, r1, #1
 2000f50:	625a      	str	r2, [r3, #36]	; 0x24
 2000f52:	e7ed      	b.n	2000f30 <con_write+0x17c>
 2000f54:	494a      	ldr	r1, [pc, #296]	; (2001080 <con_write+0x2cc>)
 2000f56:	465a      	mov	r2, fp
 2000f58:	1c20      	adds	r0, r4, #0
 2000f5a:	f001 ffef 	bl	2002f3c <siscanf>
 2000f5e:	4b43      	ldr	r3, [pc, #268]	; (200106c <con_write+0x2b8>)
 2000f60:	9802      	ldr	r0, [sp, #8]
 2000f62:	6ddb      	ldr	r3, [r3, #92]	; 0x5c
 2000f64:	6a9a      	ldr	r2, [r3, #40]	; 0x28
 2000f66:	6c99      	ldr	r1, [r3, #72]	; 0x48
 2000f68:	1882      	adds	r2, r0, r2
 2000f6a:	4291      	cmp	r1, r2
 2000f6c:	dd00      	ble.n	2000f70 <con_write+0x1bc>
 2000f6e:	e769      	b.n	2000e44 <con_write+0x90>
 2000f70:	1e4a      	subs	r2, r1, #1
 2000f72:	629a      	str	r2, [r3, #40]	; 0x28
 2000f74:	e767      	b.n	2000e46 <con_write+0x92>
 2000f76:	4943      	ldr	r1, [pc, #268]	; (2001084 <con_write+0x2d0>)
 2000f78:	465a      	mov	r2, fp
 2000f7a:	1c20      	adds	r0, r4, #0
 2000f7c:	f001 ffde 	bl	2002f3c <siscanf>
 2000f80:	4b3a      	ldr	r3, [pc, #232]	; (200106c <con_write+0x2b8>)
 2000f82:	9a02      	ldr	r2, [sp, #8]
 2000f84:	6ddb      	ldr	r3, [r3, #92]	; 0x5c
 2000f86:	6a99      	ldr	r1, [r3, #40]	; 0x28
 2000f88:	1a8a      	subs	r2, r1, r2
 2000f8a:	d400      	bmi.n	2000f8e <con_write+0x1da>
 2000f8c:	e75a      	b.n	2000e44 <con_write+0x90>
 2000f8e:	2200      	movs	r2, #0
 2000f90:	629a      	str	r2, [r3, #40]	; 0x28
 2000f92:	e758      	b.n	2000e46 <con_write+0x92>
 2000f94:	1c13      	adds	r3, r2, #0
 2000f96:	3b20      	subs	r3, #32
 2000f98:	9302      	str	r3, [sp, #8]
 2000f9a:	e774      	b.n	2000e86 <con_write+0xd2>
 2000f9c:	4c33      	ldr	r4, [pc, #204]	; (200106c <con_write+0x2b8>)
 2000f9e:	2000      	movs	r0, #0
 2000fa0:	6de3      	ldr	r3, [r4, #92]	; 0x5c
 2000fa2:	6a5a      	ldr	r2, [r3, #36]	; 0x24
 2000fa4:	6258      	str	r0, [r3, #36]	; 0x24
 2000fa6:	9201      	str	r2, [sp, #4]
 2000fa8:	6c5a      	ldr	r2, [r3, #68]	; 0x44
 2000faa:	9901      	ldr	r1, [sp, #4]
 2000fac:	3a02      	subs	r2, #2
 2000fae:	1a52      	subs	r2, r2, r1
 2000fb0:	2a00      	cmp	r2, #0
 2000fb2:	dd9b      	ble.n	2000eec <con_write+0x138>
 2000fb4:	1c23      	adds	r3, r4, #0
 2000fb6:	2201      	movs	r2, #1
 2000fb8:	46ba      	mov	sl, r7
 2000fba:	1c14      	adds	r4, r2, #0
 2000fbc:	1c37      	adds	r7, r6, #0
 2000fbe:	1c2e      	adds	r6, r5, #0
 2000fc0:	1c1d      	adds	r5, r3, #0
 2000fc2:	e000      	b.n	2000fc6 <con_write+0x212>
 2000fc4:	1c0c      	adds	r4, r1, #0
 2000fc6:	2020      	movs	r0, #32
 2000fc8:	f7ff fba0 	bl	200070c <consolePrintChar>
 2000fcc:	6deb      	ldr	r3, [r5, #92]	; 0x5c
 2000fce:	9801      	ldr	r0, [sp, #4]
 2000fd0:	6c5a      	ldr	r2, [r3, #68]	; 0x44
 2000fd2:	1c61      	adds	r1, r4, #1
 2000fd4:	3a02      	subs	r2, #2
 2000fd6:	1a12      	subs	r2, r2, r0
 2000fd8:	42a2      	cmp	r2, r4
 2000fda:	dcf3      	bgt.n	2000fc4 <con_write+0x210>
 2000fdc:	e783      	b.n	2000ee6 <con_write+0x132>
 2000fde:	230f      	movs	r3, #15
 2000fe0:	9302      	str	r3, [sp, #8]
 2000fe2:	23f0      	movs	r3, #240	; 0xf0
 2000fe4:	021b      	lsls	r3, r3, #8
 2000fe6:	e752      	b.n	2000e8e <con_write+0xda>
 2000fe8:	2200      	movs	r2, #0
 2000fea:	625a      	str	r2, [r3, #36]	; 0x24
 2000fec:	e7a0      	b.n	2000f30 <con_write+0x17c>
 2000fee:	4c1f      	ldr	r4, [pc, #124]	; (200106c <con_write+0x2b8>)
 2000ff0:	6de3      	ldr	r3, [r4, #92]	; 0x5c
 2000ff2:	6a59      	ldr	r1, [r3, #36]	; 0x24
 2000ff4:	6c5a      	ldr	r2, [r3, #68]	; 0x44
 2000ff6:	9101      	str	r1, [sp, #4]
 2000ff8:	1a52      	subs	r2, r2, r1
 2000ffa:	2a00      	cmp	r2, #0
 2000ffc:	dc00      	bgt.n	2001000 <con_write+0x24c>
 2000ffe:	e775      	b.n	2000eec <con_write+0x138>
 2001000:	1c23      	adds	r3, r4, #0
 2001002:	2201      	movs	r2, #1
 2001004:	46ba      	mov	sl, r7
 2001006:	1c14      	adds	r4, r2, #0
 2001008:	1c37      	adds	r7, r6, #0
 200100a:	1c2e      	adds	r6, r5, #0
 200100c:	1c1d      	adds	r5, r3, #0
 200100e:	e000      	b.n	2001012 <con_write+0x25e>
 2001010:	1c0c      	adds	r4, r1, #0
 2001012:	2020      	movs	r0, #32
 2001014:	f7ff fb7a 	bl	200070c <consolePrintChar>
 2001018:	6deb      	ldr	r3, [r5, #92]	; 0x5c
 200101a:	9801      	ldr	r0, [sp, #4]
 200101c:	6c5a      	ldr	r2, [r3, #68]	; 0x44
 200101e:	1c61      	adds	r1, r4, #1
 2001020:	1a12      	subs	r2, r2, r0
 2001022:	42a2      	cmp	r2, r4
 2001024:	dcf4      	bgt.n	2001010 <con_write+0x25c>
 2001026:	e75e      	b.n	2000ee6 <con_write+0x132>
 2001028:	4c10      	ldr	r4, [pc, #64]	; (200106c <con_write+0x2b8>)
 200102a:	2000      	movs	r0, #0
 200102c:	6de3      	ldr	r3, [r4, #92]	; 0x5c
 200102e:	6a5a      	ldr	r2, [r3, #36]	; 0x24
 2001030:	6258      	str	r0, [r3, #36]	; 0x24
 2001032:	9201      	str	r2, [sp, #4]
 2001034:	6c5a      	ldr	r2, [r3, #68]	; 0x44
 2001036:	2a00      	cmp	r2, #0
 2001038:	dd13      	ble.n	2001062 <con_write+0x2ae>
 200103a:	1c23      	adds	r3, r4, #0
 200103c:	2101      	movs	r1, #1
 200103e:	46ba      	mov	sl, r7
 2001040:	1c0c      	adds	r4, r1, #0
 2001042:	1c37      	adds	r7, r6, #0
 2001044:	1c2e      	adds	r6, r5, #0
 2001046:	1c1d      	adds	r5, r3, #0
 2001048:	e000      	b.n	200104c <con_write+0x298>
 200104a:	1c0c      	adds	r4, r1, #0
 200104c:	2020      	movs	r0, #32
 200104e:	f7ff fb5d 	bl	200070c <consolePrintChar>
 2001052:	6deb      	ldr	r3, [r5, #92]	; 0x5c
 2001054:	1c61      	adds	r1, r4, #1
 2001056:	6c5a      	ldr	r2, [r3, #68]	; 0x44
 2001058:	42a2      	cmp	r2, r4
 200105a:	dcf6      	bgt.n	200104a <con_write+0x296>
 200105c:	1c35      	adds	r5, r6, #0
 200105e:	1c3e      	adds	r6, r7, #0
 2001060:	4657      	mov	r7, sl
 2001062:	9a01      	ldr	r2, [sp, #4]
 2001064:	625a      	str	r2, [r3, #36]	; 0x24
 2001066:	e763      	b.n	2000f30 <con_write+0x17c>
 2001068:	02008420 	.word	0x02008420
 200106c:	0200e55c 	.word	0x0200e55c
 2001070:	0200e408 	.word	0x0200e408
 2001074:	0200e400 	.word	0x0200e400
 2001078:	0200e3f8 	.word	0x0200e3f8
 200107c:	0200e3f0 	.word	0x0200e3f0
 2001080:	0200e3e8 	.word	0x0200e3e8
 2001084:	0200e3e0 	.word	0x0200e3e0

02001088 <nocash_write>:
 2001088:	b570      	push	{r4, r5, r6, lr}
 200108a:	1c16      	adds	r6, r2, #0
 200108c:	1c1d      	adds	r5, r3, #0
 200108e:	2b00      	cmp	r3, #0
 2001090:	d102      	bne.n	2001098 <nocash_write+0x10>
 2001092:	2001      	movs	r0, #1
 2001094:	4240      	negs	r0, r0
 2001096:	bd70      	pop	{r4, r5, r6, pc}
 2001098:	2a00      	cmp	r2, #0
 200109a:	d0fa      	beq.n	2001092 <nocash_write+0xa>
 200109c:	2400      	movs	r4, #0
 200109e:	1930      	adds	r0, r6, r4
 20010a0:	f001 fa26 	bl	20024f0 <nocashMessage>
 20010a4:	1b2b      	subs	r3, r5, r4
 20010a6:	2b50      	cmp	r3, #80	; 0x50
 20010a8:	d900      	bls.n	20010ac <nocash_write+0x24>
 20010aa:	2350      	movs	r3, #80	; 0x50
 20010ac:	18e4      	adds	r4, r4, r3
 20010ae:	42a5      	cmp	r5, r4
 20010b0:	d8f5      	bhi.n	200109e <nocash_write+0x16>
 20010b2:	1c28      	adds	r0, r5, #0
 20010b4:	e7ef      	b.n	2001096 <nocash_write+0xe>
 20010b6:	46c0      	nop			; (mov r8, r8)

020010b8 <scanKeys>:
 20010b8:	b530      	push	{r4, r5, lr}
 20010ba:	4b16      	ldr	r3, [pc, #88]	; (2001114 <scanKeys+0x5c>)
 20010bc:	4a16      	ldr	r2, [pc, #88]	; (2001118 <scanKeys+0x60>)
 20010be:	881c      	ldrh	r4, [r3, #0]
 20010c0:	4816      	ldr	r0, [pc, #88]	; (200111c <scanKeys+0x64>)
 20010c2:	805c      	strh	r4, [r3, #2]
 20010c4:	8815      	ldrh	r5, [r2, #0]
 20010c6:	8981      	ldrh	r1, [r0, #12]
 20010c8:	8980      	ldrh	r0, [r0, #12]
 20010ca:	2203      	movs	r2, #3
 20010cc:	438a      	bics	r2, r1
 20010ce:	43c0      	mvns	r0, r0
 20010d0:	21c0      	movs	r1, #192	; 0xc0
 20010d2:	0180      	lsls	r0, r0, #6
 20010d4:	0189      	lsls	r1, r1, #6
 20010d6:	4001      	ands	r1, r0
 20010d8:	4811      	ldr	r0, [pc, #68]	; (2001120 <scanKeys+0x68>)
 20010da:	0292      	lsls	r2, r2, #10
 20010dc:	4311      	orrs	r1, r2
 20010de:	43a8      	bics	r0, r5
 20010e0:	4301      	orrs	r1, r0
 20010e2:	2280      	movs	r2, #128	; 0x80
 20010e4:	480f      	ldr	r0, [pc, #60]	; (2001124 <scanKeys+0x6c>)
 20010e6:	0192      	lsls	r2, r2, #6
 20010e8:	404a      	eors	r2, r1
 20010ea:	7801      	ldrb	r1, [r0, #0]
 20010ec:	801a      	strh	r2, [r3, #0]
 20010ee:	2900      	cmp	r1, #0
 20010f0:	d00d      	beq.n	200110e <scanKeys+0x56>
 20010f2:	4294      	cmp	r4, r2
 20010f4:	d00c      	beq.n	2001110 <scanKeys+0x58>
 20010f6:	1c15      	adds	r5, r2, #0
 20010f8:	43a5      	bics	r5, r4
 20010fa:	809d      	strh	r5, [r3, #4]
 20010fc:	3901      	subs	r1, #1
 20010fe:	0609      	lsls	r1, r1, #24
 2001100:	0e09      	lsrs	r1, r1, #24
 2001102:	7041      	strb	r1, [r0, #1]
 2001104:	2900      	cmp	r1, #0
 2001106:	d102      	bne.n	200110e <scanKeys+0x56>
 2001108:	7881      	ldrb	r1, [r0, #2]
 200110a:	809a      	strh	r2, [r3, #4]
 200110c:	7041      	strb	r1, [r0, #1]
 200110e:	bd30      	pop	{r4, r5, pc}
 2001110:	7841      	ldrb	r1, [r0, #1]
 2001112:	e7f3      	b.n	20010fc <scanKeys+0x44>
 2001114:	0200f338 	.word	0x0200f338
 2001118:	04000130 	.word	0x04000130
 200111c:	02fff000 	.word	0x02fff000
 2001120:	000003ff 	.word	0x000003ff
 2001124:	0200e5c0 	.word	0x0200e5c0

02001128 <keysHeld>:
 2001128:	4b01      	ldr	r3, [pc, #4]	; (2001130 <keysHeld+0x8>)
 200112a:	8818      	ldrh	r0, [r3, #0]
 200112c:	4770      	bx	lr
 200112e:	46c0      	nop			; (mov r8, r8)
 2001130:	0200f338 	.word	0x0200f338

02001134 <keysDown>:
 2001134:	4b02      	ldr	r3, [pc, #8]	; (2001140 <keysDown+0xc>)
 2001136:	885a      	ldrh	r2, [r3, #2]
 2001138:	8818      	ldrh	r0, [r3, #0]
 200113a:	4390      	bics	r0, r2
 200113c:	4770      	bx	lr
 200113e:	46c0      	nop			; (mov r8, r8)
 2001140:	0200f338 	.word	0x0200f338

02001144 <keysDownRepeat>:
 2001144:	4b02      	ldr	r3, [pc, #8]	; (2001150 <keysDownRepeat+0xc>)
 2001146:	2200      	movs	r2, #0
 2001148:	8898      	ldrh	r0, [r3, #4]
 200114a:	809a      	strh	r2, [r3, #4]
 200114c:	4770      	bx	lr
 200114e:	46c0      	nop			; (mov r8, r8)
 2001150:	0200f338 	.word	0x0200f338

02001154 <keysSetRepeat>:
 2001154:	4b03      	ldr	r3, [pc, #12]	; (2001164 <keysSetRepeat+0x10>)
 2001156:	2200      	movs	r2, #0
 2001158:	7018      	strb	r0, [r3, #0]
 200115a:	7099      	strb	r1, [r3, #2]
 200115c:	7058      	strb	r0, [r3, #1]
 200115e:	4b02      	ldr	r3, [pc, #8]	; (2001168 <keysSetRepeat+0x14>)
 2001160:	809a      	strh	r2, [r3, #4]
 2001162:	4770      	bx	lr
 2001164:	0200e5c0 	.word	0x0200e5c0
 2001168:	0200f338 	.word	0x0200f338

0200116c <keysUp>:
 200116c:	4a02      	ldr	r2, [pc, #8]	; (2001178 <keysUp+0xc>)
 200116e:	8813      	ldrh	r3, [r2, #0]
 2001170:	8850      	ldrh	r0, [r2, #2]
 2001172:	4058      	eors	r0, r3
 2001174:	4398      	bics	r0, r3
 2001176:	4770      	bx	lr
 2001178:	0200f338 	.word	0x0200f338

0200117c <keysCurrent>:
 200117c:	b510      	push	{r4, lr}
 200117e:	490a      	ldr	r1, [pc, #40]	; (20011a8 <keysCurrent+0x2c>)
 2001180:	4b0a      	ldr	r3, [pc, #40]	; (20011ac <keysCurrent+0x30>)
 2001182:	2003      	movs	r0, #3
 2001184:	881c      	ldrh	r4, [r3, #0]
 2001186:	898a      	ldrh	r2, [r1, #12]
 2001188:	898b      	ldrh	r3, [r1, #12]
 200118a:	4390      	bics	r0, r2
 200118c:	43db      	mvns	r3, r3
 200118e:	22c0      	movs	r2, #192	; 0xc0
 2001190:	019b      	lsls	r3, r3, #6
 2001192:	0192      	lsls	r2, r2, #6
 2001194:	4906      	ldr	r1, [pc, #24]	; (20011b0 <keysCurrent+0x34>)
 2001196:	401a      	ands	r2, r3
 2001198:	0280      	lsls	r0, r0, #10
 200119a:	4310      	orrs	r0, r2
 200119c:	43a1      	bics	r1, r4
 200119e:	2380      	movs	r3, #128	; 0x80
 20011a0:	4308      	orrs	r0, r1
 20011a2:	019b      	lsls	r3, r3, #6
 20011a4:	4058      	eors	r0, r3
 20011a6:	bd10      	pop	{r4, pc}
 20011a8:	02fff000 	.word	0x02fff000
 20011ac:	04000130 	.word	0x04000130
 20011b0:	000003ff 	.word	0x000003ff

020011b4 <ledBlink>:
 20011b4:	b510      	push	{r4, lr}
 20011b6:	23c0      	movs	r3, #192	; 0xc0
 20011b8:	029b      	lsls	r3, r3, #10
 20011ba:	1c01      	adds	r1, r0, #0
 20011bc:	4319      	orrs	r1, r3
 20011be:	2000      	movs	r0, #0
 20011c0:	f000 f9d0 	bl	2001564 <fifoSendValue32>
 20011c4:	bd10      	pop	{r4, pc}
 20011c6:	46c0      	nop			; (mov r8, r8)

020011c8 <powerOff>:
 20011c8:	b510      	push	{r4, lr}
 20011ca:	03c3      	lsls	r3, r0, #15
 20011cc:	d504      	bpl.n	20011d8 <powerOff+0x10>
 20011ce:	4b07      	ldr	r3, [pc, #28]	; (20011ec <powerOff+0x24>)
 20011d0:	8819      	ldrh	r1, [r3, #0]
 20011d2:	4381      	bics	r1, r0
 20011d4:	8019      	strh	r1, [r3, #0]
 20011d6:	bd10      	pop	{r4, pc}
 20011d8:	4905      	ldr	r1, [pc, #20]	; (20011f0 <powerOff+0x28>)
 20011da:	2380      	movs	r3, #128	; 0x80
 20011dc:	4001      	ands	r1, r0
 20011de:	029b      	lsls	r3, r3, #10
 20011e0:	4319      	orrs	r1, r3
 20011e2:	2000      	movs	r0, #0
 20011e4:	f000 f9be 	bl	2001564 <fifoSendValue32>
 20011e8:	e7f5      	b.n	20011d6 <powerOff+0xe>
 20011ea:	46c0      	nop			; (mov r8, r8)
 20011ec:	04000304 	.word	0x04000304
 20011f0:	0000ffff 	.word	0x0000ffff

020011f4 <powerOn>:
 20011f4:	b510      	push	{r4, lr}
 20011f6:	2380      	movs	r3, #128	; 0x80
 20011f8:	025b      	lsls	r3, r3, #9
 20011fa:	4218      	tst	r0, r3
 20011fc:	d006      	beq.n	200120c <powerOn+0x18>
 20011fe:	4b07      	ldr	r3, [pc, #28]	; (200121c <powerOn+0x28>)
 2001200:	8819      	ldrh	r1, [r3, #0]
 2001202:	4308      	orrs	r0, r1
 2001204:	0400      	lsls	r0, r0, #16
 2001206:	0c00      	lsrs	r0, r0, #16
 2001208:	8018      	strh	r0, [r3, #0]
 200120a:	bd10      	pop	{r4, pc}
 200120c:	4904      	ldr	r1, [pc, #16]	; (2001220 <powerOn+0x2c>)
 200120e:	4001      	ands	r1, r0
 2001210:	4319      	orrs	r1, r3
 2001212:	2000      	movs	r0, #0
 2001214:	f000 f9a6 	bl	2001564 <fifoSendValue32>
 2001218:	e7f7      	b.n	200120a <powerOn+0x16>
 200121a:	46c0      	nop			; (mov r8, r8)
 200121c:	04000304 	.word	0x04000304
 2001220:	0000ffff 	.word	0x0000ffff

02001224 <systemSleep>:
 2001224:	b510      	push	{r4, lr}
 2001226:	2180      	movs	r1, #128	; 0x80
 2001228:	02c9      	lsls	r1, r1, #11
 200122a:	2000      	movs	r0, #0
 200122c:	f000 f99a 	bl	2001564 <fifoSendValue32>
 2001230:	4801      	ldr	r0, [pc, #4]	; (2001238 <systemSleep+0x14>)
 2001232:	f001 f925 	bl	2002480 <swiDelay>
 2001236:	bd10      	pop	{r4, pc}
 2001238:	000664b8 	.word	0x000664b8

0200123c <powerValueHandler>:
 200123c:	b510      	push	{r4, lr}
 200123e:	2380      	movs	r3, #128	; 0x80
 2001240:	02db      	lsls	r3, r3, #11
 2001242:	4298      	cmp	r0, r3
 2001244:	d101      	bne.n	200124a <powerValueHandler+0xe>
 2001246:	f7ff ffed 	bl	2001224 <systemSleep>
 200124a:	bd10      	pop	{r4, pc}

0200124c <systemMsgHandler>:
 200124c:	b510      	push	{r4, lr}
 200124e:	b086      	sub	sp, #24
 2001250:	1c01      	adds	r1, r0, #0
 2001252:	466a      	mov	r2, sp
 2001254:	466c      	mov	r4, sp
 2001256:	2002      	movs	r0, #2
 2001258:	f000 fbf4 	bl	2001a44 <fifoGetDatamsg>
 200125c:	8822      	ldrh	r2, [r4, #0]
 200125e:	4b0a      	ldr	r3, [pc, #40]	; (2001288 <systemMsgHandler+0x3c>)
 2001260:	429a      	cmp	r2, r3
 2001262:	d10e      	bne.n	2001282 <systemMsgHandler+0x36>
 2001264:	8a22      	ldrh	r2, [r4, #16]
 2001266:	4b09      	ldr	r3, [pc, #36]	; (200128c <systemMsgHandler+0x40>)
 2001268:	819a      	strh	r2, [r3, #12]
 200126a:	88a2      	ldrh	r2, [r4, #4]
 200126c:	801a      	strh	r2, [r3, #0]
 200126e:	88e2      	ldrh	r2, [r4, #6]
 2001270:	805a      	strh	r2, [r3, #2]
 2001272:	8922      	ldrh	r2, [r4, #8]
 2001274:	809a      	strh	r2, [r3, #4]
 2001276:	8962      	ldrh	r2, [r4, #10]
 2001278:	80da      	strh	r2, [r3, #6]
 200127a:	89a2      	ldrh	r2, [r4, #12]
 200127c:	811a      	strh	r2, [r3, #8]
 200127e:	89e2      	ldrh	r2, [r4, #14]
 2001280:	815a      	strh	r2, [r3, #10]
 2001282:	b006      	add	sp, #24
 2001284:	bd10      	pop	{r4, pc}
 2001286:	46c0      	nop			; (mov r8, r8)
 2001288:	00001239 	.word	0x00001239
 200128c:	02fff000 	.word	0x02fff000

02001290 <initSystem>:
 2001290:	b570      	push	{r4, r5, r6, lr}
 2001292:	4a30      	ldr	r2, [pc, #192]	; (2001354 <initSystem+0xc4>)
 2001294:	2100      	movs	r1, #0
 2001296:	2300      	movs	r3, #0
 2001298:	1c10      	adds	r0, r2, #0
 200129a:	3808      	subs	r0, #8
 200129c:	6013      	str	r3, [r2, #0]
 200129e:	4d2e      	ldr	r5, [pc, #184]	; (2001358 <initSystem+0xc8>)
 20012a0:	6003      	str	r3, [r0, #0]
 20012a2:	1f10      	subs	r0, r2, #4
 20012a4:	6003      	str	r3, [r0, #0]
 20012a6:	0088      	lsls	r0, r1, #2
 20012a8:	1944      	adds	r4, r0, r5
 20012aa:	8023      	strh	r3, [r4, #0]
 20012ac:	4c2b      	ldr	r4, [pc, #172]	; (200135c <initSystem+0xcc>)
 20012ae:	3101      	adds	r1, #1
 20012b0:	1900      	adds	r0, r0, r4
 20012b2:	8003      	strh	r3, [r0, #0]
 20012b4:	320c      	adds	r2, #12
 20012b6:	2904      	cmp	r1, #4
 20012b8:	d1ee      	bne.n	2001298 <initSystem+0x8>
 20012ba:	4b29      	ldr	r3, [pc, #164]	; (2001360 <initSystem+0xd0>)
 20012bc:	2200      	movs	r2, #0
 20012be:	601a      	str	r2, [r3, #0]
 20012c0:	4a28      	ldr	r2, [pc, #160]	; (2001364 <initSystem+0xd4>)
 20012c2:	4929      	ldr	r1, [pc, #164]	; (2001368 <initSystem+0xd8>)
 20012c4:	6013      	str	r3, [r2, #0]
 20012c6:	2380      	movs	r3, #128	; 0x80
 20012c8:	04db      	lsls	r3, r3, #19
 20012ca:	3204      	adds	r2, #4
 20012cc:	6013      	str	r3, [r2, #0]
 20012ce:	4b27      	ldr	r3, [pc, #156]	; (200136c <initSystem+0xdc>)
 20012d0:	600b      	str	r3, [r1, #0]
 20012d2:	680b      	ldr	r3, [r1, #0]
 20012d4:	4a24      	ldr	r2, [pc, #144]	; (2001368 <initSystem+0xd8>)
 20012d6:	2b00      	cmp	r3, #0
 20012d8:	dbfb      	blt.n	20012d2 <initSystem+0x42>
 20012da:	4b21      	ldr	r3, [pc, #132]	; (2001360 <initSystem+0xd0>)
 20012dc:	2100      	movs	r1, #0
 20012de:	6019      	str	r1, [r3, #0]
 20012e0:	4920      	ldr	r1, [pc, #128]	; (2001364 <initSystem+0xd4>)
 20012e2:	600b      	str	r3, [r1, #0]
 20012e4:	4922      	ldr	r1, [pc, #136]	; (2001370 <initSystem+0xe0>)
 20012e6:	3b14      	subs	r3, #20
 20012e8:	6019      	str	r1, [r3, #0]
 20012ea:	4b20      	ldr	r3, [pc, #128]	; (200136c <initSystem+0xdc>)
 20012ec:	6013      	str	r3, [r2, #0]
 20012ee:	6813      	ldr	r3, [r2, #0]
 20012f0:	2b00      	cmp	r3, #0
 20012f2:	dbfc      	blt.n	20012ee <initSystem+0x5e>
 20012f4:	4a1f      	ldr	r2, [pc, #124]	; (2001374 <initSystem+0xe4>)
 20012f6:	2300      	movs	r3, #0
 20012f8:	6013      	str	r3, [r2, #0]
 20012fa:	4a1f      	ldr	r2, [pc, #124]	; (2001378 <initSystem+0xe8>)
 20012fc:	4c1f      	ldr	r4, [pc, #124]	; (200137c <initSystem+0xec>)
 20012fe:	6013      	str	r3, [r2, #0]
 2001300:	3204      	adds	r2, #4
 2001302:	7013      	strb	r3, [r2, #0]
 2001304:	3201      	adds	r2, #1
 2001306:	7013      	strb	r3, [r2, #0]
 2001308:	3201      	adds	r2, #1
 200130a:	7013      	strb	r3, [r2, #0]
 200130c:	3202      	adds	r2, #2
 200130e:	7013      	strb	r3, [r2, #0]
 2001310:	3201      	adds	r2, #1
 2001312:	7013      	strb	r3, [r2, #0]
 2001314:	f000 ff08 	bl	2002128 <irqInit>
 2001318:	f000 fab4 	bl	2001884 <fifoInit>
 200131c:	4918      	ldr	r1, [pc, #96]	; (2001380 <initSystem+0xf0>)
 200131e:	2200      	movs	r2, #0
 2001320:	2000      	movs	r0, #0
 2001322:	f000 f9ed 	bl	2001700 <fifoSetValue32Handler>
 2001326:	4917      	ldr	r1, [pc, #92]	; (2001384 <initSystem+0xf4>)
 2001328:	2200      	movs	r2, #0
 200132a:	2002      	movs	r0, #2
 200132c:	f000 fe3e 	bl	2001fac <fifoSetDatamsgHandler>
 2001330:	2301      	movs	r3, #1
 2001332:	425b      	negs	r3, r3
 2001334:	81a3      	strh	r3, [r4, #12]
 2001336:	4814      	ldr	r0, [pc, #80]	; (2001388 <initSystem+0xf8>)
 2001338:	f001 e874 	blx	2002424 <memUncached>
 200133c:	4b13      	ldr	r3, [pc, #76]	; (200138c <initSystem+0xfc>)
 200133e:	4a14      	ldr	r2, [pc, #80]	; (2001390 <initSystem+0x100>)
 2001340:	6018      	str	r0, [r3, #0]
 2001342:	4b14      	ldr	r3, [pc, #80]	; (2001394 <initSystem+0x104>)
 2001344:	2001      	movs	r0, #1
 2001346:	605a      	str	r2, [r3, #4]
 2001348:	4b13      	ldr	r3, [pc, #76]	; (2001398 <initSystem+0x108>)
 200134a:	681b      	ldr	r3, [r3, #0]
 200134c:	6163      	str	r3, [r4, #20]
 200134e:	f000 ff29 	bl	20021a4 <irqEnable>
 2001352:	bd70      	pop	{r4, r5, r6, pc}
 2001354:	040000b8 	.word	0x040000b8
 2001358:	04000102 	.word	0x04000102
 200135c:	04000100 	.word	0x04000100
 2001360:	040000ec 	.word	0x040000ec
 2001364:	040000d4 	.word	0x040000d4
 2001368:	040000dc 	.word	0x040000dc
 200136c:	85000015 	.word	0x85000015
 2001370:	04001008 	.word	0x04001008
 2001374:	04001000 	.word	0x04001000
 2001378:	04000240 	.word	0x04000240
 200137c:	02fff000 	.word	0x02fff000
 2001380:	0200123d 	.word	0x0200123d
 2001384:	0200124d 	.word	0x0200124d
 2001388:	02fff010 	.word	0x02fff010
 200138c:	02011230 	.word	0x02011230
 2001390:	02002291 	.word	0x02002291
 2001394:	0200f644 	.word	0x0200f644
 2001398:	0200f63c 	.word	0x0200f63c

0200139c <fifoInternalSend>:
 200139c:	b5f0      	push	{r4, r5, r6, r7, lr}
 200139e:	465f      	mov	r7, fp
 20013a0:	4656      	mov	r6, sl
 20013a2:	464d      	mov	r5, r9
 20013a4:	4644      	mov	r4, r8
 20013a6:	b4f0      	push	{r4, r5, r6, r7}
 20013a8:	17cb      	asrs	r3, r1, #31
 20013aa:	1a5b      	subs	r3, r3, r1
 20013ac:	b083      	sub	sp, #12
 20013ae:	0fde      	lsrs	r6, r3, #31
 20013b0:	2a00      	cmp	r2, #0
 20013b2:	d074      	beq.n	200149e <fifoInternalSend+0x102>
 20013b4:	4b56      	ldr	r3, [pc, #344]	; (2001510 <fifoInternalSend+0x174>)
 20013b6:	1c4d      	adds	r5, r1, #1
 20013b8:	681c      	ldr	r4, [r3, #0]
 20013ba:	42a5      	cmp	r5, r4
 20013bc:	d872      	bhi.n	20014a4 <fifoInternalSend+0x108>
 20013be:	2920      	cmp	r1, #32
 20013c0:	d870      	bhi.n	20014a4 <fifoInternalSend+0x108>
 20013c2:	4c54      	ldr	r4, [pc, #336]	; (2001514 <fifoInternalSend+0x178>)
 20013c4:	6825      	ldr	r5, [r4, #0]
 20013c6:	46aa      	mov	sl, r5
 20013c8:	2500      	movs	r5, #0
 20013ca:	6025      	str	r5, [r4, #0]
 20013cc:	889d      	ldrh	r5, [r3, #4]
 20013ce:	4c52      	ldr	r4, [pc, #328]	; (2001518 <fifoInternalSend+0x17c>)
 20013d0:	42a5      	cmp	r5, r4
 20013d2:	d100      	bne.n	20013d6 <fifoInternalSend+0x3a>
 20013d4:	e06e      	b.n	20014b4 <fifoInternalSend+0x118>
 20013d6:	891d      	ldrh	r5, [r3, #8]
 20013d8:	891e      	ldrh	r6, [r3, #8]
 20013da:	4c50      	ldr	r4, [pc, #320]	; (200151c <fifoInternalSend+0x180>)
 20013dc:	00f6      	lsls	r6, r6, #3
 20013de:	59a6      	ldr	r6, [r4, r6]
 20013e0:	006f      	lsls	r7, r5, #1
 20013e2:	0436      	lsls	r6, r6, #16
 20013e4:	0c36      	lsrs	r6, r6, #16
 20013e6:	811e      	strh	r6, [r3, #8]
 20013e8:	4e4b      	ldr	r6, [pc, #300]	; (2001518 <fifoInternalSend+0x17c>)
 20013ea:	46bc      	mov	ip, r7
 20013ec:	00ef      	lsls	r7, r5, #3
 20013ee:	51e6      	str	r6, [r4, r7]
 20013f0:	681f      	ldr	r7, [r3, #0]
 20013f2:	3f01      	subs	r7, #1
 20013f4:	601f      	str	r7, [r3, #0]
 20013f6:	889f      	ldrh	r7, [r3, #4]
 20013f8:	42b7      	cmp	r7, r6
 20013fa:	d100      	bne.n	20013fe <fifoInternalSend+0x62>
 20013fc:	e086      	b.n	200150c <fifoInternalSend+0x170>
 20013fe:	88de      	ldrh	r6, [r3, #6]
 2001400:	88df      	ldrh	r7, [r3, #6]
 2001402:	46b1      	mov	r9, r6
 2001404:	00ff      	lsls	r7, r7, #3
 2001406:	593f      	ldr	r7, [r7, r4]
 2001408:	46b8      	mov	r8, r7
 200140a:	4f45      	ldr	r7, [pc, #276]	; (2001520 <fifoInternalSend+0x184>)
 200140c:	4646      	mov	r6, r8
 200140e:	4037      	ands	r7, r6
 2001410:	464e      	mov	r6, r9
 2001412:	432f      	orrs	r7, r5
 2001414:	00f6      	lsls	r6, r6, #3
 2001416:	5137      	str	r7, [r6, r4]
 2001418:	4666      	mov	r6, ip
 200141a:	3601      	adds	r6, #1
 200141c:	00b6      	lsls	r6, r6, #2
 200141e:	51a0      	str	r0, [r4, r6]
 2001420:	80dd      	strh	r5, [r3, #6]
 2001422:	2500      	movs	r5, #0
 2001424:	42a9      	cmp	r1, r5
 2001426:	dd61      	ble.n	20014ec <fifoInternalSend+0x150>
 2001428:	4f3d      	ldr	r7, [pc, #244]	; (2001520 <fifoInternalSend+0x184>)
 200142a:	00ae      	lsls	r6, r5, #2
 200142c:	1996      	adds	r6, r2, r6
 200142e:	4c3b      	ldr	r4, [pc, #236]	; (200151c <fifoInternalSend+0x180>)
 2001430:	4698      	mov	r8, r3
 2001432:	46b9      	mov	r9, r7
 2001434:	e018      	b.n	2001468 <fifoInternalSend+0xcc>
 2001436:	4647      	mov	r7, r8
 2001438:	4642      	mov	r2, r8
 200143a:	88ff      	ldrh	r7, [r7, #6]
 200143c:	88d2      	ldrh	r2, [r2, #6]
 200143e:	46bc      	mov	ip, r7
 2001440:	00d2      	lsls	r2, r2, #3
 2001442:	58a7      	ldr	r7, [r4, r2]
 2001444:	1c3a      	adds	r2, r7, #0
 2001446:	464f      	mov	r7, r9
 2001448:	403a      	ands	r2, r7
 200144a:	4302      	orrs	r2, r0
 200144c:	4693      	mov	fp, r2
 200144e:	4662      	mov	r2, ip
 2001450:	00d2      	lsls	r2, r2, #3
 2001452:	465f      	mov	r7, fp
 2001454:	50a7      	str	r7, [r4, r2]
 2001456:	9f01      	ldr	r7, [sp, #4]
 2001458:	ce04      	ldmia	r6!, {r2}
 200145a:	3701      	adds	r7, #1
 200145c:	00bf      	lsls	r7, r7, #2
 200145e:	3501      	adds	r5, #1
 2001460:	51e2      	str	r2, [r4, r7]
 2001462:	80d8      	strh	r0, [r3, #6]
 2001464:	42a9      	cmp	r1, r5
 2001466:	dd41      	ble.n	20014ec <fifoInternalSend+0x150>
 2001468:	8918      	ldrh	r0, [r3, #8]
 200146a:	891f      	ldrh	r7, [r3, #8]
 200146c:	0042      	lsls	r2, r0, #1
 200146e:	00ff      	lsls	r7, r7, #3
 2001470:	59e7      	ldr	r7, [r4, r7]
 2001472:	9201      	str	r2, [sp, #4]
 2001474:	043f      	lsls	r7, r7, #16
 2001476:	0c3f      	lsrs	r7, r7, #16
 2001478:	4a27      	ldr	r2, [pc, #156]	; (2001518 <fifoInternalSend+0x17c>)
 200147a:	811f      	strh	r7, [r3, #8]
 200147c:	00c7      	lsls	r7, r0, #3
 200147e:	51e2      	str	r2, [r4, r7]
 2001480:	681f      	ldr	r7, [r3, #0]
 2001482:	2201      	movs	r2, #1
 2001484:	46bc      	mov	ip, r7
 2001486:	4252      	negs	r2, r2
 2001488:	4494      	add	ip, r2
 200148a:	4667      	mov	r7, ip
 200148c:	601f      	str	r7, [r3, #0]
 200148e:	889a      	ldrh	r2, [r3, #4]
 2001490:	4f21      	ldr	r7, [pc, #132]	; (2001518 <fifoInternalSend+0x17c>)
 2001492:	4694      	mov	ip, r2
 2001494:	45bc      	cmp	ip, r7
 2001496:	d1ce      	bne.n	2001436 <fifoInternalSend+0x9a>
 2001498:	4642      	mov	r2, r8
 200149a:	8090      	strh	r0, [r2, #4]
 200149c:	e7db      	b.n	2001456 <fifoInternalSend+0xba>
 200149e:	2e00      	cmp	r6, #0
 20014a0:	d100      	bne.n	20014a4 <fifoInternalSend+0x108>
 20014a2:	e787      	b.n	20013b4 <fifoInternalSend+0x18>
 20014a4:	2000      	movs	r0, #0
 20014a6:	b003      	add	sp, #12
 20014a8:	bc3c      	pop	{r2, r3, r4, r5}
 20014aa:	4690      	mov	r8, r2
 20014ac:	4699      	mov	r9, r3
 20014ae:	46a2      	mov	sl, r4
 20014b0:	46ab      	mov	fp, r5
 20014b2:	bdf0      	pop	{r4, r5, r6, r7, pc}
 20014b4:	4f1b      	ldr	r7, [pc, #108]	; (2001524 <fifoInternalSend+0x188>)
 20014b6:	2402      	movs	r4, #2
 20014b8:	883d      	ldrh	r5, [r7, #0]
 20014ba:	4225      	tst	r5, r4
 20014bc:	d000      	beq.n	20014c0 <fifoInternalSend+0x124>
 20014be:	e78a      	b.n	20013d6 <fifoInternalSend+0x3a>
 20014c0:	4d19      	ldr	r5, [pc, #100]	; (2001528 <fifoInternalSend+0x18c>)
 20014c2:	6028      	str	r0, [r5, #0]
 20014c4:	8838      	ldrh	r0, [r7, #0]
 20014c6:	46ac      	mov	ip, r5
 20014c8:	4220      	tst	r0, r4
 20014ca:	d1aa      	bne.n	2001422 <fifoInternalSend+0x86>
 20014cc:	2e00      	cmp	r6, #0
 20014ce:	d0a8      	beq.n	2001422 <fifoInternalSend+0x86>
 20014d0:	1c10      	adds	r0, r2, #0
 20014d2:	2500      	movs	r5, #0
 20014d4:	46a1      	mov	r9, r4
 20014d6:	6806      	ldr	r6, [r0, #0]
 20014d8:	4664      	mov	r4, ip
 20014da:	6026      	str	r6, [r4, #0]
 20014dc:	883c      	ldrh	r4, [r7, #0]
 20014de:	464e      	mov	r6, r9
 20014e0:	3501      	adds	r5, #1
 20014e2:	4234      	tst	r4, r6
 20014e4:	d19e      	bne.n	2001424 <fifoInternalSend+0x88>
 20014e6:	3004      	adds	r0, #4
 20014e8:	42a9      	cmp	r1, r5
 20014ea:	dcf4      	bgt.n	20014d6 <fifoInternalSend+0x13a>
 20014ec:	889a      	ldrh	r2, [r3, #4]
 20014ee:	4b0a      	ldr	r3, [pc, #40]	; (2001518 <fifoInternalSend+0x17c>)
 20014f0:	429a      	cmp	r2, r3
 20014f2:	d006      	beq.n	2001502 <fifoInternalSend+0x166>
 20014f4:	4b0b      	ldr	r3, [pc, #44]	; (2001524 <fifoInternalSend+0x188>)
 20014f6:	2204      	movs	r2, #4
 20014f8:	8819      	ldrh	r1, [r3, #0]
 20014fa:	430a      	orrs	r2, r1
 20014fc:	0412      	lsls	r2, r2, #16
 20014fe:	0c12      	lsrs	r2, r2, #16
 2001500:	801a      	strh	r2, [r3, #0]
 2001502:	4b04      	ldr	r3, [pc, #16]	; (2001514 <fifoInternalSend+0x178>)
 2001504:	4654      	mov	r4, sl
 2001506:	601c      	str	r4, [r3, #0]
 2001508:	2001      	movs	r0, #1
 200150a:	e7cc      	b.n	20014a6 <fifoInternalSend+0x10a>
 200150c:	809d      	strh	r5, [r3, #4]
 200150e:	e783      	b.n	2001418 <fifoInternalSend+0x7c>
 2001510:	0200e5c4 	.word	0x0200e5c4
 2001514:	04000208 	.word	0x04000208
 2001518:	0000ffff 	.word	0x0000ffff
 200151c:	020106e8 	.word	0x020106e8
 2001520:	ffff0000 	.word	0xffff0000
 2001524:	04000184 	.word	0x04000184
 2001528:	04000188 	.word	0x04000188

0200152c <fifoSendAddress>:
 200152c:	b510      	push	{r4, lr}
 200152e:	280f      	cmp	r0, #15
 2001530:	d805      	bhi.n	200153e <fifoSendAddress+0x12>
 2001532:	4a0a      	ldr	r2, [pc, #40]	; (200155c <fifoSendAddress+0x30>)
 2001534:	2380      	movs	r3, #128	; 0x80
 2001536:	400a      	ands	r2, r1
 2001538:	049b      	lsls	r3, r3, #18
 200153a:	429a      	cmp	r2, r3
 200153c:	d001      	beq.n	2001542 <fifoSendAddress+0x16>
 200153e:	2000      	movs	r0, #0
 2001540:	bd10      	pop	{r4, pc}
 2001542:	2380      	movs	r3, #128	; 0x80
 2001544:	051b      	lsls	r3, r3, #20
 2001546:	0700      	lsls	r0, r0, #28
 2001548:	4318      	orrs	r0, r3
 200154a:	4b05      	ldr	r3, [pc, #20]	; (2001560 <fifoSendAddress+0x34>)
 200154c:	2200      	movs	r2, #0
 200154e:	4019      	ands	r1, r3
 2001550:	4308      	orrs	r0, r1
 2001552:	2100      	movs	r1, #0
 2001554:	f7ff ff22 	bl	200139c <fifoInternalSend>
 2001558:	e7f2      	b.n	2001540 <fifoSendAddress+0x14>
 200155a:	46c0      	nop			; (mov r8, r8)
 200155c:	ff000000 	.word	0xff000000
 2001560:	00ffffff 	.word	0x00ffffff

02001564 <fifoSendValue32>:
 2001564:	b500      	push	{lr}
 2001566:	b083      	sub	sp, #12
 2001568:	280f      	cmp	r0, #15
 200156a:	d819      	bhi.n	20015a0 <fifoSendValue32+0x3c>
 200156c:	4b0d      	ldr	r3, [pc, #52]	; (20015a4 <fifoSendValue32+0x40>)
 200156e:	4219      	tst	r1, r3
 2001570:	d10c      	bne.n	200158c <fifoSendValue32+0x28>
 2001572:	4b0d      	ldr	r3, [pc, #52]	; (20015a8 <fifoSendValue32+0x44>)
 2001574:	0700      	lsls	r0, r0, #28
 2001576:	4019      	ands	r1, r3
 2001578:	2380      	movs	r3, #128	; 0x80
 200157a:	4308      	orrs	r0, r1
 200157c:	04db      	lsls	r3, r3, #19
 200157e:	4318      	orrs	r0, r3
 2001580:	2100      	movs	r1, #0
 2001582:	2200      	movs	r2, #0
 2001584:	f7ff ff0a 	bl	200139c <fifoInternalSend>
 2001588:	b003      	add	sp, #12
 200158a:	bd00      	pop	{pc}
 200158c:	23c0      	movs	r3, #192	; 0xc0
 200158e:	04db      	lsls	r3, r3, #19
 2001590:	0700      	lsls	r0, r0, #28
 2001592:	9101      	str	r1, [sp, #4]
 2001594:	4318      	orrs	r0, r3
 2001596:	2101      	movs	r1, #1
 2001598:	aa01      	add	r2, sp, #4
 200159a:	f7ff feff 	bl	200139c <fifoInternalSend>
 200159e:	e7f3      	b.n	2001588 <fifoSendValue32+0x24>
 20015a0:	2000      	movs	r0, #0
 20015a2:	e7f1      	b.n	2001588 <fifoSendValue32+0x24>
 20015a4:	fe000000 	.word	0xfe000000
 20015a8:	01ffffff 	.word	0x01ffffff

020015ac <fifoGetAddress>:
 20015ac:	b5f0      	push	{r4, r5, r6, r7, lr}
 20015ae:	4657      	mov	r7, sl
 20015b0:	4646      	mov	r6, r8
 20015b2:	b4c0      	push	{r6, r7}
 20015b4:	280f      	cmp	r0, #15
 20015b6:	d904      	bls.n	20015c2 <fifoGetAddress+0x16>
 20015b8:	2000      	movs	r0, #0
 20015ba:	bc0c      	pop	{r2, r3}
 20015bc:	4690      	mov	r8, r2
 20015be:	469a      	mov	sl, r3
 20015c0:	bdf0      	pop	{r4, r5, r6, r7, pc}
 20015c2:	4a11      	ldr	r2, [pc, #68]	; (2001608 <fifoGetAddress+0x5c>)
 20015c4:	0086      	lsls	r6, r0, #2
 20015c6:	5ab3      	ldrh	r3, [r6, r2]
 20015c8:	4c10      	ldr	r4, [pc, #64]	; (200160c <fifoGetAddress+0x60>)
 20015ca:	42a3      	cmp	r3, r4
 20015cc:	d0f4      	beq.n	20015b8 <fifoGetAddress+0xc>
 20015ce:	4d10      	ldr	r5, [pc, #64]	; (2001610 <fifoGetAddress+0x64>)
 20015d0:	00d8      	lsls	r0, r3, #3
 20015d2:	6829      	ldr	r1, [r5, #0]
 20015d4:	00df      	lsls	r7, r3, #3
 20015d6:	468c      	mov	ip, r1
 20015d8:	2100      	movs	r1, #0
 20015da:	6029      	str	r1, [r5, #0]
 20015dc:	490d      	ldr	r1, [pc, #52]	; (2001614 <fifoGetAddress+0x68>)
 20015de:	3004      	adds	r0, #4
 20015e0:	5840      	ldr	r0, [r0, r1]
 20015e2:	46ba      	mov	sl, r7
 20015e4:	587f      	ldr	r7, [r7, r1]
 20015e6:	043f      	lsls	r7, r7, #16
 20015e8:	0c3f      	lsrs	r7, r7, #16
 20015ea:	52b7      	strh	r7, [r6, r2]
 20015ec:	4652      	mov	r2, sl
 20015ee:	5054      	str	r4, [r2, r1]
 20015f0:	4a09      	ldr	r2, [pc, #36]	; (2001618 <fifoGetAddress+0x6c>)
 20015f2:	401c      	ands	r4, r3
 20015f4:	8956      	ldrh	r6, [r2, #10]
 20015f6:	00f6      	lsls	r6, r6, #3
 20015f8:	5074      	str	r4, [r6, r1]
 20015fa:	8153      	strh	r3, [r2, #10]
 20015fc:	6813      	ldr	r3, [r2, #0]
 20015fe:	3301      	adds	r3, #1
 2001600:	6013      	str	r3, [r2, #0]
 2001602:	4663      	mov	r3, ip
 2001604:	602b      	str	r3, [r5, #0]
 2001606:	e7d8      	b.n	20015ba <fifoGetAddress+0xe>
 2001608:	020110a8 	.word	0x020110a8
 200160c:	0000ffff 	.word	0x0000ffff
 2001610:	04000208 	.word	0x04000208
 2001614:	020106e8 	.word	0x020106e8
 2001618:	0200e5c4 	.word	0x0200e5c4

0200161c <fifoSetAddressHandler>:
 200161c:	b5f0      	push	{r4, r5, r6, r7, lr}
 200161e:	4657      	mov	r7, sl
 2001620:	464e      	mov	r6, r9
 2001622:	4645      	mov	r5, r8
 2001624:	b4e0      	push	{r5, r6, r7}
 2001626:	1c04      	adds	r4, r0, #0
 2001628:	1c0e      	adds	r6, r1, #0
 200162a:	1c17      	adds	r7, r2, #0
 200162c:	280f      	cmp	r0, #15
 200162e:	d822      	bhi.n	2001676 <fifoSetAddressHandler+0x5a>
 2001630:	4b12      	ldr	r3, [pc, #72]	; (200167c <fifoSetAddressHandler+0x60>)
 2001632:	0085      	lsls	r5, r0, #2
 2001634:	681a      	ldr	r2, [r3, #0]
 2001636:	4691      	mov	r9, r2
 2001638:	2200      	movs	r2, #0
 200163a:	601a      	str	r2, [r3, #0]
 200163c:	4b10      	ldr	r3, [pc, #64]	; (2001680 <fifoSetAddressHandler+0x64>)
 200163e:	5159      	str	r1, [r3, r5]
 2001640:	4b10      	ldr	r3, [pc, #64]	; (2001684 <fifoSetAddressHandler+0x68>)
 2001642:	515f      	str	r7, [r3, r5]
 2001644:	2900      	cmp	r1, #0
 2001646:	d00d      	beq.n	2001664 <fifoSetAddressHandler+0x48>
 2001648:	4b0f      	ldr	r3, [pc, #60]	; (2001688 <fifoSetAddressHandler+0x6c>)
 200164a:	4a10      	ldr	r2, [pc, #64]	; (200168c <fifoSetAddressHandler+0x70>)
 200164c:	4698      	mov	r8, r3
 200164e:	4692      	mov	sl, r2
 2001650:	e004      	b.n	200165c <fifoSetAddressHandler+0x40>
 2001652:	1c20      	adds	r0, r4, #0
 2001654:	f7ff ffaa 	bl	20015ac <fifoGetAddress>
 2001658:	1c39      	adds	r1, r7, #0
 200165a:	47b0      	blx	r6
 200165c:	4642      	mov	r2, r8
 200165e:	5b53      	ldrh	r3, [r2, r5]
 2001660:	4553      	cmp	r3, sl
 2001662:	d1f6      	bne.n	2001652 <fifoSetAddressHandler+0x36>
 2001664:	4b05      	ldr	r3, [pc, #20]	; (200167c <fifoSetAddressHandler+0x60>)
 2001666:	464a      	mov	r2, r9
 2001668:	601a      	str	r2, [r3, #0]
 200166a:	2001      	movs	r0, #1
 200166c:	bc1c      	pop	{r2, r3, r4}
 200166e:	4690      	mov	r8, r2
 2001670:	4699      	mov	r9, r3
 2001672:	46a2      	mov	sl, r4
 2001674:	bdf0      	pop	{r4, r5, r6, r7, pc}
 2001676:	2000      	movs	r0, #0
 2001678:	e7f8      	b.n	200166c <fifoSetAddressHandler+0x50>
 200167a:	46c0      	nop			; (mov r8, r8)
 200167c:	04000208 	.word	0x04000208
 2001680:	02010f28 	.word	0x02010f28
 2001684:	02011028 	.word	0x02011028
 2001688:	020110a8 	.word	0x020110a8
 200168c:	0000ffff 	.word	0x0000ffff

02001690 <fifoGetValue32>:
 2001690:	b5f0      	push	{r4, r5, r6, r7, lr}
 2001692:	4657      	mov	r7, sl
 2001694:	4646      	mov	r6, r8
 2001696:	b4c0      	push	{r6, r7}
 2001698:	280f      	cmp	r0, #15
 200169a:	d822      	bhi.n	20016e2 <fifoGetValue32+0x52>
 200169c:	4a13      	ldr	r2, [pc, #76]	; (20016ec <fifoGetValue32+0x5c>)
 200169e:	0086      	lsls	r6, r0, #2
 20016a0:	5ab3      	ldrh	r3, [r6, r2]
 20016a2:	4c13      	ldr	r4, [pc, #76]	; (20016f0 <fifoGetValue32+0x60>)
 20016a4:	42a3      	cmp	r3, r4
 20016a6:	d01c      	beq.n	20016e2 <fifoGetValue32+0x52>
 20016a8:	4d12      	ldr	r5, [pc, #72]	; (20016f4 <fifoGetValue32+0x64>)
 20016aa:	00d8      	lsls	r0, r3, #3
 20016ac:	6829      	ldr	r1, [r5, #0]
 20016ae:	00df      	lsls	r7, r3, #3
 20016b0:	468c      	mov	ip, r1
 20016b2:	2100      	movs	r1, #0
 20016b4:	6029      	str	r1, [r5, #0]
 20016b6:	4910      	ldr	r1, [pc, #64]	; (20016f8 <fifoGetValue32+0x68>)
 20016b8:	3004      	adds	r0, #4
 20016ba:	5840      	ldr	r0, [r0, r1]
 20016bc:	46ba      	mov	sl, r7
 20016be:	587f      	ldr	r7, [r7, r1]
 20016c0:	043f      	lsls	r7, r7, #16
 20016c2:	0c3f      	lsrs	r7, r7, #16
 20016c4:	52b7      	strh	r7, [r6, r2]
 20016c6:	4652      	mov	r2, sl
 20016c8:	5054      	str	r4, [r2, r1]
 20016ca:	4a0c      	ldr	r2, [pc, #48]	; (20016fc <fifoGetValue32+0x6c>)
 20016cc:	401c      	ands	r4, r3
 20016ce:	8956      	ldrh	r6, [r2, #10]
 20016d0:	00f6      	lsls	r6, r6, #3
 20016d2:	5074      	str	r4, [r6, r1]
 20016d4:	8153      	strh	r3, [r2, #10]
 20016d6:	6813      	ldr	r3, [r2, #0]
 20016d8:	3301      	adds	r3, #1
 20016da:	6013      	str	r3, [r2, #0]
 20016dc:	4663      	mov	r3, ip
 20016de:	602b      	str	r3, [r5, #0]
 20016e0:	e000      	b.n	20016e4 <fifoGetValue32+0x54>
 20016e2:	2000      	movs	r0, #0
 20016e4:	bc0c      	pop	{r2, r3}
 20016e6:	4690      	mov	r8, r2
 20016e8:	469a      	mov	sl, r3
 20016ea:	bdf0      	pop	{r4, r5, r6, r7, pc}
 20016ec:	02010fa8 	.word	0x02010fa8
 20016f0:	0000ffff 	.word	0x0000ffff
 20016f4:	04000208 	.word	0x04000208
 20016f8:	020106e8 	.word	0x020106e8
 20016fc:	0200e5c4 	.word	0x0200e5c4

02001700 <fifoSetValue32Handler>:
 2001700:	b5f0      	push	{r4, r5, r6, r7, lr}
 2001702:	4657      	mov	r7, sl
 2001704:	464e      	mov	r6, r9
 2001706:	4645      	mov	r5, r8
 2001708:	b4e0      	push	{r5, r6, r7}
 200170a:	1c04      	adds	r4, r0, #0
 200170c:	1c0e      	adds	r6, r1, #0
 200170e:	1c17      	adds	r7, r2, #0
 2001710:	280f      	cmp	r0, #15
 2001712:	d822      	bhi.n	200175a <fifoSetValue32Handler+0x5a>
 2001714:	4b12      	ldr	r3, [pc, #72]	; (2001760 <fifoSetValue32Handler+0x60>)
 2001716:	0085      	lsls	r5, r0, #2
 2001718:	681a      	ldr	r2, [r3, #0]
 200171a:	4691      	mov	r9, r2
 200171c:	2200      	movs	r2, #0
 200171e:	601a      	str	r2, [r3, #0]
 2001720:	4b10      	ldr	r3, [pc, #64]	; (2001764 <fifoSetValue32Handler+0x64>)
 2001722:	5159      	str	r1, [r3, r5]
 2001724:	4b10      	ldr	r3, [pc, #64]	; (2001768 <fifoSetValue32Handler+0x68>)
 2001726:	515f      	str	r7, [r3, r5]
 2001728:	2900      	cmp	r1, #0
 200172a:	d00d      	beq.n	2001748 <fifoSetValue32Handler+0x48>
 200172c:	4b0f      	ldr	r3, [pc, #60]	; (200176c <fifoSetValue32Handler+0x6c>)
 200172e:	4a10      	ldr	r2, [pc, #64]	; (2001770 <fifoSetValue32Handler+0x70>)
 2001730:	4698      	mov	r8, r3
 2001732:	4692      	mov	sl, r2
 2001734:	e004      	b.n	2001740 <fifoSetValue32Handler+0x40>
 2001736:	1c20      	adds	r0, r4, #0
 2001738:	f7ff ffaa 	bl	2001690 <fifoGetValue32>
 200173c:	1c39      	adds	r1, r7, #0
 200173e:	47b0      	blx	r6
 2001740:	4642      	mov	r2, r8
 2001742:	5b53      	ldrh	r3, [r2, r5]
 2001744:	4553      	cmp	r3, sl
 2001746:	d1f6      	bne.n	2001736 <fifoSetValue32Handler+0x36>
 2001748:	4b05      	ldr	r3, [pc, #20]	; (2001760 <fifoSetValue32Handler+0x60>)
 200174a:	464a      	mov	r2, r9
 200174c:	601a      	str	r2, [r3, #0]
 200174e:	2001      	movs	r0, #1
 2001750:	bc1c      	pop	{r2, r3, r4}
 2001752:	4690      	mov	r8, r2
 2001754:	4699      	mov	r9, r3
 2001756:	46a2      	mov	sl, r4
 2001758:	bdf0      	pop	{r4, r5, r6, r7, pc}
 200175a:	2000      	movs	r0, #0
 200175c:	e7f8      	b.n	2001750 <fifoSetValue32Handler+0x50>
 200175e:	46c0      	nop			; (mov r8, r8)
 2001760:	04000208 	.word	0x04000208
 2001764:	02010ee8 	.word	0x02010ee8
 2001768:	02010f68 	.word	0x02010f68
 200176c:	02010fa8 	.word	0x02010fa8
 2001770:	0000ffff 	.word	0x0000ffff

02001774 <fifoCheckAddress>:
 2001774:	b500      	push	{lr}
 2001776:	280f      	cmp	r0, #15
 2001778:	d807      	bhi.n	200178a <fifoCheckAddress+0x16>
 200177a:	4b05      	ldr	r3, [pc, #20]	; (2001790 <fifoCheckAddress+0x1c>)
 200177c:	0080      	lsls	r0, r0, #2
 200177e:	5ac0      	ldrh	r0, [r0, r3]
 2001780:	4b04      	ldr	r3, [pc, #16]	; (2001794 <fifoCheckAddress+0x20>)
 2001782:	18c0      	adds	r0, r0, r3
 2001784:	1e43      	subs	r3, r0, #1
 2001786:	4198      	sbcs	r0, r3
 2001788:	bd00      	pop	{pc}
 200178a:	2000      	movs	r0, #0
 200178c:	e7fc      	b.n	2001788 <fifoCheckAddress+0x14>
 200178e:	46c0      	nop			; (mov r8, r8)
 2001790:	020110a8 	.word	0x020110a8
 2001794:	ffff0001 	.word	0xffff0001

02001798 <fifoCheckDatamsg>:
 2001798:	b500      	push	{lr}
 200179a:	280f      	cmp	r0, #15
 200179c:	d807      	bhi.n	20017ae <fifoCheckDatamsg+0x16>
 200179e:	4b05      	ldr	r3, [pc, #20]	; (20017b4 <fifoCheckDatamsg+0x1c>)
 20017a0:	0080      	lsls	r0, r0, #2
 20017a2:	5ac0      	ldrh	r0, [r0, r3]
 20017a4:	4b04      	ldr	r3, [pc, #16]	; (20017b8 <fifoCheckDatamsg+0x20>)
 20017a6:	18c0      	adds	r0, r0, r3
 20017a8:	1e43      	subs	r3, r0, #1
 20017aa:	4198      	sbcs	r0, r3
 20017ac:	bd00      	pop	{pc}
 20017ae:	2000      	movs	r0, #0
 20017b0:	e7fc      	b.n	20017ac <fifoCheckDatamsg+0x14>
 20017b2:	46c0      	nop			; (mov r8, r8)
 20017b4:	02010fe8 	.word	0x02010fe8
 20017b8:	ffff0001 	.word	0xffff0001

020017bc <fifoCheckValue32>:
 20017bc:	b500      	push	{lr}
 20017be:	280f      	cmp	r0, #15
 20017c0:	d807      	bhi.n	20017d2 <fifoCheckValue32+0x16>
 20017c2:	4b05      	ldr	r3, [pc, #20]	; (20017d8 <fifoCheckValue32+0x1c>)
 20017c4:	0080      	lsls	r0, r0, #2
 20017c6:	5ac0      	ldrh	r0, [r0, r3]
 20017c8:	4b04      	ldr	r3, [pc, #16]	; (20017dc <fifoCheckValue32+0x20>)
 20017ca:	18c0      	adds	r0, r0, r3
 20017cc:	1e43      	subs	r3, r0, #1
 20017ce:	4198      	sbcs	r0, r3
 20017d0:	bd00      	pop	{pc}
 20017d2:	2000      	movs	r0, #0
 20017d4:	e7fc      	b.n	20017d0 <fifoCheckValue32+0x14>
 20017d6:	46c0      	nop			; (mov r8, r8)
 20017d8:	02010fa8 	.word	0x02010fa8
 20017dc:	ffff0001 	.word	0xffff0001

020017e0 <fifoInternalSendInterrupt>:
 20017e0:	b5f0      	push	{r4, r5, r6, r7, lr}
 20017e2:	4657      	mov	r7, sl
 20017e4:	464e      	mov	r6, r9
 20017e6:	4645      	mov	r5, r8
 20017e8:	b4e0      	push	{r5, r6, r7}
 20017ea:	491d      	ldr	r1, [pc, #116]	; (2001860 <fifoInternalSendInterrupt+0x80>)
 20017ec:	4a1d      	ldr	r2, [pc, #116]	; (2001864 <fifoInternalSendInterrupt+0x84>)
 20017ee:	888b      	ldrh	r3, [r1, #4]
 20017f0:	4293      	cmp	r3, r2
 20017f2:	d02f      	beq.n	2001854 <fifoInternalSendInterrupt+0x74>
 20017f4:	481c      	ldr	r0, [pc, #112]	; (2001868 <fifoInternalSendInterrupt+0x88>)
 20017f6:	4d1d      	ldr	r5, [pc, #116]	; (200186c <fifoInternalSendInterrupt+0x8c>)
 20017f8:	2402      	movs	r4, #2
 20017fa:	4682      	mov	sl, r0
 20017fc:	888b      	ldrh	r3, [r1, #4]
 20017fe:	46a1      	mov	r9, r4
 2001800:	481b      	ldr	r0, [pc, #108]	; (2001870 <fifoInternalSendInterrupt+0x90>)
 2001802:	46ac      	mov	ip, r5
 2001804:	e00d      	b.n	2001822 <fifoInternalSendInterrupt+0x42>
 2001806:	00ad      	lsls	r5, r5, #2
 2001808:	5142      	str	r2, [r0, r5]
 200180a:	894d      	ldrh	r5, [r1, #10]
 200180c:	1c1f      	adds	r7, r3, #0
 200180e:	4017      	ands	r7, r2
 2001810:	00ed      	lsls	r5, r5, #3
 2001812:	5147      	str	r7, [r0, r5]
 2001814:	814b      	strh	r3, [r1, #10]
 2001816:	680b      	ldr	r3, [r1, #0]
 2001818:	3301      	adds	r3, #1
 200181a:	600b      	str	r3, [r1, #0]
 200181c:	1c23      	adds	r3, r4, #0
 200181e:	4294      	cmp	r4, r2
 2001820:	d012      	beq.n	2001848 <fifoInternalSendInterrupt+0x68>
 2001822:	4655      	mov	r5, sl
 2001824:	882c      	ldrh	r4, [r5, #0]
 2001826:	464e      	mov	r6, r9
 2001828:	4234      	tst	r4, r6
 200182a:	d10c      	bne.n	2001846 <fifoInternalSendInterrupt+0x66>
 200182c:	005d      	lsls	r5, r3, #1
 200182e:	1c6e      	adds	r6, r5, #1
 2001830:	00b6      	lsls	r6, r6, #2
 2001832:	00dc      	lsls	r4, r3, #3
 2001834:	5904      	ldr	r4, [r0, r4]
 2001836:	5987      	ldr	r7, [r0, r6]
 2001838:	4666      	mov	r6, ip
 200183a:	4014      	ands	r4, r2
 200183c:	6037      	str	r7, [r6, #0]
 200183e:	4293      	cmp	r3, r2
 2001840:	d1e1      	bne.n	2001806 <fifoInternalSendInterrupt+0x26>
 2001842:	46db      	mov	fp, fp
 2001844:	e7df      	b.n	2001806 <fifoInternalSendInterrupt+0x26>
 2001846:	1c1c      	adds	r4, r3, #0
 2001848:	808c      	strh	r4, [r1, #4]
 200184a:	bc1c      	pop	{r2, r3, r4}
 200184c:	4690      	mov	r8, r2
 200184e:	4699      	mov	r9, r3
 2001850:	46a2      	mov	sl, r4
 2001852:	bdf0      	pop	{r4, r5, r6, r7, pc}
 2001854:	4b04      	ldr	r3, [pc, #16]	; (2001868 <fifoInternalSendInterrupt+0x88>)
 2001856:	3a04      	subs	r2, #4
 2001858:	8819      	ldrh	r1, [r3, #0]
 200185a:	400a      	ands	r2, r1
 200185c:	801a      	strh	r2, [r3, #0]
 200185e:	e7f4      	b.n	200184a <fifoInternalSendInterrupt+0x6a>
 2001860:	0200e5c4 	.word	0x0200e5c4
 2001864:	0000ffff 	.word	0x0000ffff
 2001868:	04000184 	.word	0x04000184
 200186c:	04000188 	.word	0x04000188
 2001870:	020106e8 	.word	0x020106e8

02001874 <__timeoutvbl>:
 2001874:	4b02      	ldr	r3, [pc, #8]	; (2001880 <__timeoutvbl+0xc>)
 2001876:	681a      	ldr	r2, [r3, #0]
 2001878:	3201      	adds	r2, #1
 200187a:	601a      	str	r2, [r3, #0]
 200187c:	4770      	bx	lr
 200187e:	46c0      	nop			; (mov r8, r8)
 2001880:	0200f340 	.word	0x0200f340

02001884 <fifoInit>:
 2001884:	b5f8      	push	{r3, r4, r5, r6, r7, lr}
 2001886:	465f      	mov	r7, fp
 2001888:	4656      	mov	r6, sl
 200188a:	464d      	mov	r5, r9
 200188c:	4644      	mov	r4, r8
 200188e:	b4f0      	push	{r4, r5, r6, r7}
 2001890:	4a57      	ldr	r2, [pc, #348]	; (20019f0 <fifoInit+0x16c>)
 2001892:	4b58      	ldr	r3, [pc, #352]	; (20019f4 <fifoInit+0x170>)
 2001894:	4d58      	ldr	r5, [pc, #352]	; (20019f8 <fifoInit+0x174>)
 2001896:	801a      	strh	r2, [r3, #0]
 2001898:	4a58      	ldr	r2, [pc, #352]	; (20019fc <fifoInit+0x178>)
 200189a:	46a9      	mov	r9, r5
 200189c:	4693      	mov	fp, r2
 200189e:	4d58      	ldr	r5, [pc, #352]	; (2001a00 <fifoInit+0x17c>)
 20018a0:	4a58      	ldr	r2, [pc, #352]	; (2001a04 <fifoInit+0x180>)
 20018a2:	2101      	movs	r1, #1
 20018a4:	4f58      	ldr	r7, [pc, #352]	; (2001a08 <fifoInit+0x184>)
 20018a6:	4e59      	ldr	r6, [pc, #356]	; (2001a0c <fifoInit+0x188>)
 20018a8:	2300      	movs	r3, #0
 20018aa:	2400      	movs	r4, #0
 20018ac:	4692      	mov	sl, r2
 20018ae:	46a8      	mov	r8, r5
 20018b0:	4249      	negs	r1, r1
 20018b2:	2000      	movs	r0, #0
 20018b4:	00a2      	lsls	r2, r4, #2
 20018b6:	18bd      	adds	r5, r7, r2
 20018b8:	52b9      	strh	r1, [r7, r2]
 20018ba:	8069      	strh	r1, [r5, #2]
 20018bc:	18b5      	adds	r5, r6, r2
 20018be:	52b1      	strh	r1, [r6, r2]
 20018c0:	8069      	strh	r1, [r5, #2]
 20018c2:	4d53      	ldr	r5, [pc, #332]	; (2001a10 <fifoInit+0x18c>)
 20018c4:	3401      	adds	r4, #1
 20018c6:	52a9      	strh	r1, [r5, r2]
 20018c8:	18aa      	adds	r2, r5, r2
 20018ca:	465d      	mov	r5, fp
 20018cc:	8051      	strh	r1, [r2, #2]
 20018ce:	18ea      	adds	r2, r5, r3
 20018d0:	464d      	mov	r5, r9
 20018d2:	6010      	str	r0, [r2, #0]
 20018d4:	18ea      	adds	r2, r5, r3
 20018d6:	4655      	mov	r5, sl
 20018d8:	6010      	str	r0, [r2, #0]
 20018da:	18ea      	adds	r2, r5, r3
 20018dc:	4645      	mov	r5, r8
 20018de:	6010      	str	r0, [r2, #0]
 20018e0:	18ea      	adds	r2, r5, r3
 20018e2:	4d4c      	ldr	r5, [pc, #304]	; (2001a14 <fifoInit+0x190>)
 20018e4:	6010      	str	r0, [r2, #0]
 20018e6:	18ea      	adds	r2, r5, r3
 20018e8:	4d4b      	ldr	r5, [pc, #300]	; (2001a18 <fifoInit+0x194>)
 20018ea:	6010      	str	r0, [r2, #0]
 20018ec:	18ea      	adds	r2, r5, r3
 20018ee:	6010      	str	r0, [r2, #0]
 20018f0:	3304      	adds	r3, #4
 20018f2:	2c10      	cmp	r4, #16
 20018f4:	d1de      	bne.n	20018b4 <fifoInit+0x30>
 20018f6:	4949      	ldr	r1, [pc, #292]	; (2001a1c <fifoInit+0x198>)
 20018f8:	4d49      	ldr	r5, [pc, #292]	; (2001a20 <fifoInit+0x19c>)
 20018fa:	2201      	movs	r2, #1
 20018fc:	2300      	movs	r3, #0
 20018fe:	2600      	movs	r6, #0
 2001900:	0094      	lsls	r4, r2, #2
 2001902:	0058      	lsls	r0, r3, #1
 2001904:	3301      	adds	r3, #1
 2001906:	510e      	str	r6, [r1, r4]
 2001908:	1c1c      	adds	r4, r3, #0
 200190a:	402c      	ands	r4, r5
 200190c:	0080      	lsls	r0, r0, #2
 200190e:	500c      	str	r4, [r1, r0]
 2001910:	3202      	adds	r2, #2
 2001912:	2bff      	cmp	r3, #255	; 0xff
 2001914:	d1f4      	bne.n	2001900 <fifoInit+0x7c>
 2001916:	4a42      	ldr	r2, [pc, #264]	; (2001a20 <fifoInit+0x19c>)
 2001918:	00db      	lsls	r3, r3, #3
 200191a:	50ca      	str	r2, [r1, r3]
 200191c:	2001      	movs	r0, #1
 200191e:	4941      	ldr	r1, [pc, #260]	; (2001a24 <fifoInit+0x1a0>)
 2001920:	f000 fbd0 	bl	20020c4 <irqSet>
 2001924:	4840      	ldr	r0, [pc, #256]	; (2001a28 <fifoInit+0x1a4>)
 2001926:	f000 fc3d 	bl	20021a4 <irqEnable>
 200192a:	2200      	movs	r2, #0
 200192c:	230f      	movs	r3, #15
 200192e:	4690      	mov	r8, r2
 2001930:	4a3e      	ldr	r2, [pc, #248]	; (2001a2c <fifoInit+0x1a8>)
 2001932:	4699      	mov	r9, r3
 2001934:	2380      	movs	r3, #128	; 0x80
 2001936:	4693      	mov	fp, r2
 2001938:	019a      	lsls	r2, r3, #6
 200193a:	2500      	movs	r5, #0
 200193c:	4e3c      	ldr	r6, [pc, #240]	; (2001a30 <fifoInit+0x1ac>)
 200193e:	4c3d      	ldr	r4, [pc, #244]	; (2001a34 <fifoInit+0x1b0>)
 2001940:	2707      	movs	r7, #7
 2001942:	4692      	mov	sl, r2
 2001944:	e010      	b.n	2001968 <fifoInit+0xe4>
 2001946:	1c5d      	adds	r5, r3, #1
 2001948:	8823      	ldrh	r3, [r4, #0]
 200194a:	465a      	mov	r2, fp
 200194c:	4013      	ands	r3, r2
 200194e:	403d      	ands	r5, r7
 2001950:	4652      	mov	r2, sl
 2001952:	4313      	orrs	r3, r2
 2001954:	022a      	lsls	r2, r5, #8
 2001956:	4313      	orrs	r3, r2
 2001958:	8023      	strh	r3, [r4, #0]
 200195a:	2001      	movs	r0, #1
 200195c:	4932      	ldr	r1, [pc, #200]	; (2001a28 <fifoInit+0x1a4>)
 200195e:	f000 fd91 	bl	2002484 <swiIntrWait>
 2001962:	6833      	ldr	r3, [r6, #0]
 2001964:	2b77      	cmp	r3, #119	; 0x77
 2001966:	dc0e      	bgt.n	2001986 <fifoInit+0x102>
 2001968:	8823      	ldrh	r3, [r4, #0]
 200196a:	464a      	mov	r2, r9
 200196c:	4013      	ands	r3, r2
 200196e:	2b0e      	cmp	r3, #14
 2001970:	d009      	beq.n	2001986 <fifoInit+0x102>
 2001972:	4642      	mov	r2, r8
 2001974:	2a02      	cmp	r2, #2
 2001976:	dc06      	bgt.n	2001986 <fifoInit+0x102>
 2001978:	3501      	adds	r5, #1
 200197a:	403d      	ands	r5, r7
 200197c:	429d      	cmp	r5, r3
 200197e:	d1e2      	bne.n	2001946 <fifoInit+0xc2>
 2001980:	2501      	movs	r5, #1
 2001982:	44a8      	add	r8, r5
 2001984:	e7df      	b.n	2001946 <fifoInit+0xc2>
 2001986:	2080      	movs	r0, #128	; 0x80
 2001988:	0240      	lsls	r0, r0, #9
 200198a:	f000 fc3b 	bl	2002204 <irqDisable>
 200198e:	2001      	movs	r0, #1
 2001990:	2100      	movs	r1, #0
 2001992:	f000 fb97 	bl	20020c4 <irqSet>
 2001996:	6833      	ldr	r3, [r6, #0]
 2001998:	2b77      	cmp	r3, #119	; 0x77
 200199a:	dd0e      	ble.n	20019ba <fifoInit+0x136>
 200199c:	4a25      	ldr	r2, [pc, #148]	; (2001a34 <fifoInit+0x1b0>)
 200199e:	4b23      	ldr	r3, [pc, #140]	; (2001a2c <fifoInit+0x1a8>)
 20019a0:	8811      	ldrh	r1, [r2, #0]
 20019a2:	2000      	movs	r0, #0
 20019a4:	4019      	ands	r1, r3
 20019a6:	2380      	movs	r3, #128	; 0x80
 20019a8:	019b      	lsls	r3, r3, #6
 20019aa:	430b      	orrs	r3, r1
 20019ac:	8013      	strh	r3, [r2, #0]
 20019ae:	bc3c      	pop	{r2, r3, r4, r5}
 20019b0:	4690      	mov	r8, r2
 20019b2:	4699      	mov	r9, r3
 20019b4:	46a2      	mov	sl, r4
 20019b6:	46ab      	mov	fp, r5
 20019b8:	bdf8      	pop	{r3, r4, r5, r6, r7, pc}
 20019ba:	4a1e      	ldr	r2, [pc, #120]	; (2001a34 <fifoInit+0x1b0>)
 20019bc:	4b1b      	ldr	r3, [pc, #108]	; (2001a2c <fifoInit+0x1a8>)
 20019be:	8811      	ldrh	r1, [r2, #0]
 20019c0:	2080      	movs	r0, #128	; 0x80
 20019c2:	4019      	ands	r1, r3
 20019c4:	23b8      	movs	r3, #184	; 0xb8
 20019c6:	019b      	lsls	r3, r3, #6
 20019c8:	430b      	orrs	r3, r1
 20019ca:	8013      	strh	r3, [r2, #0]
 20019cc:	0280      	lsls	r0, r0, #10
 20019ce:	491a      	ldr	r1, [pc, #104]	; (2001a38 <fifoInit+0x1b4>)
 20019d0:	f000 fb78 	bl	20020c4 <irqSet>
 20019d4:	2080      	movs	r0, #128	; 0x80
 20019d6:	02c0      	lsls	r0, r0, #11
 20019d8:	4918      	ldr	r1, [pc, #96]	; (2001a3c <fifoInit+0x1b8>)
 20019da:	f000 fb73 	bl	20020c4 <irqSet>
 20019de:	4a18      	ldr	r2, [pc, #96]	; (2001a40 <fifoInit+0x1bc>)
 20019e0:	4b04      	ldr	r3, [pc, #16]	; (20019f4 <fifoInit+0x170>)
 20019e2:	20c0      	movs	r0, #192	; 0xc0
 20019e4:	02c0      	lsls	r0, r0, #11
 20019e6:	801a      	strh	r2, [r3, #0]
 20019e8:	f000 fbdc 	bl	20021a4 <irqEnable>
 20019ec:	2001      	movs	r0, #1
 20019ee:	e7de      	b.n	20019ae <fifoInit+0x12a>
 20019f0:	00000109 	.word	0x00000109
 20019f4:	04000184 	.word	0x04000184
 20019f8:	02010f68 	.word	0x02010f68
 20019fc:	020106a8 	.word	0x020106a8
 2001a00:	02010f28 	.word	0x02010f28
 2001a04:	02011028 	.word	0x02011028
 2001a08:	020110a8 	.word	0x020110a8
 2001a0c:	02010fe8 	.word	0x02010fe8
 2001a10:	02010fa8 	.word	0x02010fa8
 2001a14:	02010ee8 	.word	0x02010ee8
 2001a18:	02011068 	.word	0x02011068
 2001a1c:	020106e8 	.word	0x020106e8
 2001a20:	0000ffff 	.word	0x0000ffff
 2001a24:	02001875 	.word	0x02001875
 2001a28:	00010001 	.word	0x00010001
 2001a2c:	fffff0ff 	.word	0xfffff0ff
 2001a30:	0200f340 	.word	0x0200f340
 2001a34:	04000180 	.word	0x04000180
 2001a38:	020017e1 	.word	0x020017e1
 2001a3c:	02001b45 	.word	0x02001b45
 2001a40:	ffff8400 	.word	0xffff8400

02001a44 <fifoGetDatamsg>:
 2001a44:	b5f0      	push	{r4, r5, r6, r7, lr}
 2001a46:	465f      	mov	r7, fp
 2001a48:	4656      	mov	r6, sl
 2001a4a:	464d      	mov	r5, r9
 2001a4c:	4644      	mov	r4, r8
 2001a4e:	b4f0      	push	{r4, r5, r6, r7}
 2001a50:	b087      	sub	sp, #28
 2001a52:	af00      	add	r7, sp, #0
 2001a54:	280f      	cmp	r0, #15
 2001a56:	d90a      	bls.n	2001a6e <fifoGetDatamsg+0x2a>
 2001a58:	2401      	movs	r4, #1
 2001a5a:	4264      	negs	r4, r4
 2001a5c:	46bd      	mov	sp, r7
 2001a5e:	b007      	add	sp, #28
 2001a60:	1c20      	adds	r0, r4, #0
 2001a62:	bc3c      	pop	{r2, r3, r4, r5}
 2001a64:	4690      	mov	r8, r2
 2001a66:	4699      	mov	r9, r3
 2001a68:	46a2      	mov	sl, r4
 2001a6a:	46ab      	mov	fp, r5
 2001a6c:	bdf0      	pop	{r4, r5, r6, r7, pc}
 2001a6e:	0080      	lsls	r0, r0, #2
 2001a70:	4c2f      	ldr	r4, [pc, #188]	; (2001b30 <fifoGetDatamsg+0xec>)
 2001a72:	6178      	str	r0, [r7, #20]
 2001a74:	5a23      	ldrh	r3, [r4, r0]
 2001a76:	4d2f      	ldr	r5, [pc, #188]	; (2001b34 <fifoGetDatamsg+0xf0>)
 2001a78:	42ab      	cmp	r3, r5
 2001a7a:	d0ed      	beq.n	2001a58 <fifoGetDatamsg+0x14>
 2001a7c:	482e      	ldr	r0, [pc, #184]	; (2001b38 <fifoGetDatamsg+0xf4>)
 2001a7e:	2400      	movs	r4, #0
 2001a80:	6806      	ldr	r6, [r0, #0]
 2001a82:	6004      	str	r4, [r0, #0]
 2001a84:	4c2d      	ldr	r4, [pc, #180]	; (2001b3c <fifoGetDatamsg+0xf8>)
 2001a86:	00d8      	lsls	r0, r3, #3
 2001a88:	4682      	mov	sl, r0
 2001a8a:	5820      	ldr	r0, [r4, r0]
 2001a8c:	60be      	str	r6, [r7, #8]
 2001a8e:	0100      	lsls	r0, r0, #4
 2001a90:	0d00      	lsrs	r0, r0, #20
 2001a92:	6138      	str	r0, [r7, #16]
 2001a94:	3003      	adds	r0, #3
 2001a96:	1080      	asrs	r0, r0, #2
 2001a98:	4683      	mov	fp, r0
 2001a9a:	0080      	lsls	r0, r0, #2
 2001a9c:	300e      	adds	r0, #14
 2001a9e:	08c0      	lsrs	r0, r0, #3
 2001aa0:	00c0      	lsls	r0, r0, #3
 2001aa2:	466e      	mov	r6, sp
 2001aa4:	1a36      	subs	r6, r6, r0
 2001aa6:	4658      	mov	r0, fp
 2001aa8:	46b5      	mov	sp, r6
 2001aaa:	60fe      	str	r6, [r7, #12]
 2001aac:	2800      	cmp	r0, #0
 2001aae:	d02b      	beq.n	2001b08 <fifoGetDatamsg+0xc4>
 2001ab0:	2600      	movs	r6, #0
 2001ab2:	46b0      	mov	r8, r6
 2001ab4:	4689      	mov	r9, r1
 2001ab6:	4641      	mov	r1, r8
 2001ab8:	46d4      	mov	ip, sl
 2001aba:	4e21      	ldr	r6, [pc, #132]	; (2001b40 <fifoGetDatamsg+0xfc>)
 2001abc:	4692      	mov	sl, r2
 2001abe:	6039      	str	r1, [r7, #0]
 2001ac0:	466a      	mov	r2, sp
 2001ac2:	e009      	b.n	2001ad8 <fifoGetDatamsg+0x94>
 2001ac4:	683b      	ldr	r3, [r7, #0]
 2001ac6:	3204      	adds	r2, #4
 2001ac8:	3301      	adds	r3, #1
 2001aca:	603b      	str	r3, [r7, #0]
 2001acc:	6838      	ldr	r0, [r7, #0]
 2001ace:	687b      	ldr	r3, [r7, #4]
 2001ad0:	4583      	cmp	fp, r0
 2001ad2:	dd29      	ble.n	2001b28 <fifoGetDatamsg+0xe4>
 2001ad4:	00d9      	lsls	r1, r3, #3
 2001ad6:	468c      	mov	ip, r1
 2001ad8:	00d8      	lsls	r0, r3, #3
 2001ada:	3004      	adds	r0, #4
 2001adc:	5820      	ldr	r0, [r4, r0]
 2001ade:	6010      	str	r0, [r2, #0]
 2001ae0:	4660      	mov	r0, ip
 2001ae2:	5821      	ldr	r1, [r4, r0]
 2001ae4:	5025      	str	r5, [r4, r0]
 2001ae6:	4029      	ands	r1, r5
 2001ae8:	6079      	str	r1, [r7, #4]
 2001aea:	8971      	ldrh	r1, [r6, #10]
 2001aec:	1c18      	adds	r0, r3, #0
 2001aee:	00c9      	lsls	r1, r1, #3
 2001af0:	4028      	ands	r0, r5
 2001af2:	5060      	str	r0, [r4, r1]
 2001af4:	8173      	strh	r3, [r6, #10]
 2001af6:	6833      	ldr	r3, [r6, #0]
 2001af8:	6879      	ldr	r1, [r7, #4]
 2001afa:	3301      	adds	r3, #1
 2001afc:	6033      	str	r3, [r6, #0]
 2001afe:	42a9      	cmp	r1, r5
 2001b00:	d1e0      	bne.n	2001ac4 <fifoGetDatamsg+0x80>
 2001b02:	4649      	mov	r1, r9
 2001b04:	4652      	mov	r2, sl
 2001b06:	1c2b      	adds	r3, r5, #0
 2001b08:	4c09      	ldr	r4, [pc, #36]	; (2001b30 <fifoGetDatamsg+0xec>)
 2001b0a:	697e      	ldr	r6, [r7, #20]
 2001b0c:	53a3      	strh	r3, [r4, r6]
 2001b0e:	693c      	ldr	r4, [r7, #16]
 2001b10:	428c      	cmp	r4, r1
 2001b12:	dd00      	ble.n	2001b16 <fifoGetDatamsg+0xd2>
 2001b14:	1c0c      	adds	r4, r1, #0
 2001b16:	1c10      	adds	r0, r2, #0
 2001b18:	68f9      	ldr	r1, [r7, #12]
 2001b1a:	1c22      	adds	r2, r4, #0
 2001b1c:	f001 f8d6 	bl	2002ccc <memcpy>
 2001b20:	4b05      	ldr	r3, [pc, #20]	; (2001b38 <fifoGetDatamsg+0xf4>)
 2001b22:	68b8      	ldr	r0, [r7, #8]
 2001b24:	6018      	str	r0, [r3, #0]
 2001b26:	e799      	b.n	2001a5c <fifoGetDatamsg+0x18>
 2001b28:	4649      	mov	r1, r9
 2001b2a:	4652      	mov	r2, sl
 2001b2c:	e7ec      	b.n	2001b08 <fifoGetDatamsg+0xc4>
 2001b2e:	46c0      	nop			; (mov r8, r8)
 2001b30:	02010fe8 	.word	0x02010fe8
 2001b34:	0000ffff 	.word	0x0000ffff
 2001b38:	04000208 	.word	0x04000208
 2001b3c:	020106e8 	.word	0x020106e8
 2001b40:	0200e5c4 	.word	0x0200e5c4

02001b44 <fifoInternalRecvInterrupt>:
 2001b44:	b5f0      	push	{r4, r5, r6, r7, lr}
 2001b46:	465f      	mov	r7, fp
 2001b48:	4656      	mov	r6, sl
 2001b4a:	464d      	mov	r5, r9
 2001b4c:	4644      	mov	r4, r8
 2001b4e:	b4f0      	push	{r4, r5, r6, r7}
 2001b50:	4bc1      	ldr	r3, [pc, #772]	; (2001e58 <fifoInternalRecvInterrupt+0x314>)
 2001b52:	4ac2      	ldr	r2, [pc, #776]	; (2001e5c <fifoInternalRecvInterrupt+0x318>)
 2001b54:	6819      	ldr	r1, [r3, #0]
 2001b56:	48c2      	ldr	r0, [pc, #776]	; (2001e60 <fifoInternalRecvInterrupt+0x31c>)
 2001b58:	400a      	ands	r2, r1
 2001b5a:	601a      	str	r2, [r3, #0]
 2001b5c:	49c1      	ldr	r1, [pc, #772]	; (2001e64 <fifoInternalRecvInterrupt+0x320>)
 2001b5e:	2301      	movs	r3, #1
 2001b60:	6003      	str	r3, [r0, #0]
 2001b62:	880a      	ldrh	r2, [r1, #0]
 2001b64:	2380      	movs	r3, #128	; 0x80
 2001b66:	005b      	lsls	r3, r3, #1
 2001b68:	b085      	sub	sp, #20
 2001b6a:	421a      	tst	r2, r3
 2001b6c:	d13e      	bne.n	2001bec <fifoInternalRecvInterrupt+0xa8>
 2001b6e:	2282      	movs	r2, #130	; 0x82
 2001b70:	04d6      	lsls	r6, r2, #19
 2001b72:	46b0      	mov	r8, r6
 2001b74:	2700      	movs	r7, #0
 2001b76:	2601      	movs	r6, #1
 2001b78:	4cbb      	ldr	r4, [pc, #748]	; (2001e68 <fifoInternalRecvInterrupt+0x324>)
 2001b7a:	4dbc      	ldr	r5, [pc, #752]	; (2001e6c <fifoInternalRecvInterrupt+0x328>)
 2001b7c:	46bb      	mov	fp, r7
 2001b7e:	4abc      	ldr	r2, [pc, #752]	; (2001e70 <fifoInternalRecvInterrupt+0x32c>)
 2001b80:	46b1      	mov	r9, r6
 2001b82:	468a      	mov	sl, r1
 2001b84:	e011      	b.n	2001baa <fifoInternalRecvInterrupt+0x66>
 2001b86:	89e1      	ldrh	r1, [r4, #14]
 2001b88:	89e6      	ldrh	r6, [r4, #14]
 2001b8a:	4fba      	ldr	r7, [pc, #744]	; (2001e74 <fifoInternalRecvInterrupt+0x330>)
 2001b8c:	00f6      	lsls	r6, r6, #3
 2001b8e:	59ae      	ldr	r6, [r5, r6]
 2001b90:	00c9      	lsls	r1, r1, #3
 2001b92:	403e      	ands	r6, r7
 2001b94:	431e      	orrs	r6, r3
 2001b96:	506e      	str	r6, [r5, r1]
 2001b98:	81e3      	strh	r3, [r4, #14]
 2001b9a:	4649      	mov	r1, r9
 2001b9c:	6001      	str	r1, [r0, #0]
 2001b9e:	4656      	mov	r6, sl
 2001ba0:	2780      	movs	r7, #128	; 0x80
 2001ba2:	8833      	ldrh	r3, [r6, #0]
 2001ba4:	007f      	lsls	r7, r7, #1
 2001ba6:	423b      	tst	r3, r7
 2001ba8:	d120      	bne.n	2001bec <fifoInternalRecvInterrupt+0xa8>
 2001baa:	4641      	mov	r1, r8
 2001bac:	465b      	mov	r3, fp
 2001bae:	680f      	ldr	r7, [r1, #0]
 2001bb0:	6003      	str	r3, [r0, #0]
 2001bb2:	8923      	ldrh	r3, [r4, #8]
 2001bb4:	8921      	ldrh	r1, [r4, #8]
 2001bb6:	005e      	lsls	r6, r3, #1
 2001bb8:	00c9      	lsls	r1, r1, #3
 2001bba:	5869      	ldr	r1, [r5, r1]
 2001bbc:	46b4      	mov	ip, r6
 2001bbe:	0409      	lsls	r1, r1, #16
 2001bc0:	0c09      	lsrs	r1, r1, #16
 2001bc2:	8121      	strh	r1, [r4, #8]
 2001bc4:	00d9      	lsls	r1, r3, #3
 2001bc6:	506a      	str	r2, [r5, r1]
 2001bc8:	6826      	ldr	r6, [r4, #0]
 2001bca:	3e01      	subs	r6, #1
 2001bcc:	6026      	str	r6, [r4, #0]
 2001bce:	4293      	cmp	r3, r2
 2001bd0:	d0e3      	beq.n	2001b9a <fifoInternalRecvInterrupt+0x56>
 2001bd2:	4666      	mov	r6, ip
 2001bd4:	3601      	adds	r6, #1
 2001bd6:	00b6      	lsls	r6, r6, #2
 2001bd8:	51af      	str	r7, [r5, r6]
 2001bda:	586e      	ldr	r6, [r5, r1]
 2001bdc:	4316      	orrs	r6, r2
 2001bde:	506e      	str	r6, [r5, r1]
 2001be0:	89a1      	ldrh	r1, [r4, #12]
 2001be2:	4291      	cmp	r1, r2
 2001be4:	d1cf      	bne.n	2001b86 <fifoInternalRecvInterrupt+0x42>
 2001be6:	81a3      	strh	r3, [r4, #12]
 2001be8:	81e3      	strh	r3, [r4, #14]
 2001bea:	e7d6      	b.n	2001b9a <fifoInternalRecvInterrupt+0x56>
 2001bec:	499c      	ldr	r1, [pc, #624]	; (2001e60 <fifoInternalRecvInterrupt+0x31c>)
 2001bee:	2300      	movs	r3, #0
 2001bf0:	4a99      	ldr	r2, [pc, #612]	; (2001e58 <fifoInternalRecvInterrupt+0x314>)
 2001bf2:	600b      	str	r3, [r1, #0]
 2001bf4:	6810      	ldr	r0, [r2, #0]
 2001bf6:	2380      	movs	r3, #128	; 0x80
 2001bf8:	02db      	lsls	r3, r3, #11
 2001bfa:	4303      	orrs	r3, r0
 2001bfc:	489e      	ldr	r0, [pc, #632]	; (2001e78 <fifoInternalRecvInterrupt+0x334>)
 2001bfe:	6013      	str	r3, [r2, #0]
 2001c00:	6843      	ldr	r3, [r0, #4]
 2001c02:	4680      	mov	r8, r0
 2001c04:	2b00      	cmp	r3, #0
 2001c06:	d000      	beq.n	2001c0a <fifoInternalRecvInterrupt+0xc6>
 2001c08:	e0f4      	b.n	2001df4 <fifoInternalRecvInterrupt+0x2b0>
 2001c0a:	4c97      	ldr	r4, [pc, #604]	; (2001e68 <fifoInternalRecvInterrupt+0x324>)
 2001c0c:	4e98      	ldr	r6, [pc, #608]	; (2001e70 <fifoInternalRecvInterrupt+0x32c>)
 2001c0e:	89a3      	ldrh	r3, [r4, #12]
 2001c10:	42b3      	cmp	r3, r6
 2001c12:	d100      	bne.n	2001c16 <fifoInternalRecvInterrupt+0xd2>
 2001c14:	e0ee      	b.n	2001df4 <fifoInternalRecvInterrupt+0x2b0>
 2001c16:	2301      	movs	r3, #1
 2001c18:	27c0      	movs	r7, #192	; 0xc0
 2001c1a:	6043      	str	r3, [r0, #4]
 2001c1c:	4d93      	ldr	r5, [pc, #588]	; (2001e6c <fifoInternalRecvInterrupt+0x328>)
 2001c1e:	600b      	str	r3, [r1, #0]
 2001c20:	053f      	lsls	r7, r7, #20
 2001c22:	e032      	b.n	2001c8a <fifoInternalRecvInterrupt+0x146>
 2001c24:	4995      	ldr	r1, [pc, #596]	; (2001e7c <fifoInternalRecvInterrupt+0x338>)
 2001c26:	4890      	ldr	r0, [pc, #576]	; (2001e68 <fifoInternalRecvInterrupt+0x324>)
 2001c28:	400b      	ands	r3, r1
 2001c2a:	2180      	movs	r1, #128	; 0x80
 2001c2c:	0489      	lsls	r1, r1, #18
 2001c2e:	430b      	orrs	r3, r1
 2001c30:	469c      	mov	ip, r3
 2001c32:	4b8b      	ldr	r3, [pc, #556]	; (2001e60 <fifoInternalRecvInterrupt+0x31c>)
 2001c34:	2100      	movs	r1, #0
 2001c36:	6019      	str	r1, [r3, #0]
 2001c38:	00d1      	lsls	r1, r2, #3
 2001c3a:	586b      	ldr	r3, [r5, r1]
 2001c3c:	041b      	lsls	r3, r3, #16
 2001c3e:	0c1b      	lsrs	r3, r3, #16
 2001c40:	8183      	strh	r3, [r0, #12]
 2001c42:	464b      	mov	r3, r9
 2001c44:	009b      	lsls	r3, r3, #2
 2001c46:	469a      	mov	sl, r3
 2001c48:	4b8d      	ldr	r3, [pc, #564]	; (2001e80 <fifoInternalRecvInterrupt+0x33c>)
 2001c4a:	4650      	mov	r0, sl
 2001c4c:	581b      	ldr	r3, [r3, r0]
 2001c4e:	2b00      	cmp	r3, #0
 2001c50:	d100      	bne.n	2001c54 <fifoInternalRecvInterrupt+0x110>
 2001c52:	e164      	b.n	2001f1e <fifoInternalRecvInterrupt+0x3da>
 2001c54:	42b2      	cmp	r2, r6
 2001c56:	d100      	bne.n	2001c5a <fifoInternalRecvInterrupt+0x116>
 2001c58:	e152      	b.n	2001f00 <fifoInternalRecvInterrupt+0x3bc>
 2001c5a:	4658      	mov	r0, fp
 2001c5c:	0081      	lsls	r1, r0, #2
 2001c5e:	506e      	str	r6, [r5, r1]
 2001c60:	8961      	ldrh	r1, [r4, #10]
 2001c62:	1c10      	adds	r0, r2, #0
 2001c64:	4030      	ands	r0, r6
 2001c66:	00c9      	lsls	r1, r1, #3
 2001c68:	5068      	str	r0, [r5, r1]
 2001c6a:	8162      	strh	r2, [r4, #10]
 2001c6c:	6822      	ldr	r2, [r4, #0]
 2001c6e:	2101      	movs	r1, #1
 2001c70:	3201      	adds	r2, #1
 2001c72:	6022      	str	r2, [r4, #0]
 2001c74:	4a7a      	ldr	r2, [pc, #488]	; (2001e60 <fifoInternalRecvInterrupt+0x31c>)
 2001c76:	4650      	mov	r0, sl
 2001c78:	6011      	str	r1, [r2, #0]
 2001c7a:	4a82      	ldr	r2, [pc, #520]	; (2001e84 <fifoInternalRecvInterrupt+0x340>)
 2001c7c:	5811      	ldr	r1, [r2, r0]
 2001c7e:	4660      	mov	r0, ip
 2001c80:	4798      	blx	r3
 2001c82:	89a3      	ldrh	r3, [r4, #12]
 2001c84:	42b3      	cmp	r3, r6
 2001c86:	d100      	bne.n	2001c8a <fifoInternalRecvInterrupt+0x146>
 2001c88:	e0af      	b.n	2001dea <fifoInternalRecvInterrupt+0x2a6>
 2001c8a:	89a2      	ldrh	r2, [r4, #12]
 2001c8c:	0051      	lsls	r1, r2, #1
 2001c8e:	468b      	mov	fp, r1
 2001c90:	3101      	adds	r1, #1
 2001c92:	008b      	lsls	r3, r1, #2
 2001c94:	9303      	str	r3, [sp, #12]
 2001c96:	58eb      	ldr	r3, [r5, r3]
 2001c98:	1c18      	adds	r0, r3, #0
 2001c9a:	4038      	ands	r0, r7
 2001c9c:	4684      	mov	ip, r0
 2001c9e:	45bc      	cmp	ip, r7
 2001ca0:	d100      	bne.n	2001ca4 <fifoInternalRecvInterrupt+0x160>
 2001ca2:	e0ae      	b.n	2001e02 <fifoInternalRecvInterrupt+0x2be>
 2001ca4:	0f18      	lsrs	r0, r3, #28
 2001ca6:	4681      	mov	r9, r0
 2001ca8:	0118      	lsls	r0, r3, #4
 2001caa:	d4bb      	bmi.n	2001c24 <fifoInternalRecvInterrupt+0xe0>
 2001cac:	2080      	movs	r0, #128	; 0x80
 2001cae:	04c0      	lsls	r0, r0, #19
 2001cb0:	4584      	cmp	ip, r0
 2001cb2:	d100      	bne.n	2001cb6 <fifoInternalRecvInterrupt+0x172>
 2001cb4:	e0f6      	b.n	2001ea4 <fifoInternalRecvInterrupt+0x360>
 2001cb6:	4660      	mov	r0, ip
 2001cb8:	2800      	cmp	r0, #0
 2001cba:	d000      	beq.n	2001cbe <fifoInternalRecvInterrupt+0x17a>
 2001cbc:	e0b6      	b.n	2001e2c <fifoInternalRecvInterrupt+0x2e8>
 2001cbe:	4872      	ldr	r0, [pc, #456]	; (2001e88 <fifoInternalRecvInterrupt+0x344>)
 2001cc0:	9201      	str	r2, [sp, #4]
 2001cc2:	4018      	ands	r0, r3
 2001cc4:	1cc3      	adds	r3, r0, #3
 2001cc6:	109b      	asrs	r3, r3, #2
 2001cc8:	469a      	mov	sl, r3
 2001cca:	2b00      	cmp	r3, #0
 2001ccc:	d021      	beq.n	2001d12 <fifoInternalRecvInterrupt+0x1ce>
 2001cce:	00d3      	lsls	r3, r2, #3
 2001cd0:	58eb      	ldr	r3, [r5, r3]
 2001cd2:	46dc      	mov	ip, fp
 2001cd4:	4033      	ands	r3, r6
 2001cd6:	42b3      	cmp	r3, r6
 2001cd8:	d100      	bne.n	2001cdc <fifoInternalRecvInterrupt+0x198>
 2001cda:	e086      	b.n	2001dea <fifoInternalRecvInterrupt+0x2a6>
 2001cdc:	1c13      	adds	r3, r2, #0
 2001cde:	2100      	movs	r1, #0
 2001ce0:	4652      	mov	r2, sl
 2001ce2:	9003      	str	r0, [sp, #12]
 2001ce4:	469a      	mov	sl, r3
 2001ce6:	e006      	b.n	2001cf6 <fifoInternalRecvInterrupt+0x1b2>
 2001ce8:	0058      	lsls	r0, r3, #1
 2001cea:	00db      	lsls	r3, r3, #3
 2001cec:	58eb      	ldr	r3, [r5, r3]
 2001cee:	4684      	mov	ip, r0
 2001cf0:	4033      	ands	r3, r6
 2001cf2:	42b3      	cmp	r3, r6
 2001cf4:	d079      	beq.n	2001dea <fifoInternalRecvInterrupt+0x2a6>
 2001cf6:	4660      	mov	r0, ip
 2001cf8:	0083      	lsls	r3, r0, #2
 2001cfa:	58eb      	ldr	r3, [r5, r3]
 2001cfc:	3101      	adds	r1, #1
 2001cfe:	4033      	ands	r3, r6
 2001d00:	428a      	cmp	r2, r1
 2001d02:	dcf1      	bgt.n	2001ce8 <fifoInternalRecvInterrupt+0x1a4>
 2001d04:	46d4      	mov	ip, sl
 2001d06:	4692      	mov	sl, r2
 2001d08:	9301      	str	r3, [sp, #4]
 2001d0a:	9803      	ldr	r0, [sp, #12]
 2001d0c:	4662      	mov	r2, ip
 2001d0e:	458a      	cmp	sl, r1
 2001d10:	d16b      	bne.n	2001dea <fifoInternalRecvInterrupt+0x2a6>
 2001d12:	4b53      	ldr	r3, [pc, #332]	; (2001e60 <fifoInternalRecvInterrupt+0x31c>)
 2001d14:	2100      	movs	r1, #0
 2001d16:	6019      	str	r1, [r3, #0]
 2001d18:	9b01      	ldr	r3, [sp, #4]
 2001d1a:	9901      	ldr	r1, [sp, #4]
 2001d1c:	005b      	lsls	r3, r3, #1
 2001d1e:	00c9      	lsls	r1, r1, #3
 2001d20:	9303      	str	r3, [sp, #12]
 2001d22:	586b      	ldr	r3, [r5, r1]
 2001d24:	0419      	lsls	r1, r3, #16
 2001d26:	0c09      	lsrs	r1, r1, #16
 2001d28:	81a1      	strh	r1, [r4, #12]
 2001d2a:	4659      	mov	r1, fp
 2001d2c:	0089      	lsls	r1, r1, #2
 2001d2e:	586b      	ldr	r3, [r5, r1]
 2001d30:	468b      	mov	fp, r1
 2001d32:	1c19      	adds	r1, r3, #0
 2001d34:	4031      	ands	r1, r6
 2001d36:	468c      	mov	ip, r1
 2001d38:	42b2      	cmp	r2, r6
 2001d3a:	d100      	bne.n	2001d3e <fifoInternalRecvInterrupt+0x1fa>
 2001d3c:	e10b      	b.n	2001f56 <fifoInternalRecvInterrupt+0x412>
 2001d3e:	465b      	mov	r3, fp
 2001d40:	50ee      	str	r6, [r5, r3]
 2001d42:	8961      	ldrh	r1, [r4, #10]
 2001d44:	1c13      	adds	r3, r2, #0
 2001d46:	4033      	ands	r3, r6
 2001d48:	00c9      	lsls	r1, r1, #3
 2001d4a:	506b      	str	r3, [r5, r1]
 2001d4c:	8162      	strh	r2, [r4, #10]
 2001d4e:	6822      	ldr	r2, [r4, #0]
 2001d50:	4661      	mov	r1, ip
 2001d52:	3201      	adds	r2, #1
 2001d54:	6022      	str	r2, [r4, #0]
 2001d56:	00c9      	lsls	r1, r1, #3
 2001d58:	586a      	ldr	r2, [r5, r1]
 2001d5a:	4032      	ands	r2, r6
 2001d5c:	4693      	mov	fp, r2
 2001d5e:	22a0      	movs	r2, #160	; 0xa0
 2001d60:	05d2      	lsls	r2, r2, #23
 2001d62:	465b      	mov	r3, fp
 2001d64:	4313      	orrs	r3, r2
 2001d66:	4a49      	ldr	r2, [pc, #292]	; (2001e8c <fifoInternalRecvInterrupt+0x348>)
 2001d68:	4002      	ands	r2, r0
 2001d6a:	0412      	lsls	r2, r2, #16
 2001d6c:	431a      	orrs	r2, r3
 2001d6e:	4b48      	ldr	r3, [pc, #288]	; (2001e90 <fifoInternalRecvInterrupt+0x34c>)
 2001d70:	506a      	str	r2, [r5, r1]
 2001d72:	1c1a      	adds	r2, r3, #0
 2001d74:	4649      	mov	r1, r9
 2001d76:	9b03      	ldr	r3, [sp, #12]
 2001d78:	0089      	lsls	r1, r1, #2
 2001d7a:	468a      	mov	sl, r1
 2001d7c:	0099      	lsls	r1, r3, #2
 2001d7e:	586b      	ldr	r3, [r5, r1]
 2001d80:	4452      	add	r2, sl
 2001d82:	4333      	orrs	r3, r6
 2001d84:	506b      	str	r3, [r5, r1]
 2001d86:	8811      	ldrh	r1, [r2, #0]
 2001d88:	42b1      	cmp	r1, r6
 2001d8a:	d100      	bne.n	2001d8e <fifoInternalRecvInterrupt+0x24a>
 2001d8c:	e0e5      	b.n	2001f5a <fifoInternalRecvInterrupt+0x416>
 2001d8e:	8853      	ldrh	r3, [r2, #2]
 2001d90:	9303      	str	r3, [sp, #12]
 2001d92:	8851      	ldrh	r1, [r2, #2]
 2001d94:	00c9      	lsls	r1, r1, #3
 2001d96:	5869      	ldr	r1, [r5, r1]
 2001d98:	468b      	mov	fp, r1
 2001d9a:	4936      	ldr	r1, [pc, #216]	; (2001e74 <fifoInternalRecvInterrupt+0x330>)
 2001d9c:	465b      	mov	r3, fp
 2001d9e:	4019      	ands	r1, r3
 2001da0:	4663      	mov	r3, ip
 2001da2:	4319      	orrs	r1, r3
 2001da4:	9b03      	ldr	r3, [sp, #12]
 2001da6:	00db      	lsls	r3, r3, #3
 2001da8:	50e9      	str	r1, [r5, r3]
 2001daa:	9901      	ldr	r1, [sp, #4]
 2001dac:	040b      	lsls	r3, r1, #16
 2001dae:	0c1b      	lsrs	r3, r3, #16
 2001db0:	8053      	strh	r3, [r2, #2]
 2001db2:	4b38      	ldr	r3, [pc, #224]	; (2001e94 <fifoInternalRecvInterrupt+0x350>)
 2001db4:	4652      	mov	r2, sl
 2001db6:	589b      	ldr	r3, [r3, r2]
 2001db8:	2b00      	cmp	r3, #0
 2001dba:	d100      	bne.n	2001dbe <fifoInternalRecvInterrupt+0x27a>
 2001dbc:	e761      	b.n	2001c82 <fifoInternalRecvInterrupt+0x13e>
 2001dbe:	4934      	ldr	r1, [pc, #208]	; (2001e90 <fifoInternalRecvInterrupt+0x34c>)
 2001dc0:	5a89      	ldrh	r1, [r1, r2]
 2001dc2:	4a27      	ldr	r2, [pc, #156]	; (2001e60 <fifoInternalRecvInterrupt+0x31c>)
 2001dc4:	468b      	mov	fp, r1
 2001dc6:	2101      	movs	r1, #1
 2001dc8:	6011      	str	r1, [r2, #0]
 2001dca:	4933      	ldr	r1, [pc, #204]	; (2001e98 <fifoInternalRecvInterrupt+0x354>)
 2001dcc:	4652      	mov	r2, sl
 2001dce:	5889      	ldr	r1, [r1, r2]
 2001dd0:	4798      	blx	r3
 2001dd2:	482f      	ldr	r0, [pc, #188]	; (2001e90 <fifoInternalRecvInterrupt+0x34c>)
 2001dd4:	4651      	mov	r1, sl
 2001dd6:	5a43      	ldrh	r3, [r0, r1]
 2001dd8:	459b      	cmp	fp, r3
 2001dda:	d000      	beq.n	2001dde <fifoInternalRecvInterrupt+0x29a>
 2001ddc:	e751      	b.n	2001c82 <fifoInternalRecvInterrupt+0x13e>
 2001dde:	4648      	mov	r0, r9
 2001de0:	2100      	movs	r1, #0
 2001de2:	2200      	movs	r2, #0
 2001de4:	f7ff fe2e 	bl	2001a44 <fifoGetDatamsg>
 2001de8:	e74b      	b.n	2001c82 <fifoInternalRecvInterrupt+0x13e>
 2001dea:	4a1d      	ldr	r2, [pc, #116]	; (2001e60 <fifoInternalRecvInterrupt+0x31c>)
 2001dec:	2300      	movs	r3, #0
 2001dee:	6013      	str	r3, [r2, #0]
 2001df0:	4642      	mov	r2, r8
 2001df2:	6053      	str	r3, [r2, #4]
 2001df4:	b005      	add	sp, #20
 2001df6:	bc3c      	pop	{r2, r3, r4, r5}
 2001df8:	4690      	mov	r8, r2
 2001dfa:	4699      	mov	r9, r3
 2001dfc:	46a2      	mov	sl, r4
 2001dfe:	46ab      	mov	fp, r5
 2001e00:	bdf0      	pop	{r4, r5, r6, r7, pc}
 2001e02:	481e      	ldr	r0, [pc, #120]	; (2001e7c <fifoInternalRecvInterrupt+0x338>)
 2001e04:	4a25      	ldr	r2, [pc, #148]	; (2001e9c <fifoInternalRecvInterrupt+0x358>)
 2001e06:	4003      	ands	r3, r0
 2001e08:	4293      	cmp	r3, r2
 2001e0a:	d000      	beq.n	2001e0e <fifoInternalRecvInterrupt+0x2ca>
 2001e0c:	e739      	b.n	2001c82 <fifoInternalRecvInterrupt+0x13e>
 2001e0e:	2380      	movs	r3, #128	; 0x80
 2001e10:	4923      	ldr	r1, [pc, #140]	; (2001ea0 <fifoInternalRecvInterrupt+0x35c>)
 2001e12:	005b      	lsls	r3, r3, #1
 2001e14:	800b      	strh	r3, [r1, #0]
 2001e16:	4a22      	ldr	r2, [pc, #136]	; (2001ea0 <fifoInternalRecvInterrupt+0x35c>)
 2001e18:	200f      	movs	r0, #15
 2001e1a:	8813      	ldrh	r3, [r2, #0]
 2001e1c:	4003      	ands	r3, r0
 2001e1e:	2b01      	cmp	r3, #1
 2001e20:	d1f9      	bne.n	2001e16 <fifoInternalRecvInterrupt+0x2d2>
 2001e22:	2300      	movs	r3, #0
 2001e24:	8013      	strh	r3, [r2, #0]
 2001e26:	f000 ebb4 	blx	2002590 <swiSoftReset>
 2001e2a:	e72a      	b.n	2001c82 <fifoInternalRecvInterrupt+0x13e>
 2001e2c:	00d3      	lsls	r3, r2, #3
 2001e2e:	58eb      	ldr	r3, [r5, r3]
 2001e30:	480d      	ldr	r0, [pc, #52]	; (2001e68 <fifoInternalRecvInterrupt+0x324>)
 2001e32:	041b      	lsls	r3, r3, #16
 2001e34:	0c1b      	lsrs	r3, r3, #16
 2001e36:	8183      	strh	r3, [r0, #12]
 2001e38:	42b2      	cmp	r2, r6
 2001e3a:	d100      	bne.n	2001e3e <fifoInternalRecvInterrupt+0x2fa>
 2001e3c:	e089      	b.n	2001f52 <fifoInternalRecvInterrupt+0x40e>
 2001e3e:	4659      	mov	r1, fp
 2001e40:	008b      	lsls	r3, r1, #2
 2001e42:	50ee      	str	r6, [r5, r3]
 2001e44:	8963      	ldrh	r3, [r4, #10]
 2001e46:	1c11      	adds	r1, r2, #0
 2001e48:	00db      	lsls	r3, r3, #3
 2001e4a:	4031      	ands	r1, r6
 2001e4c:	50e9      	str	r1, [r5, r3]
 2001e4e:	8162      	strh	r2, [r4, #10]
 2001e50:	6823      	ldr	r3, [r4, #0]
 2001e52:	3301      	adds	r3, #1
 2001e54:	6023      	str	r3, [r4, #0]
 2001e56:	e714      	b.n	2001c82 <fifoInternalRecvInterrupt+0x13e>
 2001e58:	04000210 	.word	0x04000210
 2001e5c:	fffbffff 	.word	0xfffbffff
 2001e60:	04000208 	.word	0x04000208
 2001e64:	04000184 	.word	0x04000184
 2001e68:	0200e5c4 	.word	0x0200e5c4
 2001e6c:	020106e8 	.word	0x020106e8
 2001e70:	0000ffff 	.word	0x0000ffff
 2001e74:	ffff0000 	.word	0xffff0000
 2001e78:	0200f340 	.word	0x0200f340
 2001e7c:	00ffffff 	.word	0x00ffffff
 2001e80:	02010f28 	.word	0x02010f28
 2001e84:	02011028 	.word	0x02011028
 2001e88:	01ffffff 	.word	0x01ffffff
 2001e8c:	00000fff 	.word	0x00000fff
 2001e90:	02010fe8 	.word	0x02010fe8
 2001e94:	02011068 	.word	0x02011068
 2001e98:	020106a8 	.word	0x020106a8
 2001e9c:	0004000c 	.word	0x0004000c
 2001ea0:	04000180 	.word	0x04000180
 2001ea4:	0198      	lsls	r0, r3, #6
 2001ea6:	d42d      	bmi.n	2001f04 <fifoInternalRecvInterrupt+0x3c0>
 2001ea8:	4839      	ldr	r0, [pc, #228]	; (2001f90 <fifoInternalRecvInterrupt+0x44c>)
 2001eaa:	4018      	ands	r0, r3
 2001eac:	9003      	str	r0, [sp, #12]
 2001eae:	2300      	movs	r3, #0
 2001eb0:	469c      	mov	ip, r3
 2001eb2:	4b38      	ldr	r3, [pc, #224]	; (2001f94 <fifoInternalRecvInterrupt+0x450>)
 2001eb4:	4660      	mov	r0, ip
 2001eb6:	6018      	str	r0, [r3, #0]
 2001eb8:	465b      	mov	r3, fp
 2001eba:	009b      	lsls	r3, r3, #2
 2001ebc:	469b      	mov	fp, r3
 2001ebe:	58eb      	ldr	r3, [r5, r3]
 2001ec0:	4648      	mov	r0, r9
 2001ec2:	041b      	lsls	r3, r3, #16
 2001ec4:	0c1b      	lsrs	r3, r3, #16
 2001ec6:	81a3      	strh	r3, [r4, #12]
 2001ec8:	4b33      	ldr	r3, [pc, #204]	; (2001f98 <fifoInternalRecvInterrupt+0x454>)
 2001eca:	0080      	lsls	r0, r0, #2
 2001ecc:	581b      	ldr	r3, [r3, r0]
 2001ece:	4682      	mov	sl, r0
 2001ed0:	2b00      	cmp	r3, #0
 2001ed2:	d04b      	beq.n	2001f6c <fifoInternalRecvInterrupt+0x428>
 2001ed4:	42b2      	cmp	r2, r6
 2001ed6:	d047      	beq.n	2001f68 <fifoInternalRecvInterrupt+0x424>
 2001ed8:	4659      	mov	r1, fp
 2001eda:	506e      	str	r6, [r5, r1]
 2001edc:	8961      	ldrh	r1, [r4, #10]
 2001ede:	1c10      	adds	r0, r2, #0
 2001ee0:	4030      	ands	r0, r6
 2001ee2:	00c9      	lsls	r1, r1, #3
 2001ee4:	5068      	str	r0, [r5, r1]
 2001ee6:	8162      	strh	r2, [r4, #10]
 2001ee8:	6822      	ldr	r2, [r4, #0]
 2001eea:	2101      	movs	r1, #1
 2001eec:	3201      	adds	r2, #1
 2001eee:	6022      	str	r2, [r4, #0]
 2001ef0:	4a28      	ldr	r2, [pc, #160]	; (2001f94 <fifoInternalRecvInterrupt+0x450>)
 2001ef2:	4650      	mov	r0, sl
 2001ef4:	6011      	str	r1, [r2, #0]
 2001ef6:	4a29      	ldr	r2, [pc, #164]	; (2001f9c <fifoInternalRecvInterrupt+0x458>)
 2001ef8:	5811      	ldr	r1, [r2, r0]
 2001efa:	9803      	ldr	r0, [sp, #12]
 2001efc:	4798      	blx	r3
 2001efe:	e6c0      	b.n	2001c82 <fifoInternalRecvInterrupt+0x13e>
 2001f00:	46db      	mov	fp, fp
 2001f02:	e6aa      	b.n	2001c5a <fifoInternalRecvInterrupt+0x116>
 2001f04:	00d2      	lsls	r2, r2, #3
 2001f06:	58aa      	ldr	r2, [r5, r2]
 2001f08:	4032      	ands	r2, r6
 2001f0a:	42b2      	cmp	r2, r6
 2001f0c:	d100      	bne.n	2001f10 <fifoInternalRecvInterrupt+0x3cc>
 2001f0e:	e76c      	b.n	2001dea <fifoInternalRecvInterrupt+0x2a6>
 2001f10:	0051      	lsls	r1, r2, #1
 2001f12:	468b      	mov	fp, r1
 2001f14:	3101      	adds	r1, #1
 2001f16:	008b      	lsls	r3, r1, #2
 2001f18:	58eb      	ldr	r3, [r5, r3]
 2001f1a:	9303      	str	r3, [sp, #12]
 2001f1c:	e7c7      	b.n	2001eae <fifoInternalRecvInterrupt+0x36a>
 2001f1e:	9b03      	ldr	r3, [sp, #12]
 2001f20:	4660      	mov	r0, ip
 2001f22:	50e8      	str	r0, [r5, r3]
 2001f24:	5868      	ldr	r0, [r5, r1]
 2001f26:	4b1e      	ldr	r3, [pc, #120]	; (2001fa0 <fifoInternalRecvInterrupt+0x45c>)
 2001f28:	4330      	orrs	r0, r6
 2001f2a:	4453      	add	r3, sl
 2001f2c:	5068      	str	r0, [r5, r1]
 2001f2e:	8819      	ldrh	r1, [r3, #0]
 2001f30:	42b1      	cmp	r1, r6
 2001f32:	d027      	beq.n	2001f84 <fifoInternalRecvInterrupt+0x440>
 2001f34:	8859      	ldrh	r1, [r3, #2]
 2001f36:	468a      	mov	sl, r1
 2001f38:	8858      	ldrh	r0, [r3, #2]
 2001f3a:	00c0      	lsls	r0, r0, #3
 2001f3c:	5828      	ldr	r0, [r5, r0]
 2001f3e:	4684      	mov	ip, r0
 2001f40:	4818      	ldr	r0, [pc, #96]	; (2001fa4 <fifoInternalRecvInterrupt+0x460>)
 2001f42:	4661      	mov	r1, ip
 2001f44:	4008      	ands	r0, r1
 2001f46:	4651      	mov	r1, sl
 2001f48:	4310      	orrs	r0, r2
 2001f4a:	00c9      	lsls	r1, r1, #3
 2001f4c:	5068      	str	r0, [r5, r1]
 2001f4e:	805a      	strh	r2, [r3, #2]
 2001f50:	e697      	b.n	2001c82 <fifoInternalRecvInterrupt+0x13e>
 2001f52:	46db      	mov	fp, fp
 2001f54:	e773      	b.n	2001e3e <fifoInternalRecvInterrupt+0x2fa>
 2001f56:	46db      	mov	fp, fp
 2001f58:	e6f1      	b.n	2001d3e <fifoInternalRecvInterrupt+0x1fa>
 2001f5a:	4661      	mov	r1, ip
 2001f5c:	8011      	strh	r1, [r2, #0]
 2001f5e:	9901      	ldr	r1, [sp, #4]
 2001f60:	040b      	lsls	r3, r1, #16
 2001f62:	0c1b      	lsrs	r3, r3, #16
 2001f64:	8053      	strh	r3, [r2, #2]
 2001f66:	e724      	b.n	2001db2 <fifoInternalRecvInterrupt+0x26e>
 2001f68:	46db      	mov	fp, fp
 2001f6a:	e7b5      	b.n	2001ed8 <fifoInternalRecvInterrupt+0x394>
 2001f6c:	9b03      	ldr	r3, [sp, #12]
 2001f6e:	0089      	lsls	r1, r1, #2
 2001f70:	506b      	str	r3, [r5, r1]
 2001f72:	00d1      	lsls	r1, r2, #3
 2001f74:	5868      	ldr	r0, [r5, r1]
 2001f76:	4b0c      	ldr	r3, [pc, #48]	; (2001fa8 <fifoInternalRecvInterrupt+0x464>)
 2001f78:	4330      	orrs	r0, r6
 2001f7a:	4453      	add	r3, sl
 2001f7c:	5068      	str	r0, [r5, r1]
 2001f7e:	8819      	ldrh	r1, [r3, #0]
 2001f80:	42b1      	cmp	r1, r6
 2001f82:	d102      	bne.n	2001f8a <fifoInternalRecvInterrupt+0x446>
 2001f84:	801a      	strh	r2, [r3, #0]
 2001f86:	805a      	strh	r2, [r3, #2]
 2001f88:	e67b      	b.n	2001c82 <fifoInternalRecvInterrupt+0x13e>
 2001f8a:	8858      	ldrh	r0, [r3, #2]
 2001f8c:	4682      	mov	sl, r0
 2001f8e:	e7d3      	b.n	2001f38 <fifoInternalRecvInterrupt+0x3f4>
 2001f90:	01ffffff 	.word	0x01ffffff
 2001f94:	04000208 	.word	0x04000208
 2001f98:	02010ee8 	.word	0x02010ee8
 2001f9c:	02010f68 	.word	0x02010f68
 2001fa0:	020110a8 	.word	0x020110a8
 2001fa4:	ffff0000 	.word	0xffff0000
 2001fa8:	02010fa8 	.word	0x02010fa8

02001fac <fifoSetDatamsgHandler>:
 2001fac:	b5f0      	push	{r4, r5, r6, r7, lr}
 2001fae:	465f      	mov	r7, fp
 2001fb0:	4656      	mov	r6, sl
 2001fb2:	464d      	mov	r5, r9
 2001fb4:	4644      	mov	r4, r8
 2001fb6:	b4f0      	push	{r4, r5, r6, r7}
 2001fb8:	b083      	sub	sp, #12
 2001fba:	9000      	str	r0, [sp, #0]
 2001fbc:	1c0f      	adds	r7, r1, #0
 2001fbe:	4690      	mov	r8, r2
 2001fc0:	280f      	cmp	r0, #15
 2001fc2:	d834      	bhi.n	200202e <fifoSetDatamsgHandler+0x82>
 2001fc4:	4b1b      	ldr	r3, [pc, #108]	; (2002034 <fifoSetDatamsgHandler+0x88>)
 2001fc6:	681a      	ldr	r2, [r3, #0]
 2001fc8:	9201      	str	r2, [sp, #4]
 2001fca:	2200      	movs	r2, #0
 2001fcc:	601a      	str	r2, [r3, #0]
 2001fce:	9b00      	ldr	r3, [sp, #0]
 2001fd0:	4642      	mov	r2, r8
 2001fd2:	009c      	lsls	r4, r3, #2
 2001fd4:	4b18      	ldr	r3, [pc, #96]	; (2002038 <fifoSetDatamsgHandler+0x8c>)
 2001fd6:	5119      	str	r1, [r3, r4]
 2001fd8:	4b18      	ldr	r3, [pc, #96]	; (200203c <fifoSetDatamsgHandler+0x90>)
 2001fda:	511a      	str	r2, [r3, r4]
 2001fdc:	2900      	cmp	r1, #0
 2001fde:	d01b      	beq.n	2002018 <fifoSetDatamsgHandler+0x6c>
 2001fe0:	4b17      	ldr	r3, [pc, #92]	; (2002040 <fifoSetDatamsgHandler+0x94>)
 2001fe2:	4a18      	ldr	r2, [pc, #96]	; (2002044 <fifoSetDatamsgHandler+0x98>)
 2001fe4:	469a      	mov	sl, r3
 2001fe6:	4b18      	ldr	r3, [pc, #96]	; (2002048 <fifoSetDatamsgHandler+0x9c>)
 2001fe8:	4d18      	ldr	r5, [pc, #96]	; (200204c <fifoSetDatamsgHandler+0xa0>)
 2001fea:	4691      	mov	r9, r2
 2001fec:	469b      	mov	fp, r3
 2001fee:	5b2b      	ldrh	r3, [r5, r4]
 2001ff0:	4553      	cmp	r3, sl
 2001ff2:	d011      	beq.n	2002018 <fifoSetDatamsgHandler+0x6c>
 2001ff4:	5b2e      	ldrh	r6, [r5, r4]
 2001ff6:	464a      	mov	r2, r9
 2001ff8:	00f3      	lsls	r3, r6, #3
 2001ffa:	3304      	adds	r3, #4
 2001ffc:	5898      	ldr	r0, [r3, r2]
 2001ffe:	465b      	mov	r3, fp
 2002000:	4018      	ands	r0, r3
 2002002:	4641      	mov	r1, r8
 2002004:	47b8      	blx	r7
 2002006:	5b2b      	ldrh	r3, [r5, r4]
 2002008:	42b3      	cmp	r3, r6
 200200a:	d1f0      	bne.n	2001fee <fifoSetDatamsgHandler+0x42>
 200200c:	9800      	ldr	r0, [sp, #0]
 200200e:	2100      	movs	r1, #0
 2002010:	2200      	movs	r2, #0
 2002012:	f7ff fd17 	bl	2001a44 <fifoGetDatamsg>
 2002016:	e7ea      	b.n	2001fee <fifoSetDatamsgHandler+0x42>
 2002018:	4b06      	ldr	r3, [pc, #24]	; (2002034 <fifoSetDatamsgHandler+0x88>)
 200201a:	9a01      	ldr	r2, [sp, #4]
 200201c:	2001      	movs	r0, #1
 200201e:	601a      	str	r2, [r3, #0]
 2002020:	b003      	add	sp, #12
 2002022:	bc3c      	pop	{r2, r3, r4, r5}
 2002024:	4690      	mov	r8, r2
 2002026:	4699      	mov	r9, r3
 2002028:	46a2      	mov	sl, r4
 200202a:	46ab      	mov	fp, r5
 200202c:	bdf0      	pop	{r4, r5, r6, r7, pc}
 200202e:	2000      	movs	r0, #0
 2002030:	e7f6      	b.n	2002020 <fifoSetDatamsgHandler+0x74>
 2002032:	46c0      	nop			; (mov r8, r8)
 2002034:	04000208 	.word	0x04000208
 2002038:	02011068 	.word	0x02011068
 200203c:	020106a8 	.word	0x020106a8
 2002040:	0000ffff 	.word	0x0000ffff
 2002044:	020106e8 	.word	0x020106e8
 2002048:	01ffffff 	.word	0x01ffffff
 200204c:	02010fe8 	.word	0x02010fe8

02002050 <fifoSendDatamsg>:
 2002050:	b5f0      	push	{r4, r5, r6, r7, lr}
 2002052:	4647      	mov	r7, r8
 2002054:	b480      	push	{r7}
 2002056:	af00      	add	r7, sp, #0
 2002058:	1c04      	adds	r4, r0, #0
 200205a:	1c0d      	adds	r5, r1, #0
 200205c:	2a00      	cmp	r2, #0
 200205e:	d004      	beq.n	200206a <fifoSendDatamsg+0x1a>
 2002060:	280f      	cmp	r0, #15
 2002062:	d802      	bhi.n	200206a <fifoSendDatamsg+0x1a>
 2002064:	1e4b      	subs	r3, r1, #1
 2002066:	2b7e      	cmp	r3, #126	; 0x7e
 2002068:	d904      	bls.n	2002074 <fifoSendDatamsg+0x24>
 200206a:	2000      	movs	r0, #0
 200206c:	46bd      	mov	sp, r7
 200206e:	bc04      	pop	{r2}
 2002070:	4690      	mov	r8, r2
 2002072:	bdf0      	pop	{r4, r5, r6, r7, pc}
 2002074:	1cce      	adds	r6, r1, #3
 2002076:	10b6      	asrs	r6, r6, #2
 2002078:	00b3      	lsls	r3, r6, #2
 200207a:	330e      	adds	r3, #14
 200207c:	08db      	lsrs	r3, r3, #3
 200207e:	00db      	lsls	r3, r3, #3
 2002080:	4668      	mov	r0, sp
 2002082:	1ac0      	subs	r0, r0, r3
 2002084:	4b0c      	ldr	r3, [pc, #48]	; (20020b8 <fifoSendDatamsg+0x68>)
 2002086:	1c71      	adds	r1, r6, #1
 2002088:	681b      	ldr	r3, [r3, #0]
 200208a:	4685      	mov	sp, r0
 200208c:	4680      	mov	r8, r0
 200208e:	4299      	cmp	r1, r3
 2002090:	d8eb      	bhi.n	200206a <fifoSendDatamsg+0x1a>
 2002092:	1e73      	subs	r3, r6, #1
 2002094:	009b      	lsls	r3, r3, #2
 2002096:	2100      	movs	r1, #0
 2002098:	5019      	str	r1, [r3, r0]
 200209a:	1c11      	adds	r1, r2, #0
 200209c:	1c2a      	adds	r2, r5, #0
 200209e:	f000 fe15 	bl	2002ccc <memcpy>
 20020a2:	4806      	ldr	r0, [pc, #24]	; (20020bc <fifoSendDatamsg+0x6c>)
 20020a4:	0724      	lsls	r4, r4, #28
 20020a6:	4005      	ands	r5, r0
 20020a8:	1c28      	adds	r0, r5, #0
 20020aa:	4320      	orrs	r0, r4
 20020ac:	1c31      	adds	r1, r6, #0
 20020ae:	4642      	mov	r2, r8
 20020b0:	f7ff f974 	bl	200139c <fifoInternalSend>
 20020b4:	e7da      	b.n	200206c <fifoSendDatamsg+0x1c>
 20020b6:	46c0      	nop			; (mov r8, r8)
 20020b8:	0200e5c4 	.word	0x0200e5c4
 20020bc:	01ffffff 	.word	0x01ffffff

020020c0 <irqDummy>:
 20020c0:	4770      	bx	lr
 20020c2:	46c0      	nop			; (mov r8, r8)

020020c4 <irqSet>:
 20020c4:	b510      	push	{r4, lr}
 20020c6:	2800      	cmp	r0, #0
 20020c8:	d01c      	beq.n	2002104 <irqSet+0x40>
 20020ca:	4b14      	ldr	r3, [pc, #80]	; (200211c <irqSet+0x58>)
 20020cc:	2400      	movs	r4, #0
 20020ce:	685a      	ldr	r2, [r3, #4]
 20020d0:	2a00      	cmp	r2, #0
 20020d2:	d020      	beq.n	2002116 <irqSet+0x52>
 20020d4:	4290      	cmp	r0, r2
 20020d6:	d01e      	beq.n	2002116 <irqSet+0x52>
 20020d8:	3401      	adds	r4, #1
 20020da:	3308      	adds	r3, #8
 20020dc:	2c19      	cmp	r4, #25
 20020de:	d1f6      	bne.n	20020ce <irqSet+0xa>
 20020e0:	07c3      	lsls	r3, r0, #31
 20020e2:	d506      	bpl.n	20020f2 <irqSet+0x2e>
 20020e4:	4b0e      	ldr	r3, [pc, #56]	; (2002120 <irqSet+0x5c>)
 20020e6:	2208      	movs	r2, #8
 20020e8:	8819      	ldrh	r1, [r3, #0]
 20020ea:	430a      	orrs	r2, r1
 20020ec:	0412      	lsls	r2, r2, #16
 20020ee:	0c12      	lsrs	r2, r2, #16
 20020f0:	801a      	strh	r2, [r3, #0]
 20020f2:	0783      	lsls	r3, r0, #30
 20020f4:	d506      	bpl.n	2002104 <irqSet+0x40>
 20020f6:	4b0a      	ldr	r3, [pc, #40]	; (2002120 <irqSet+0x5c>)
 20020f8:	2210      	movs	r2, #16
 20020fa:	8819      	ldrh	r1, [r3, #0]
 20020fc:	430a      	orrs	r2, r1
 20020fe:	0412      	lsls	r2, r2, #16
 2002100:	0c12      	lsrs	r2, r2, #16
 2002102:	801a      	strh	r2, [r3, #0]
 2002104:	03c3      	lsls	r3, r0, #15
 2002106:	d505      	bpl.n	2002114 <irqSet+0x50>
 2002108:	4a06      	ldr	r2, [pc, #24]	; (2002124 <irqSet+0x60>)
 200210a:	2380      	movs	r3, #128	; 0x80
 200210c:	8811      	ldrh	r1, [r2, #0]
 200210e:	01db      	lsls	r3, r3, #7
 2002110:	430b      	orrs	r3, r1
 2002112:	8013      	strh	r3, [r2, #0]
 2002114:	bd10      	pop	{r4, pc}
 2002116:	6019      	str	r1, [r3, #0]
 2002118:	6058      	str	r0, [r3, #4]
 200211a:	e7e1      	b.n	20020e0 <irqSet+0x1c>
 200211c:	01000100 	.word	0x01000100
 2002120:	04000004 	.word	0x04000004
 2002124:	04000180 	.word	0x04000180

02002128 <irqInit>:
 2002128:	b500      	push	{lr}
 200212a:	4b0b      	ldr	r3, [pc, #44]	; (2002158 <irqInit+0x30>)
 200212c:	2200      	movs	r2, #0
 200212e:	601a      	str	r2, [r3, #0]
 2002130:	4b0a      	ldr	r3, [pc, #40]	; (200215c <irqInit+0x34>)
 2002132:	490b      	ldr	r1, [pc, #44]	; (2002160 <irqInit+0x38>)
 2002134:	1c18      	adds	r0, r3, #0
 2002136:	30c8      	adds	r0, #200	; 0xc8
 2002138:	6019      	str	r1, [r3, #0]
 200213a:	605a      	str	r2, [r3, #4]
 200213c:	3308      	adds	r3, #8
 200213e:	4283      	cmp	r3, r0
 2002140:	d1fa      	bne.n	2002138 <irqInit+0x10>
 2002142:	4a08      	ldr	r2, [pc, #32]	; (2002164 <irqInit+0x3c>)
 2002144:	4b08      	ldr	r3, [pc, #32]	; (2002168 <irqInit+0x40>)
 2002146:	601a      	str	r2, [r3, #0]
 2002148:	4a08      	ldr	r2, [pc, #32]	; (200216c <irqInit+0x44>)
 200214a:	2301      	movs	r3, #1
 200214c:	425b      	negs	r3, r3
 200214e:	6013      	str	r3, [r2, #0]
 2002150:	4b07      	ldr	r3, [pc, #28]	; (2002170 <irqInit+0x48>)
 2002152:	2201      	movs	r2, #1
 2002154:	601a      	str	r2, [r3, #0]
 2002156:	bd00      	pop	{pc}
 2002158:	04000210 	.word	0x04000210
 200215c:	01000100 	.word	0x01000100
 2002160:	020020c1 	.word	0x020020c1
 2002164:	010001c8 	.word	0x010001c8
 2002168:	0b003ffc 	.word	0x0b003ffc
 200216c:	04000214 	.word	0x04000214
 2002170:	04000208 	.word	0x04000208

02002174 <irqInitHandler>:
 2002174:	b510      	push	{r4, lr}
 2002176:	4a07      	ldr	r2, [pc, #28]	; (2002194 <irqInitHandler+0x20>)
 2002178:	4c07      	ldr	r4, [pc, #28]	; (2002198 <irqInitHandler+0x24>)
 200217a:	2301      	movs	r3, #1
 200217c:	2100      	movs	r1, #0
 200217e:	425b      	negs	r3, r3
 2002180:	6011      	str	r1, [r2, #0]
 2002182:	6023      	str	r3, [r4, #0]
 2002184:	4b05      	ldr	r3, [pc, #20]	; (200219c <irqInitHandler+0x28>)
 2002186:	6019      	str	r1, [r3, #0]
 2002188:	4b05      	ldr	r3, [pc, #20]	; (20021a0 <irqInitHandler+0x2c>)
 200218a:	6018      	str	r0, [r3, #0]
 200218c:	2301      	movs	r3, #1
 200218e:	6013      	str	r3, [r2, #0]
 2002190:	bd10      	pop	{r4, pc}
 2002192:	46c0      	nop			; (mov r8, r8)
 2002194:	04000208 	.word	0x04000208
 2002198:	04000214 	.word	0x04000214
 200219c:	04000210 	.word	0x04000210
 20021a0:	0b003ffc 	.word	0x0b003ffc

020021a4 <irqEnable>:
 20021a4:	b500      	push	{lr}
 20021a6:	07c3      	lsls	r3, r0, #31
 20021a8:	d506      	bpl.n	20021b8 <irqEnable+0x14>
 20021aa:	4b13      	ldr	r3, [pc, #76]	; (20021f8 <irqEnable+0x54>)
 20021ac:	2208      	movs	r2, #8
 20021ae:	8819      	ldrh	r1, [r3, #0]
 20021b0:	430a      	orrs	r2, r1
 20021b2:	0412      	lsls	r2, r2, #16
 20021b4:	0c12      	lsrs	r2, r2, #16
 20021b6:	801a      	strh	r2, [r3, #0]
 20021b8:	0783      	lsls	r3, r0, #30
 20021ba:	d506      	bpl.n	20021ca <irqEnable+0x26>
 20021bc:	4b0e      	ldr	r3, [pc, #56]	; (20021f8 <irqEnable+0x54>)
 20021be:	2210      	movs	r2, #16
 20021c0:	8819      	ldrh	r1, [r3, #0]
 20021c2:	430a      	orrs	r2, r1
 20021c4:	0412      	lsls	r2, r2, #16
 20021c6:	0c12      	lsrs	r2, r2, #16
 20021c8:	801a      	strh	r2, [r3, #0]
 20021ca:	0743      	lsls	r3, r0, #29
 20021cc:	d506      	bpl.n	20021dc <irqEnable+0x38>
 20021ce:	4b0a      	ldr	r3, [pc, #40]	; (20021f8 <irqEnable+0x54>)
 20021d0:	2220      	movs	r2, #32
 20021d2:	8819      	ldrh	r1, [r3, #0]
 20021d4:	430a      	orrs	r2, r1
 20021d6:	0412      	lsls	r2, r2, #16
 20021d8:	0c12      	lsrs	r2, r2, #16
 20021da:	801a      	strh	r2, [r3, #0]
 20021dc:	03c3      	lsls	r3, r0, #15
 20021de:	d505      	bpl.n	20021ec <irqEnable+0x48>
 20021e0:	4a06      	ldr	r2, [pc, #24]	; (20021fc <irqEnable+0x58>)
 20021e2:	2380      	movs	r3, #128	; 0x80
 20021e4:	8811      	ldrh	r1, [r2, #0]
 20021e6:	01db      	lsls	r3, r3, #7
 20021e8:	430b      	orrs	r3, r1
 20021ea:	8013      	strh	r3, [r2, #0]
 20021ec:	4b04      	ldr	r3, [pc, #16]	; (2002200 <irqEnable+0x5c>)
 20021ee:	681a      	ldr	r2, [r3, #0]
 20021f0:	4310      	orrs	r0, r2
 20021f2:	6018      	str	r0, [r3, #0]
 20021f4:	bd00      	pop	{pc}
 20021f6:	46c0      	nop			; (mov r8, r8)
 20021f8:	04000004 	.word	0x04000004
 20021fc:	04000180 	.word	0x04000180
 2002200:	04000210 	.word	0x04000210

02002204 <irqDisable>:
 2002204:	b500      	push	{lr}
 2002206:	07c3      	lsls	r3, r0, #31
 2002208:	d504      	bpl.n	2002214 <irqDisable+0x10>
 200220a:	4b0f      	ldr	r3, [pc, #60]	; (2002248 <irqDisable+0x44>)
 200220c:	4a0f      	ldr	r2, [pc, #60]	; (200224c <irqDisable+0x48>)
 200220e:	8819      	ldrh	r1, [r3, #0]
 2002210:	400a      	ands	r2, r1
 2002212:	801a      	strh	r2, [r3, #0]
 2002214:	0783      	lsls	r3, r0, #30
 2002216:	d504      	bpl.n	2002222 <irqDisable+0x1e>
 2002218:	4b0b      	ldr	r3, [pc, #44]	; (2002248 <irqDisable+0x44>)
 200221a:	4a0d      	ldr	r2, [pc, #52]	; (2002250 <irqDisable+0x4c>)
 200221c:	8819      	ldrh	r1, [r3, #0]
 200221e:	400a      	ands	r2, r1
 2002220:	801a      	strh	r2, [r3, #0]
 2002222:	0743      	lsls	r3, r0, #29
 2002224:	d504      	bpl.n	2002230 <irqDisable+0x2c>
 2002226:	4b08      	ldr	r3, [pc, #32]	; (2002248 <irqDisable+0x44>)
 2002228:	4a0a      	ldr	r2, [pc, #40]	; (2002254 <irqDisable+0x50>)
 200222a:	8819      	ldrh	r1, [r3, #0]
 200222c:	400a      	ands	r2, r1
 200222e:	801a      	strh	r2, [r3, #0]
 2002230:	03c3      	lsls	r3, r0, #15
 2002232:	d504      	bpl.n	200223e <irqDisable+0x3a>
 2002234:	4b08      	ldr	r3, [pc, #32]	; (2002258 <irqDisable+0x54>)
 2002236:	4a09      	ldr	r2, [pc, #36]	; (200225c <irqDisable+0x58>)
 2002238:	8819      	ldrh	r1, [r3, #0]
 200223a:	400a      	ands	r2, r1
 200223c:	801a      	strh	r2, [r3, #0]
 200223e:	4b08      	ldr	r3, [pc, #32]	; (2002260 <irqDisable+0x5c>)
 2002240:	681a      	ldr	r2, [r3, #0]
 2002242:	4382      	bics	r2, r0
 2002244:	601a      	str	r2, [r3, #0]
 2002246:	bd00      	pop	{pc}
 2002248:	04000004 	.word	0x04000004
 200224c:	0000fff7 	.word	0x0000fff7
 2002250:	0000ffef 	.word	0x0000ffef
 2002254:	0000ffdf 	.word	0x0000ffdf
 2002258:	04000180 	.word	0x04000180
 200225c:	0000bfff 	.word	0x0000bfff
 2002260:	04000210 	.word	0x04000210

02002264 <irqClear>:
 2002264:	b510      	push	{r4, lr}
 2002266:	4b07      	ldr	r3, [pc, #28]	; (2002284 <irqClear+0x20>)
 2002268:	2200      	movs	r2, #0
 200226a:	e003      	b.n	2002274 <irqClear+0x10>
 200226c:	3201      	adds	r2, #1
 200226e:	3308      	adds	r3, #8
 2002270:	2a19      	cmp	r2, #25
 2002272:	d004      	beq.n	200227e <irqClear+0x1a>
 2002274:	6859      	ldr	r1, [r3, #4]
 2002276:	4288      	cmp	r0, r1
 2002278:	d1f8      	bne.n	200226c <irqClear+0x8>
 200227a:	4a03      	ldr	r2, [pc, #12]	; (2002288 <irqClear+0x24>)
 200227c:	601a      	str	r2, [r3, #0]
 200227e:	f7ff ffc1 	bl	2002204 <irqDisable>
 2002282:	bd10      	pop	{r4, pc}
 2002284:	01000100 	.word	0x01000100
 2002288:	020020c1 	.word	0x020020c1

0200228c <systemErrorExit>:
 200228c:	4770      	bx	lr
 200228e:	46c0      	nop			; (mov r8, r8)

02002290 <__libnds_exit>:
 2002290:	b510      	push	{r4, lr}
 2002292:	2800      	cmp	r0, #0
 2002294:	d110      	bne.n	20022b8 <__libnds_exit+0x28>
 2002296:	4b0a      	ldr	r3, [pc, #40]	; (20022c0 <__libnds_exit+0x30>)
 2002298:	4a0a      	ldr	r2, [pc, #40]	; (20022c4 <__libnds_exit+0x34>)
 200229a:	695b      	ldr	r3, [r3, #20]
 200229c:	6819      	ldr	r1, [r3, #0]
 200229e:	4291      	cmp	r1, r2
 20022a0:	d003      	beq.n	20022aa <__libnds_exit+0x1a>
 20022a2:	2040      	movs	r0, #64	; 0x40
 20022a4:	f7fe ffa6 	bl	20011f4 <powerOn>
 20022a8:	e7fe      	b.n	20022a8 <__libnds_exit+0x18>
 20022aa:	6859      	ldr	r1, [r3, #4]
 20022ac:	4a06      	ldr	r2, [pc, #24]	; (20022c8 <__libnds_exit+0x38>)
 20022ae:	4291      	cmp	r1, r2
 20022b0:	d1f7      	bne.n	20022a2 <__libnds_exit+0x12>
 20022b2:	689b      	ldr	r3, [r3, #8]
 20022b4:	4798      	blx	r3
 20022b6:	e7f7      	b.n	20022a8 <__libnds_exit+0x18>
 20022b8:	f7ff ffe8 	bl	200228c <systemErrorExit>
 20022bc:	e7eb      	b.n	2002296 <__libnds_exit+0x6>
 20022be:	46c0      	nop			; (mov r8, r8)
 20022c0:	02fff000 	.word	0x02fff000
 20022c4:	746f6f62 	.word	0x746f6f62
 20022c8:	62757473 	.word	0x62757473

020022cc <__libnds_mpu_setup>:
 20022cc:	e59f1168 	ldr	r1, [pc, #360]	; 200243c <memUncached+0x18>
 20022d0:	e3a00301 	mov	r0, #67108864	; 0x4000000
 20022d4:	e2800fc1 	add	r0, r0, #772	; 0x304
 20022d8:	e1c010b0 	strh	r1, [r0]
 20022dc:	e59f115c 	ldr	r1, [pc, #348]	; 2002440 <memUncached+0x1c>
 20022e0:	ee011f10 	mcr	15, 0, r1, cr1, cr0, {0}
 20022e4:	e3a00000 	mov	r0, #0
 20022e8:	ee070f15 	mcr	15, 0, r0, cr7, cr5, {0}
 20022ec:	ee070f16 	mcr	15, 0, r0, cr7, cr6, {0}
 20022f0:	ee070f9a 	mcr	15, 0, r0, cr7, cr10, {4}
 20022f4:	e59f0148 	ldr	r0, [pc, #328]	; 2002444 <memUncached+0x20>
 20022f8:	e380000a 	orr	r0, r0, #10
 20022fc:	ee090f11 	mcr	15, 0, r0, cr9, cr1, {0}
 2002300:	e3a00020 	mov	r0, #32
 2002304:	ee090f31 	mcr	15, 0, r0, cr9, cr1, {1}
 2002308:	e59f0138 	ldr	r0, [pc, #312]	; 2002448 <memUncached+0x24>
 200230c:	ee060f10 	mcr	15, 0, r0, cr6, cr0, {0}
 2002310:	e59f0134 	ldr	r0, [pc, #308]	; 200244c <memUncached+0x28>
 2002314:	ee060f11 	mcr	15, 0, r0, cr6, cr1, {0}
 2002318:	e3a00017 	mov	r0, #23
 200231c:	ee060f12 	mcr	15, 0, r0, cr6, cr2, {0}
 2002320:	e59f011c 	ldr	r0, [pc, #284]	; 2002444 <memUncached+0x20>
 2002324:	e380001b 	orr	r0, r0, #27
 2002328:	ee060f13 	mcr	15, 0, r0, cr6, cr3, {0}
 200232c:	e59f011c 	ldr	r0, [pc, #284]	; 2002450 <memUncached+0x2c>
 2002330:	e1a007a0 	lsr	r0, r0, #15
 2002334:	e1a00780 	lsl	r0, r0, #15
 2002338:	e380001d 	orr	r0, r0, #29
 200233c:	ee060f14 	mcr	15, 0, r0, cr6, cr4, {0}
 2002340:	e59f010c 	ldr	r0, [pc, #268]	; 2002454 <memUncached+0x30>
 2002344:	e5900000 	ldr	r0, [r0]
 2002348:	e2100902 	ands	r0, r0, #32768	; 0x8000
 200234c:	1a00000d 	bne	2002388 <dsi_mode>
 2002350:	ef0f0000 	svc	0x000f0000
 2002354:	e59f10fc 	ldr	r1, [pc, #252]	; 2002458 <memUncached+0x34>
 2002358:	e3500000 	cmp	r0, #0
 200235c:	1a000004 	bne	2002374 <debug_mode>
 2002360:	e59f30f4 	ldr	r3, [pc, #244]	; 200245c <memUncached+0x38>
 2002364:	e59f20f4 	ldr	r2, [pc, #244]	; 2002460 <memUncached+0x3c>
 2002368:	e3a08509 	mov	r8, #37748736	; 0x2400000
 200236c:	e28f9070 	add	r9, pc, #112	; 0x70
 2002370:	ea000009 	b	200239c <setregions>

02002374 <debug_mode>:
 2002374:	e59f30e8 	ldr	r3, [pc, #232]	; 2002464 <memUncached+0x40>
 2002378:	e59f20e8 	ldr	r2, [pc, #232]	; 2002468 <memUncached+0x44>
 200237c:	e3a0850a 	mov	r8, #41943040	; 0x2800000
 2002380:	e28f9068 	add	r9, pc, #104	; 0x68
 2002384:	ea000004 	b	200239c <setregions>

02002388 <dsi_mode>:
 2002388:	e59f10dc 	ldr	r1, [pc, #220]	; 200246c <memUncached+0x48>
 200238c:	e59f30cc 	ldr	r3, [pc, #204]	; 2002460 <memUncached+0x3c>
 2002390:	e59f20d8 	ldr	r2, [pc, #216]	; 2002470 <memUncached+0x4c>
 2002394:	e3a08403 	mov	r8, #50331648	; 0x3000000
 2002398:	e28f905c 	add	r9, pc, #92	; 0x5c

0200239c <setregions>:
 200239c:	ee061f15 	mcr	15, 0, r1, cr6, cr5, {0}
 20023a0:	ee062f16 	mcr	15, 0, r2, cr6, cr6, {0}
 20023a4:	ee063f17 	mcr	15, 0, r3, cr6, cr7, {0}
 20023a8:	e3a00080 	mov	r0, #128	; 0x80
 20023ac:	ee030f10 	mcr	15, 0, r0, cr3, cr0, {0}
 20023b0:	e3a00082 	mov	r0, #130	; 0x82
 20023b4:	ee020f10 	mcr	15, 0, r0, cr2, cr0, {0}
 20023b8:	ee020f30 	mcr	15, 0, r0, cr2, cr0, {1}
 20023bc:	e59f00b0 	ldr	r0, [pc, #176]	; 2002474 <memUncached+0x50>
 20023c0:	ee050f70 	mcr	15, 0, r0, cr5, cr0, {3}
 20023c4:	ee050f50 	mcr	15, 0, r0, cr5, cr0, {2}
 20023c8:	ee110f10 	mrc	15, 0, r0, cr1, cr0, {0}
 20023cc:	e59f10a4 	ldr	r1, [pc, #164]	; 2002478 <memUncached+0x54>
 20023d0:	e1800001 	orr	r0, r0, r1
 20023d4:	ee010f10 	mcr	15, 0, r0, cr1, cr0, {0}
 20023d8:	e59f009c 	ldr	r0, [pc, #156]	; 200247c <memUncached+0x58>
 20023dc:	e5809000 	str	r9, [r0]
 20023e0:	e12fff1e 	bx	lr

020023e4 <dsmasks>:
 20023e4:	003fffff 	.word	0x003fffff
 20023e8:	02000000 	.word	0x02000000
 20023ec:	02c00000 	.word	0x02c00000

020023f0 <debugmasks>:
 20023f0:	007fffff 	.word	0x007fffff
 20023f4:	02000000 	.word	0x02000000
 20023f8:	02800000 	.word	0x02800000

020023fc <dsimasks>:
 20023fc:	00ffffff 	.word	0x00ffffff
 2002400:	02000000 	.word	0x02000000
 2002404:	0c000000 	.word	0x0c000000

02002408 <masks>:
 2002408:	020023e4 	.word	0x020023e4

0200240c <memCached>:
 200240c:	e51f100c 	ldr	r1, [pc, #-12]	; 2002408 <masks>
 2002410:	e4912004 	ldr	r2, [r1], #4
 2002414:	e0000002 	and	r0, r0, r2
 2002418:	e5912000 	ldr	r2, [r1]
 200241c:	e1800002 	orr	r0, r0, r2
 2002420:	e12fff1e 	bx	lr

02002424 <memUncached>:
 2002424:	e51f1024 	ldr	r1, [pc, #-36]	; 2002408 <masks>
 2002428:	e4912008 	ldr	r2, [r1], #8
 200242c:	e0000002 	and	r0, r0, r2
 2002430:	e5912000 	ldr	r2, [r1]
 2002434:	e1800002 	orr	r0, r0, r2
 2002438:	e12fff1e 	bx	lr
 200243c:	00008203 	.word	0x00008203
 2002440:	00002078 	.word	0x00002078
 2002444:	0b000000 	.word	0x0b000000
 2002448:	04000033 	.word	0x04000033
 200244c:	ffff001d 	.word	0xffff001d
 2002450:	01000100 	.word	0x01000100
 2002454:	04004008 	.word	0x04004008
 2002458:	08000035 	.word	0x08000035
 200245c:	0200002b 	.word	0x0200002b
 2002460:	0200002f 	.word	0x0200002f
 2002464:	0200002d 	.word	0x0200002d
 2002468:	0280002d 	.word	0x0280002d
 200246c:	0300002d 	.word	0x0300002d
 2002470:	0c00002f 	.word	0x0c00002f
 2002474:	33333363 	.word	0x33333363
 2002478:	00051005 	.word	0x00051005
 200247c:	02002408 	.word	0x02002408

02002480 <swiDelay>:
 2002480:	df03      	svc	3
 2002482:	4770      	bx	lr

02002484 <swiIntrWait>:
 2002484:	df04      	svc	4
 2002486:	4770      	bx	lr

02002488 <swiWaitForVBlank>:
 2002488:	df05      	svc	5
 200248a:	4770      	bx	lr

0200248c <swiSleep>:
 200248c:	df07      	svc	7
 200248e:	4770      	bx	lr

02002490 <swiChangeSoundBias>:
 2002490:	df08      	svc	8
 2002492:	4770      	bx	lr

02002494 <swiDivide>:
 2002494:	df09      	svc	9
 2002496:	4770      	bx	lr

02002498 <swiRemainder>:
 2002498:	df09      	svc	9
 200249a:	1c08      	adds	r0, r1, #0
 200249c:	4770      	bx	lr

0200249e <swiDivMod>:
 200249e:	b40c      	push	{r2, r3}
 20024a0:	df09      	svc	9
 20024a2:	bc0c      	pop	{r2, r3}
 20024a4:	6010      	str	r0, [r2, #0]
 20024a6:	6019      	str	r1, [r3, #0]
 20024a8:	4770      	bx	lr

020024aa <swiCopy>:
 20024aa:	df0b      	svc	11
 20024ac:	4770      	bx	lr

020024ae <swiFastCopy>:
 20024ae:	df0c      	svc	12
 20024b0:	4770      	bx	lr

020024b2 <swiSqrt>:
 20024b2:	df0d      	svc	13
 20024b4:	4770      	bx	lr

020024b6 <swiCRC16>:
 20024b6:	df0e      	svc	14
 20024b8:	4770      	bx	lr

020024ba <swiIsDebugger>:
 20024ba:	df0f      	svc	15
 20024bc:	4770      	bx	lr

020024be <swiUnpackBits>:
 20024be:	df10      	svc	16
 20024c0:	4770      	bx	lr

020024c2 <swiDecompressLZSSWram>:
 20024c2:	df11      	svc	17
 20024c4:	4770      	bx	lr

020024c6 <swiDecompressLZSSVram>:
 20024c6:	df12      	svc	18
 20024c8:	4770      	bx	lr

020024ca <swiDecompressHuffman>:
 20024ca:	df13      	svc	19
 20024cc:	4770      	bx	lr

020024ce <swiDecompressRLEWram>:
 20024ce:	df14      	svc	20
 20024d0:	4770      	bx	lr

020024d2 <swiDecompressRLEVram>:
 20024d2:	df15      	svc	21
 20024d4:	4770      	bx	lr

020024d6 <swiWaitForIRQ>:
 20024d6:	df06      	svc	6
 20024d8:	4770      	bx	lr

020024da <swiDecodeDelta8>:
 20024da:	df16      	svc	22
 20024dc:	4770      	bx	lr

020024de <swiDecodeDelta16>:
 20024de:	df18      	svc	24
 20024e0:	4770      	bx	lr

020024e2 <swiSetHaltCR>:
 20024e2:	df1f      	svc	31
 20024e4:	4770      	bx	lr
 20024e6:	46c0      	nop			; (mov r8, r8)
 20024e8:	46c0      	nop			; (mov r8, r8)
 20024ea:	46c0      	nop			; (mov r8, r8)
 20024ec:	46c0      	nop			; (mov r8, r8)
 20024ee:	46c0      	nop			; (mov r8, r8)

020024f0 <nocashMessage>:
 20024f0:	4924      	ldr	r1, [pc, #144]	; (2002584 <buffer+0x7a>)
 20024f2:	2200      	movs	r2, #0
 20024f4:	5c83      	ldrb	r3, [r0, r2]
 20024f6:	548b      	strb	r3, [r1, r2]
 20024f8:	2b00      	cmp	r3, #0
 20024fa:	d002      	beq.n	2002502 <nocashMessage+0x12>
 20024fc:	3201      	adds	r2, #1
 20024fe:	2a78      	cmp	r2, #120	; 0x78
 2002500:	d1f8      	bne.n	20024f4 <nocashMessage+0x4>
 2002502:	46e4      	mov	ip, ip
 2002504:	e03d      	b.n	2002582 <buffer+0x78>
 2002506:	6464      	.short	0x6464
	...

0200250a <buffer>:
	...
 2002582:	4770      	bx	lr
 2002584:	0200250a 	.word	0x0200250a
 2002588:	ffffffff 	.word	0xffffffff
 200258c:	ffffffff 	.word	0xffffffff

02002590 <swiSoftReset>:
 2002590:	e59f101c 	ldr	r1, [pc, #28]	; 20025b4 <swiSoftReset+0x24>
 2002594:	ee011f10 	mcr	15, 0, r1, cr1, cr0, {0}
 2002598:	e3a00000 	mov	r0, #0
 200259c:	ee070f15 	mcr	15, 0, r0, cr7, cr5, {0}
 20025a0:	ee070f16 	mcr	15, 0, r0, cr7, cr6, {0}
 20025a4:	ee070f9a 	mcr	15, 0, r0, cr7, cr10, {4}
 20025a8:	e59f0008 	ldr	r0, [pc, #8]	; 20025b8 <swiSoftReset+0x28>
 20025ac:	e5900000 	ldr	r0, [r0]
 20025b0:	e12fff10 	bx	r0
 20025b4:	00002078 	.word	0x00002078
 20025b8:	02fffe24 	.word	0x02fffe24
 20025bc:	e1a00000 	nop			; (mov r0, r0)

020025c0 <bgIsText>:
 20025c0:	4b01      	ldr	r3, [pc, #4]	; (20025c8 <bgIsText+0x8>)
 20025c2:	5c18      	ldrb	r0, [r3, r0]
 20025c4:	4770      	bx	lr
 20025c6:	46c0      	nop			; (mov r8, r8)
 20025c8:	02011228 	.word	0x02011228

020025cc <checkIfText>:
 20025cc:	b500      	push	{lr}
 20025ce:	1f03      	subs	r3, r0, #4
 20025d0:	2b01      	cmp	r3, #1
 20025d2:	d901      	bls.n	20025d8 <checkIfText+0xc>
 20025d4:	2801      	cmp	r0, #1
 20025d6:	dc01      	bgt.n	20025dc <checkIfText+0x10>
 20025d8:	2001      	movs	r0, #1
 20025da:	bd00      	pop	{pc}
 20025dc:	2803      	cmp	r0, #3
 20025de:	dd0d      	ble.n	20025fc <checkIfText+0x30>
 20025e0:	4b0c      	ldr	r3, [pc, #48]	; (2002614 <checkIfText+0x48>)
 20025e2:	681a      	ldr	r2, [r3, #0]
 20025e4:	4b0c      	ldr	r3, [pc, #48]	; (2002618 <checkIfText+0x4c>)
 20025e6:	4013      	ands	r3, r2
 20025e8:	061b      	lsls	r3, r3, #24
 20025ea:	0e1b      	lsrs	r3, r3, #24
 20025ec:	2b00      	cmp	r3, #0
 20025ee:	d0f3      	beq.n	20025d8 <checkIfText+0xc>
 20025f0:	2b03      	cmp	r3, #3
 20025f2:	d006      	beq.n	2002602 <checkIfText+0x36>
 20025f4:	2b01      	cmp	r3, #1
 20025f6:	d004      	beq.n	2002602 <checkIfText+0x36>
 20025f8:	2000      	movs	r0, #0
 20025fa:	e7ee      	b.n	20025da <checkIfText+0xe>
 20025fc:	2380      	movs	r3, #128	; 0x80
 20025fe:	04db      	lsls	r3, r3, #19
 2002600:	e7ef      	b.n	20025e2 <checkIfText+0x16>
 2002602:	1fc3      	subs	r3, r0, #7
 2002604:	3803      	subs	r0, #3
 2002606:	1e5a      	subs	r2, r3, #1
 2002608:	4193      	sbcs	r3, r2
 200260a:	1e42      	subs	r2, r0, #1
 200260c:	4190      	sbcs	r0, r2
 200260e:	4018      	ands	r0, r3
 2002610:	e7e3      	b.n	20025da <checkIfText+0xe>
 2002612:	46c0      	nop			; (mov r8, r8)
 2002614:	04001000 	.word	0x04001000
 2002618:	00030007 	.word	0x00030007

0200261c <bgUpdate>:
 200261c:	b5f0      	push	{r4, r5, r6, r7, lr}
 200261e:	465f      	mov	r7, fp
 2002620:	4656      	mov	r6, sl
 2002622:	464d      	mov	r5, r9
 2002624:	4644      	mov	r4, r8
 2002626:	b4f0      	push	{r4, r5, r6, r7}
 2002628:	4c3f      	ldr	r4, [pc, #252]	; (2002728 <bgUpdate+0x10c>)
 200262a:	20a0      	movs	r0, #160	; 0xa0
 200262c:	0040      	lsls	r0, r0, #1
 200262e:	4b3f      	ldr	r3, [pc, #252]	; (200272c <bgUpdate+0x110>)
 2002630:	1c25      	adds	r5, r4, #0
 2002632:	1900      	adds	r0, r0, r4
 2002634:	2600      	movs	r6, #0
 2002636:	b085      	sub	sp, #20
 2002638:	3514      	adds	r5, #20
 200263a:	4f3d      	ldr	r7, [pc, #244]	; (2002730 <bgUpdate+0x114>)
 200263c:	4680      	mov	r8, r0
 200263e:	46b1      	mov	r9, r6
 2002640:	469a      	mov	sl, r3
 2002642:	e00f      	b.n	2002664 <bgUpdate+0x48>
 2002644:	4651      	mov	r1, sl
 2002646:	682a      	ldr	r2, [r5, #0]
 2002648:	598b      	ldr	r3, [r1, r6]
 200264a:	1212      	asrs	r2, r2, #8
 200264c:	801a      	strh	r2, [r3, #0]
 200264e:	69a2      	ldr	r2, [r4, #24]
 2002650:	1212      	asrs	r2, r2, #8
 2002652:	805a      	strh	r2, [r3, #2]
 2002654:	4649      	mov	r1, r9
 2002656:	7429      	strb	r1, [r5, #16]
 2002658:	3428      	adds	r4, #40	; 0x28
 200265a:	3604      	adds	r6, #4
 200265c:	3528      	adds	r5, #40	; 0x28
 200265e:	3701      	adds	r7, #1
 2002660:	4544      	cmp	r4, r8
 2002662:	d059      	beq.n	2002718 <bgUpdate+0xfc>
 2002664:	7c2b      	ldrb	r3, [r5, #16]
 2002666:	2b00      	cmp	r3, #0
 2002668:	d0f6      	beq.n	2002658 <bgUpdate+0x3c>
 200266a:	783b      	ldrb	r3, [r7, #0]
 200266c:	2b00      	cmp	r3, #0
 200266e:	d1e9      	bne.n	2002644 <bgUpdate+0x28>
 2002670:	6820      	ldr	r0, [r4, #0]
 2002672:	0400      	lsls	r0, r0, #16
 2002674:	1400      	asrs	r0, r0, #16
 2002676:	f000 f96d 	bl	2002954 <sinLerp>
 200267a:	0400      	lsls	r0, r0, #16
 200267c:	0c00      	lsrs	r0, r0, #16
 200267e:	4683      	mov	fp, r0
 2002680:	6820      	ldr	r0, [r4, #0]
 2002682:	0400      	lsls	r0, r0, #16
 2002684:	1400      	asrs	r0, r0, #16
 2002686:	f000 f9ab 	bl	20029e0 <cosLerp>
 200268a:	68e3      	ldr	r3, [r4, #12]
 200268c:	0400      	lsls	r0, r0, #16
 200268e:	1400      	asrs	r0, r0, #16
 2002690:	1c1a      	adds	r2, r3, #0
 2002692:	4342      	muls	r2, r0
 2002694:	4659      	mov	r1, fp
 2002696:	1312      	asrs	r2, r2, #12
 2002698:	4694      	mov	ip, r2
 200269a:	040a      	lsls	r2, r1, #16
 200269c:	1412      	asrs	r2, r2, #16
 200269e:	4251      	negs	r1, r2
 20026a0:	468b      	mov	fp, r1
 20026a2:	4659      	mov	r1, fp
 20026a4:	4359      	muls	r1, r3
 20026a6:	1f2b      	subs	r3, r5, #4
 20026a8:	681b      	ldr	r3, [r3, #0]
 20026aa:	1309      	asrs	r1, r1, #12
 20026ac:	468b      	mov	fp, r1
 20026ae:	1c19      	adds	r1, r3, #0
 20026b0:	4351      	muls	r1, r2
 20026b2:	1309      	asrs	r1, r1, #12
 20026b4:	9102      	str	r1, [sp, #8]
 20026b6:	4a1f      	ldr	r2, [pc, #124]	; (2002734 <bgUpdate+0x118>)
 20026b8:	1c19      	adds	r1, r3, #0
 20026ba:	4341      	muls	r1, r0
 20026bc:	5993      	ldr	r3, [r2, r6]
 20026be:	4660      	mov	r0, ip
 20026c0:	1309      	asrs	r1, r1, #12
 20026c2:	8018      	strh	r0, [r3, #0]
 20026c4:	466a      	mov	r2, sp
 20026c6:	2008      	movs	r0, #8
 20026c8:	9101      	str	r1, [sp, #4]
 20026ca:	5a82      	ldrh	r2, [r0, r2]
 20026cc:	4659      	mov	r1, fp
 20026ce:	4668      	mov	r0, sp
 20026d0:	8059      	strh	r1, [r3, #2]
 20026d2:	1d01      	adds	r1, r0, #4
 20026d4:	8808      	ldrh	r0, [r1, #0]
 20026d6:	809a      	strh	r2, [r3, #4]
 20026d8:	80d8      	strh	r0, [r3, #6]
 20026da:	68a0      	ldr	r0, [r4, #8]
 20026dc:	6861      	ldr	r1, [r4, #4]
 20026de:	465a      	mov	r2, fp
 20026e0:	4342      	muls	r2, r0
 20026e2:	9203      	str	r2, [sp, #12]
 20026e4:	4662      	mov	r2, ip
 20026e6:	434a      	muls	r2, r1
 20026e8:	9100      	str	r1, [sp, #0]
 20026ea:	9903      	ldr	r1, [sp, #12]
 20026ec:	4693      	mov	fp, r2
 20026ee:	448b      	add	fp, r1
 20026f0:	465a      	mov	r2, fp
 20026f2:	6829      	ldr	r1, [r5, #0]
 20026f4:	1212      	asrs	r2, r2, #8
 20026f6:	1a89      	subs	r1, r1, r2
 20026f8:	6099      	str	r1, [r3, #8]
 20026fa:	9901      	ldr	r1, [sp, #4]
 20026fc:	1c02      	adds	r2, r0, #0
 20026fe:	434a      	muls	r2, r1
 2002700:	9802      	ldr	r0, [sp, #8]
 2002702:	4694      	mov	ip, r2
 2002704:	9a00      	ldr	r2, [sp, #0]
 2002706:	1c11      	adds	r1, r2, #0
 2002708:	4341      	muls	r1, r0
 200270a:	4660      	mov	r0, ip
 200270c:	1842      	adds	r2, r0, r1
 200270e:	69a1      	ldr	r1, [r4, #24]
 2002710:	1212      	asrs	r2, r2, #8
 2002712:	1a8a      	subs	r2, r1, r2
 2002714:	60da      	str	r2, [r3, #12]
 2002716:	e79d      	b.n	2002654 <bgUpdate+0x38>
 2002718:	b005      	add	sp, #20
 200271a:	bc3c      	pop	{r2, r3, r4, r5}
 200271c:	4690      	mov	r8, r2
 200271e:	4699      	mov	r9, r3
 2002720:	46a2      	mov	sl, r4
 2002722:	46ab      	mov	fp, r5
 2002724:	bdf0      	pop	{r4, r5, r6, r7, pc}
 2002726:	46c0      	nop			; (mov r8, r8)
 2002728:	020110e8 	.word	0x020110e8
 200272c:	0200e5d4 	.word	0x0200e5d4
 2002730:	02011228 	.word	0x02011228
 2002734:	0200e5f4 	.word	0x0200e5f4

02002738 <bgInitSub_call>:
 2002738:	b5f0      	push	{r4, r5, r6, r7, lr}
 200273a:	4657      	mov	r7, sl
 200273c:	464e      	mov	r6, r9
 200273e:	4645      	mov	r5, r8
 2002740:	b4e0      	push	{r5, r6, r7}
 2002742:	4d3d      	ldr	r5, [pc, #244]	; (2002838 <bgInitSub_call+0x100>)
 2002744:	0044      	lsls	r4, r0, #1
 2002746:	1964      	adds	r4, r4, r5
 2002748:	9d08      	ldr	r5, [sp, #32]
 200274a:	021b      	lsls	r3, r3, #8
 200274c:	00ad      	lsls	r5, r5, #2
 200274e:	432b      	orrs	r3, r5
 2002750:	4313      	orrs	r3, r2
 2002752:	041b      	lsls	r3, r3, #16
 2002754:	0c1b      	lsrs	r3, r3, #16
 2002756:	2900      	cmp	r1, #0
 2002758:	d04f      	beq.n	20027fa <bgInitSub_call+0xc2>
 200275a:	8023      	strh	r3, [r4, #0]
 200275c:	0083      	lsls	r3, r0, #2
 200275e:	181b      	adds	r3, r3, r0
 2002760:	00db      	lsls	r3, r3, #3
 2002762:	1c1e      	adds	r6, r3, #0
 2002764:	4d35      	ldr	r5, [pc, #212]	; (200283c <bgInitSub_call+0x104>)
 2002766:	36a0      	adds	r6, #160	; 0xa0
 2002768:	19ae      	adds	r6, r5, r6
 200276a:	2400      	movs	r4, #0
 200276c:	469c      	mov	ip, r3
 200276e:	1c33      	adds	r3, r6, #0
 2002770:	c310      	stmia	r3!, {r4}
 2002772:	3304      	adds	r3, #4
 2002774:	6074      	str	r4, [r6, #4]
 2002776:	c310      	stmia	r3!, {r4}
 2002778:	c310      	stmia	r3!, {r4}
 200277a:	c310      	stmia	r3!, {r4}
 200277c:	c310      	stmia	r3!, {r4}
 200277e:	c310      	stmia	r3!, {r4}
 2002780:	c310      	stmia	r3!, {r4}
 2002782:	c310      	stmia	r3!, {r4}
 2002784:	601c      	str	r4, [r3, #0]
 2002786:	2901      	cmp	r1, #1
 2002788:	d952      	bls.n	2002830 <bgInitSub_call+0xf8>
 200278a:	1d04      	adds	r4, r0, #4
 200278c:	00a7      	lsls	r7, r4, #2
 200278e:	46b9      	mov	r9, r7
 2002790:	46a2      	mov	sl, r4
 2002792:	44ca      	add	sl, r9
 2002794:	4653      	mov	r3, sl
 2002796:	3301      	adds	r3, #1
 2002798:	00db      	lsls	r3, r3, #3
 200279a:	195b      	adds	r3, r3, r5
 200279c:	4657      	mov	r7, sl
 200279e:	4698      	mov	r8, r3
 20027a0:	00ff      	lsls	r7, r7, #3
 20027a2:	2380      	movs	r3, #128	; 0x80
 20027a4:	005b      	lsls	r3, r3, #1
 20027a6:	19ef      	adds	r7, r5, r7
 20027a8:	4646      	mov	r6, r8
 20027aa:	613b      	str	r3, [r7, #16]
 20027ac:	6073      	str	r3, [r6, #4]
 20027ae:	3720      	adds	r7, #32
 20027b0:	2301      	movs	r3, #1
 20027b2:	44ac      	add	ip, r5
 20027b4:	713b      	strb	r3, [r7, #4]
 20027b6:	4667      	mov	r7, ip
 20027b8:	3720      	adds	r7, #32
 20027ba:	713b      	strb	r3, [r7, #4]
 20027bc:	464b      	mov	r3, r9
 20027be:	191e      	adds	r6, r3, r4
 20027c0:	00f6      	lsls	r6, r6, #3
 20027c2:	19ad      	adds	r5, r5, r6
 20027c4:	6229      	str	r1, [r5, #32]
 20027c6:	61ea      	str	r2, [r5, #28]
 20027c8:	4b1d      	ldr	r3, [pc, #116]	; (2002840 <bgInitSub_call+0x108>)
 20027ca:	1c2e      	adds	r6, r5, #0
 20027cc:	2501      	movs	r5, #1
 20027ce:	1c2f      	adds	r7, r5, #0
 20027d0:	3008      	adds	r0, #8
 20027d2:	681a      	ldr	r2, [r3, #0]
 20027d4:	4087      	lsls	r7, r0
 20027d6:	1c38      	adds	r0, r7, #0
 20027d8:	4310      	orrs	r0, r2
 20027da:	6018      	str	r0, [r3, #0]
 20027dc:	1c20      	adds	r0, r4, #0
 20027de:	f7ff fef5 	bl	20025cc <checkIfText>
 20027e2:	4b18      	ldr	r3, [pc, #96]	; (2002844 <bgInitSub_call+0x10c>)
 20027e4:	3620      	adds	r6, #32
 20027e6:	5518      	strb	r0, [r3, r4]
 20027e8:	7135      	strb	r5, [r6, #4]
 20027ea:	f7ff ff17 	bl	200261c <bgUpdate>
 20027ee:	1c20      	adds	r0, r4, #0
 20027f0:	bc1c      	pop	{r2, r3, r4}
 20027f2:	4690      	mov	r8, r2
 20027f4:	4699      	mov	r9, r3
 20027f6:	46a2      	mov	sl, r4
 20027f8:	bdf0      	pop	{r4, r5, r6, r7, pc}
 20027fa:	2580      	movs	r5, #128	; 0x80
 20027fc:	432b      	orrs	r3, r5
 20027fe:	041b      	lsls	r3, r3, #16
 2002800:	0c1b      	lsrs	r3, r3, #16
 2002802:	8023      	strh	r3, [r4, #0]
 2002804:	0084      	lsls	r4, r0, #2
 2002806:	1824      	adds	r4, r4, r0
 2002808:	00e4      	lsls	r4, r4, #3
 200280a:	4d0c      	ldr	r5, [pc, #48]	; (200283c <bgInitSub_call+0x104>)
 200280c:	34a0      	adds	r4, #160	; 0xa0
 200280e:	192c      	adds	r4, r5, r4
 2002810:	1c23      	adds	r3, r4, #0
 2002812:	c302      	stmia	r3!, {r1}
 2002814:	3304      	adds	r3, #4
 2002816:	6061      	str	r1, [r4, #4]
 2002818:	c302      	stmia	r3!, {r1}
 200281a:	c302      	stmia	r3!, {r1}
 200281c:	c302      	stmia	r3!, {r1}
 200281e:	c302      	stmia	r3!, {r1}
 2002820:	c302      	stmia	r3!, {r1}
 2002822:	c302      	stmia	r3!, {r1}
 2002824:	c302      	stmia	r3!, {r1}
 2002826:	1d04      	adds	r4, r0, #4
 2002828:	6019      	str	r1, [r3, #0]
 200282a:	00a3      	lsls	r3, r4, #2
 200282c:	4699      	mov	r9, r3
 200282e:	e7c5      	b.n	20027bc <bgInitSub_call+0x84>
 2002830:	1d04      	adds	r4, r0, #4
 2002832:	00a6      	lsls	r6, r4, #2
 2002834:	46b1      	mov	r9, r6
 2002836:	e7c1      	b.n	20027bc <bgInitSub_call+0x84>
 2002838:	04001008 	.word	0x04001008
 200283c:	020110e8 	.word	0x020110e8
 2002840:	04001000 	.word	0x04001000
 2002844:	02011228 	.word	0x02011228

02002848 <bgInit_call>:
 2002848:	b5f0      	push	{r4, r5, r6, r7, lr}
 200284a:	4657      	mov	r7, sl
 200284c:	464e      	mov	r6, r9
 200284e:	4645      	mov	r5, r8
 2002850:	b4e0      	push	{r5, r6, r7}
 2002852:	1c0e      	adds	r6, r1, #0
 2002854:	9908      	ldr	r1, [sp, #32]
 2002856:	4690      	mov	r8, r2
 2002858:	0089      	lsls	r1, r1, #2
 200285a:	021b      	lsls	r3, r3, #8
 200285c:	430b      	orrs	r3, r1
 200285e:	4641      	mov	r1, r8
 2002860:	0042      	lsls	r2, r0, #1
 2002862:	1c04      	adds	r4, r0, #0
 2002864:	430b      	orrs	r3, r1
 2002866:	4829      	ldr	r0, [pc, #164]	; (200290c <bgInit_call+0xc4>)
 2002868:	041b      	lsls	r3, r3, #16
 200286a:	1812      	adds	r2, r2, r0
 200286c:	0c1b      	lsrs	r3, r3, #16
 200286e:	2e00      	cmp	r6, #0
 2002870:	d03c      	beq.n	20028ec <bgInit_call+0xa4>
 2002872:	8013      	strh	r3, [r2, #0]
 2002874:	00a2      	lsls	r2, r4, #2
 2002876:	4692      	mov	sl, r2
 2002878:	46a1      	mov	r9, r4
 200287a:	44d1      	add	r9, sl
 200287c:	4648      	mov	r0, r9
 200287e:	4d24      	ldr	r5, [pc, #144]	; (2002910 <bgInit_call+0xc8>)
 2002880:	00c7      	lsls	r7, r0, #3
 2002882:	19ef      	adds	r7, r5, r7
 2002884:	1c38      	adds	r0, r7, #0
 2002886:	2100      	movs	r1, #0
 2002888:	2228      	movs	r2, #40	; 0x28
 200288a:	f000 fa5f 	bl	2002d4c <memset>
 200288e:	2e01      	cmp	r6, #1
 2002890:	d90a      	bls.n	20028a8 <bgInit_call+0x60>
 2002892:	464a      	mov	r2, r9
 2002894:	3201      	adds	r2, #1
 2002896:	00d2      	lsls	r2, r2, #3
 2002898:	2380      	movs	r3, #128	; 0x80
 200289a:	005b      	lsls	r3, r3, #1
 200289c:	18aa      	adds	r2, r5, r2
 200289e:	613b      	str	r3, [r7, #16]
 20028a0:	6053      	str	r3, [r2, #4]
 20028a2:	3720      	adds	r7, #32
 20028a4:	2301      	movs	r3, #1
 20028a6:	713b      	strb	r3, [r7, #4]
 20028a8:	4651      	mov	r1, sl
 20028aa:	190b      	adds	r3, r1, r4
 20028ac:	00db      	lsls	r3, r3, #3
 20028ae:	18ed      	adds	r5, r5, r3
 20028b0:	4642      	mov	r2, r8
 20028b2:	622e      	str	r6, [r5, #32]
 20028b4:	61ea      	str	r2, [r5, #28]
 20028b6:	1c2f      	adds	r7, r5, #0
 20028b8:	1c22      	adds	r2, r4, #0
 20028ba:	2501      	movs	r5, #1
 20028bc:	2380      	movs	r3, #128	; 0x80
 20028be:	04db      	lsls	r3, r3, #19
 20028c0:	1c28      	adds	r0, r5, #0
 20028c2:	3208      	adds	r2, #8
 20028c4:	6819      	ldr	r1, [r3, #0]
 20028c6:	4090      	lsls	r0, r2
 20028c8:	1c02      	adds	r2, r0, #0
 20028ca:	430a      	orrs	r2, r1
 20028cc:	601a      	str	r2, [r3, #0]
 20028ce:	1c20      	adds	r0, r4, #0
 20028d0:	f7ff fe7c 	bl	20025cc <checkIfText>
 20028d4:	4b0f      	ldr	r3, [pc, #60]	; (2002914 <bgInit_call+0xcc>)
 20028d6:	3720      	adds	r7, #32
 20028d8:	5518      	strb	r0, [r3, r4]
 20028da:	713d      	strb	r5, [r7, #4]
 20028dc:	f7ff fe9e 	bl	200261c <bgUpdate>
 20028e0:	1c20      	adds	r0, r4, #0
 20028e2:	bc1c      	pop	{r2, r3, r4}
 20028e4:	4690      	mov	r8, r2
 20028e6:	4699      	mov	r9, r3
 20028e8:	46a2      	mov	sl, r4
 20028ea:	bdf0      	pop	{r4, r5, r6, r7, pc}
 20028ec:	2180      	movs	r1, #128	; 0x80
 20028ee:	430b      	orrs	r3, r1
 20028f0:	00a1      	lsls	r1, r4, #2
 20028f2:	1908      	adds	r0, r1, r4
 20028f4:	4d06      	ldr	r5, [pc, #24]	; (2002910 <bgInit_call+0xc8>)
 20028f6:	041b      	lsls	r3, r3, #16
 20028f8:	0c1b      	lsrs	r3, r3, #16
 20028fa:	00c0      	lsls	r0, r0, #3
 20028fc:	8013      	strh	r3, [r2, #0]
 20028fe:	468a      	mov	sl, r1
 2002900:	1828      	adds	r0, r5, r0
 2002902:	2100      	movs	r1, #0
 2002904:	2228      	movs	r2, #40	; 0x28
 2002906:	f000 fa21 	bl	2002d4c <memset>
 200290a:	e7cd      	b.n	20028a8 <bgInit_call+0x60>
 200290c:	04000008 	.word	0x04000008
 2002910:	020110e8 	.word	0x020110e8
 2002914:	02011228 	.word	0x02011228

02002918 <sinLutLookup>:
 2002918:	b500      	push	{lr}
 200291a:	0440      	lsls	r0, r0, #17
 200291c:	0dc0      	lsrs	r0, r0, #23
 200291e:	237f      	movs	r3, #127	; 0x7f
 2002920:	4003      	ands	r3, r0
 2002922:	287f      	cmp	r0, #127	; 0x7f
 2002924:	dd0d      	ble.n	2002942 <sinLutLookup+0x2a>
 2002926:	28ff      	cmp	r0, #255	; 0xff
 2002928:	dd09      	ble.n	200293e <sinLutLookup+0x26>
 200292a:	4a08      	ldr	r2, [pc, #32]	; (200294c <sinLutLookup+0x34>)
 200292c:	4290      	cmp	r0, r2
 200292e:	dd01      	ble.n	2002934 <sinLutLookup+0x1c>
 2002930:	2280      	movs	r2, #128	; 0x80
 2002932:	1ad3      	subs	r3, r2, r3
 2002934:	4a06      	ldr	r2, [pc, #24]	; (2002950 <sinLutLookup+0x38>)
 2002936:	005b      	lsls	r3, r3, #1
 2002938:	5a98      	ldrh	r0, [r3, r2]
 200293a:	4240      	negs	r0, r0
 200293c:	e004      	b.n	2002948 <sinLutLookup+0x30>
 200293e:	2280      	movs	r2, #128	; 0x80
 2002940:	1ad3      	subs	r3, r2, r3
 2002942:	4a03      	ldr	r2, [pc, #12]	; (2002950 <sinLutLookup+0x38>)
 2002944:	005b      	lsls	r3, r3, #1
 2002946:	5a98      	ldrh	r0, [r3, r2]
 2002948:	bd00      	pop	{pc}
 200294a:	46c0      	nop			; (mov r8, r8)
 200294c:	0000017f 	.word	0x0000017f
 2002950:	0200e634 	.word	0x0200e634

02002954 <sinLerp>:
 2002954:	b530      	push	{r4, r5, lr}
 2002956:	0443      	lsls	r3, r0, #17
 2002958:	0ddb      	lsrs	r3, r3, #23
 200295a:	227f      	movs	r2, #127	; 0x7f
 200295c:	401a      	ands	r2, r3
 200295e:	2b7f      	cmp	r3, #127	; 0x7f
 2002960:	dc23      	bgt.n	20029aa <sinLerp+0x56>
 2002962:	491d      	ldr	r1, [pc, #116]	; (20029d8 <sinLerp+0x84>)
 2002964:	0052      	lsls	r2, r2, #1
 2002966:	5a8a      	ldrh	r2, [r1, r2]
 2002968:	1c03      	adds	r3, r0, #0
 200296a:	3340      	adds	r3, #64	; 0x40
 200296c:	045b      	lsls	r3, r3, #17
 200296e:	0ddb      	lsrs	r3, r3, #23
 2002970:	247f      	movs	r4, #127	; 0x7f
 2002972:	401c      	ands	r4, r3
 2002974:	2b7f      	cmp	r3, #127	; 0x7f
 2002976:	dd0c      	ble.n	2002992 <sinLerp+0x3e>
 2002978:	2bff      	cmp	r3, #255	; 0xff
 200297a:	dd08      	ble.n	200298e <sinLerp+0x3a>
 200297c:	4d17      	ldr	r5, [pc, #92]	; (20029dc <sinLerp+0x88>)
 200297e:	42ab      	cmp	r3, r5
 2002980:	dd01      	ble.n	2002986 <sinLerp+0x32>
 2002982:	2380      	movs	r3, #128	; 0x80
 2002984:	1b1c      	subs	r4, r3, r4
 2002986:	0064      	lsls	r4, r4, #1
 2002988:	5b09      	ldrh	r1, [r1, r4]
 200298a:	4249      	negs	r1, r1
 200298c:	e003      	b.n	2002996 <sinLerp+0x42>
 200298e:	2380      	movs	r3, #128	; 0x80
 2002990:	1b1c      	subs	r4, r3, r4
 2002992:	0064      	lsls	r4, r4, #1
 2002994:	5b09      	ldrh	r1, [r1, r4]
 2002996:	233f      	movs	r3, #63	; 0x3f
 2002998:	1a89      	subs	r1, r1, r2
 200299a:	4018      	ands	r0, r3
 200299c:	1c03      	adds	r3, r0, #0
 200299e:	434b      	muls	r3, r1
 20029a0:	1198      	asrs	r0, r3, #6
 20029a2:	1880      	adds	r0, r0, r2
 20029a4:	0340      	lsls	r0, r0, #13
 20029a6:	1400      	asrs	r0, r0, #16
 20029a8:	bd30      	pop	{r4, r5, pc}
 20029aa:	2bff      	cmp	r3, #255	; 0xff
 20029ac:	dc05      	bgt.n	20029ba <sinLerp+0x66>
 20029ae:	2380      	movs	r3, #128	; 0x80
 20029b0:	4909      	ldr	r1, [pc, #36]	; (20029d8 <sinLerp+0x84>)
 20029b2:	1a9a      	subs	r2, r3, r2
 20029b4:	0052      	lsls	r2, r2, #1
 20029b6:	5a8a      	ldrh	r2, [r1, r2]
 20029b8:	e7d6      	b.n	2002968 <sinLerp+0x14>
 20029ba:	4908      	ldr	r1, [pc, #32]	; (20029dc <sinLerp+0x88>)
 20029bc:	428b      	cmp	r3, r1
 20029be:	dc04      	bgt.n	20029ca <sinLerp+0x76>
 20029c0:	4905      	ldr	r1, [pc, #20]	; (20029d8 <sinLerp+0x84>)
 20029c2:	0052      	lsls	r2, r2, #1
 20029c4:	5a8a      	ldrh	r2, [r1, r2]
 20029c6:	4252      	negs	r2, r2
 20029c8:	e7ce      	b.n	2002968 <sinLerp+0x14>
 20029ca:	2380      	movs	r3, #128	; 0x80
 20029cc:	4902      	ldr	r1, [pc, #8]	; (20029d8 <sinLerp+0x84>)
 20029ce:	1a9a      	subs	r2, r3, r2
 20029d0:	0052      	lsls	r2, r2, #1
 20029d2:	5a8a      	ldrh	r2, [r1, r2]
 20029d4:	4252      	negs	r2, r2
 20029d6:	e7c7      	b.n	2002968 <sinLerp+0x14>
 20029d8:	0200e634 	.word	0x0200e634
 20029dc:	0000017f 	.word	0x0000017f

020029e0 <cosLerp>:
 20029e0:	b510      	push	{r4, lr}
 20029e2:	2380      	movs	r3, #128	; 0x80
 20029e4:	019b      	lsls	r3, r3, #6
 20029e6:	18c0      	adds	r0, r0, r3
 20029e8:	0400      	lsls	r0, r0, #16
 20029ea:	1400      	asrs	r0, r0, #16
 20029ec:	f7ff ffb2 	bl	2002954 <sinLerp>
 20029f0:	0400      	lsls	r0, r0, #16
 20029f2:	1400      	asrs	r0, r0, #16
 20029f4:	bd10      	pop	{r4, pc}
 20029f6:	46c0      	nop			; (mov r8, r8)

020029f8 <tanLutLookup>:
 20029f8:	b500      	push	{lr}
 20029fa:	0480      	lsls	r0, r0, #18
 20029fc:	0e00      	lsrs	r0, r0, #24
 20029fe:	2880      	cmp	r0, #128	; 0x80
 2002a00:	d010      	beq.n	2002a24 <tanLutLookup+0x2c>
 2002a02:	237f      	movs	r3, #127	; 0x7f
 2002a04:	4003      	ands	r3, r0
 2002a06:	287f      	cmp	r0, #127	; 0x7f
 2002a08:	dd07      	ble.n	2002a1a <tanLutLookup+0x22>
 2002a0a:	2280      	movs	r2, #128	; 0x80
 2002a0c:	1ad3      	subs	r3, r2, r3
 2002a0e:	4a07      	ldr	r2, [pc, #28]	; (2002a2c <tanLutLookup+0x34>)
 2002a10:	009b      	lsls	r3, r3, #2
 2002a12:	18d3      	adds	r3, r2, r3
 2002a14:	6858      	ldr	r0, [r3, #4]
 2002a16:	4240      	negs	r0, r0
 2002a18:	bd00      	pop	{pc}
 2002a1a:	4a04      	ldr	r2, [pc, #16]	; (2002a2c <tanLutLookup+0x34>)
 2002a1c:	009b      	lsls	r3, r3, #2
 2002a1e:	18d3      	adds	r3, r2, r3
 2002a20:	6858      	ldr	r0, [r3, #4]
 2002a22:	e7f9      	b.n	2002a18 <tanLutLookup+0x20>
 2002a24:	20c8      	movs	r0, #200	; 0xc8
 2002a26:	0440      	lsls	r0, r0, #17
 2002a28:	e7f6      	b.n	2002a18 <tanLutLookup+0x20>
 2002a2a:	46c0      	nop			; (mov r8, r8)
 2002a2c:	0200e734 	.word	0x0200e734

02002a30 <tanLerp>:
 2002a30:	b500      	push	{lr}
 2002a32:	4a24      	ldr	r2, [pc, #144]	; (2002ac4 <tanLerp+0x94>)
 2002a34:	1181      	asrs	r1, r0, #6
 2002a36:	23c0      	movs	r3, #192	; 0xc0
 2002a38:	400a      	ands	r2, r1
 2002a3a:	005b      	lsls	r3, r3, #1
 2002a3c:	429a      	cmp	r2, r3
 2002a3e:	d016      	beq.n	2002a6e <tanLerp+0x3e>
 2002a40:	2a80      	cmp	r2, #128	; 0x80
 2002a42:	d014      	beq.n	2002a6e <tanLerp+0x3e>
 2002a44:	23ff      	movs	r3, #255	; 0xff
 2002a46:	4019      	ands	r1, r3
 2002a48:	2980      	cmp	r1, #128	; 0x80
 2002a4a:	d038      	beq.n	2002abe <tanLerp+0x8e>
 2002a4c:	237f      	movs	r3, #127	; 0x7f
 2002a4e:	400b      	ands	r3, r1
 2002a50:	297f      	cmp	r1, #127	; 0x7f
 2002a52:	dc2c      	bgt.n	2002aae <tanLerp+0x7e>
 2002a54:	4a1c      	ldr	r2, [pc, #112]	; (2002ac8 <tanLerp+0x98>)
 2002a56:	009b      	lsls	r3, r3, #2
 2002a58:	18d3      	adds	r3, r2, r3
 2002a5a:	685a      	ldr	r2, [r3, #4]
 2002a5c:	1c03      	adds	r3, r0, #0
 2002a5e:	3340      	adds	r3, #64	; 0x40
 2002a60:	049b      	lsls	r3, r3, #18
 2002a62:	0e1b      	lsrs	r3, r3, #24
 2002a64:	2b80      	cmp	r3, #128	; 0x80
 2002a66:	d109      	bne.n	2002a7c <tanLerp+0x4c>
 2002a68:	23c8      	movs	r3, #200	; 0xc8
 2002a6a:	045b      	lsls	r3, r3, #17
 2002a6c:	e011      	b.n	2002a92 <tanLerp+0x62>
 2002a6e:	4a17      	ldr	r2, [pc, #92]	; (2002acc <tanLerp+0x9c>)
 2002a70:	1c03      	adds	r3, r0, #0
 2002a72:	3340      	adds	r3, #64	; 0x40
 2002a74:	049b      	lsls	r3, r3, #18
 2002a76:	0e1b      	lsrs	r3, r3, #24
 2002a78:	2b80      	cmp	r3, #128	; 0x80
 2002a7a:	d0f5      	beq.n	2002a68 <tanLerp+0x38>
 2002a7c:	217f      	movs	r1, #127	; 0x7f
 2002a7e:	4019      	ands	r1, r3
 2002a80:	2b7f      	cmp	r3, #127	; 0x7f
 2002a82:	dd0f      	ble.n	2002aa4 <tanLerp+0x74>
 2002a84:	2380      	movs	r3, #128	; 0x80
 2002a86:	1a59      	subs	r1, r3, r1
 2002a88:	4b0f      	ldr	r3, [pc, #60]	; (2002ac8 <tanLerp+0x98>)
 2002a8a:	0089      	lsls	r1, r1, #2
 2002a8c:	1859      	adds	r1, r3, r1
 2002a8e:	684b      	ldr	r3, [r1, #4]
 2002a90:	425b      	negs	r3, r3
 2002a92:	213f      	movs	r1, #63	; 0x3f
 2002a94:	1a9b      	subs	r3, r3, r2
 2002a96:	4008      	ands	r0, r1
 2002a98:	1c01      	adds	r1, r0, #0
 2002a9a:	4359      	muls	r1, r3
 2002a9c:	1188      	asrs	r0, r1, #6
 2002a9e:	1882      	adds	r2, r0, r2
 2002aa0:	1110      	asrs	r0, r2, #4
 2002aa2:	bd00      	pop	{pc}
 2002aa4:	4b08      	ldr	r3, [pc, #32]	; (2002ac8 <tanLerp+0x98>)
 2002aa6:	0089      	lsls	r1, r1, #2
 2002aa8:	1859      	adds	r1, r3, r1
 2002aaa:	684b      	ldr	r3, [r1, #4]
 2002aac:	e7f1      	b.n	2002a92 <tanLerp+0x62>
 2002aae:	2280      	movs	r2, #128	; 0x80
 2002ab0:	1ad3      	subs	r3, r2, r3
 2002ab2:	4a05      	ldr	r2, [pc, #20]	; (2002ac8 <tanLerp+0x98>)
 2002ab4:	009b      	lsls	r3, r3, #2
 2002ab6:	18d3      	adds	r3, r2, r3
 2002ab8:	685a      	ldr	r2, [r3, #4]
 2002aba:	4252      	negs	r2, r2
 2002abc:	e7d8      	b.n	2002a70 <tanLerp+0x40>
 2002abe:	22c8      	movs	r2, #200	; 0xc8
 2002ac0:	0452      	lsls	r2, r2, #17
 2002ac2:	e7d5      	b.n	2002a70 <tanLerp+0x40>
 2002ac4:	000001ff 	.word	0x000001ff
 2002ac8:	0200e734 	.word	0x0200e734
 2002acc:	fe700000 	.word	0xfe700000

02002ad0 <arcSinComp>:
 2002ad0:	b530      	push	{r4, r5, lr}
 2002ad2:	8800      	ldrh	r0, [r0, #0]
 2002ad4:	880c      	ldrh	r4, [r1, #0]
 2002ad6:	0400      	lsls	r0, r0, #16
 2002ad8:	0424      	lsls	r4, r4, #16
 2002ada:	1403      	asrs	r3, r0, #16
 2002adc:	1422      	asrs	r2, r4, #16
 2002ade:	4293      	cmp	r3, r2
 2002ae0:	d005      	beq.n	2002aee <arcSinComp+0x1e>
 2002ae2:	4293      	cmp	r3, r2
 2002ae4:	dd05      	ble.n	2002af2 <arcSinComp+0x22>
 2002ae6:	2502      	movs	r5, #2
 2002ae8:	5f4a      	ldrsh	r2, [r1, r5]
 2002aea:	429a      	cmp	r2, r3
 2002aec:	dd01      	ble.n	2002af2 <arcSinComp+0x22>
 2002aee:	2000      	movs	r0, #0
 2002af0:	bd30      	pop	{r4, r5, pc}
 2002af2:	4284      	cmp	r4, r0
 2002af4:	dc01      	bgt.n	2002afa <arcSinComp+0x2a>
 2002af6:	2001      	movs	r0, #1
 2002af8:	e7fa      	b.n	2002af0 <arcSinComp+0x20>
 2002afa:	2001      	movs	r0, #1
 2002afc:	4240      	negs	r0, r0
 2002afe:	e7f7      	b.n	2002af0 <arcSinComp+0x20>

02002b00 <asinLerp>:
 2002b00:	b530      	push	{r4, r5, lr}
 2002b02:	b085      	sub	sp, #20
 2002b04:	466b      	mov	r3, sp
 2002b06:	330e      	adds	r3, #14
 2002b08:	8018      	strh	r0, [r3, #0]
 2002b0a:	2100      	movs	r1, #0
 2002b0c:	5e5a      	ldrsh	r2, [r3, r1]
 2002b0e:	04d2      	lsls	r2, r2, #19
 2002b10:	0c12      	lsrs	r2, r2, #16
 2002b12:	0411      	lsls	r1, r2, #16
 2002b14:	801a      	strh	r2, [r3, #0]
 2002b16:	2900      	cmp	r1, #0
 2002b18:	db12      	blt.n	2002b40 <asinLerp+0x40>
 2002b1a:	2400      	movs	r4, #0
 2002b1c:	1409      	asrs	r1, r1, #16
 2002b1e:	293f      	cmp	r1, #63	; 0x3f
 2002b20:	dd0c      	ble.n	2002b3c <asinLerp+0x3c>
 2002b22:	4d16      	ldr	r5, [pc, #88]	; (2002b7c <asinLerp+0x7c>)
 2002b24:	22fe      	movs	r2, #254	; 0xfe
 2002b26:	5aaa      	ldrh	r2, [r5, r2]
 2002b28:	4291      	cmp	r1, r2
 2002b2a:	db10      	blt.n	2002b4e <asinLerp+0x4e>
 2002b2c:	2c00      	cmp	r4, #0
 2002b2e:	d121      	bne.n	2002b74 <asinLerp+0x74>
 2002b30:	2080      	movs	r0, #128	; 0x80
 2002b32:	0180      	lsls	r0, r0, #6
 2002b34:	b005      	add	sp, #20
 2002b36:	0400      	lsls	r0, r0, #16
 2002b38:	1400      	asrs	r0, r0, #16
 2002b3a:	bd30      	pop	{r4, r5, pc}
 2002b3c:	2000      	movs	r0, #0
 2002b3e:	e7f9      	b.n	2002b34 <asinLerp+0x34>
 2002b40:	4252      	negs	r2, r2
 2002b42:	0412      	lsls	r2, r2, #16
 2002b44:	0c12      	lsrs	r2, r2, #16
 2002b46:	801a      	strh	r2, [r3, #0]
 2002b48:	2401      	movs	r4, #1
 2002b4a:	0411      	lsls	r1, r2, #16
 2002b4c:	e7e6      	b.n	2002b1c <asinLerp+0x1c>
 2002b4e:	4a0c      	ldr	r2, [pc, #48]	; (2002b80 <asinLerp+0x80>)
 2002b50:	1c18      	adds	r0, r3, #0
 2002b52:	9200      	str	r2, [sp, #0]
 2002b54:	1c29      	adds	r1, r5, #0
 2002b56:	2280      	movs	r2, #128	; 0x80
 2002b58:	2302      	movs	r3, #2
 2002b5a:	f000 f81f 	bl	2002b9c <bsearch>
 2002b5e:	1b40      	subs	r0, r0, r5
 2002b60:	1040      	asrs	r0, r0, #1
 2002b62:	3001      	adds	r0, #1
 2002b64:	0580      	lsls	r0, r0, #22
 2002b66:	0c00      	lsrs	r0, r0, #16
 2002b68:	2c00      	cmp	r4, #0
 2002b6a:	d0e3      	beq.n	2002b34 <asinLerp+0x34>
 2002b6c:	4240      	negs	r0, r0
 2002b6e:	0400      	lsls	r0, r0, #16
 2002b70:	0c00      	lsrs	r0, r0, #16
 2002b72:	e7df      	b.n	2002b34 <asinLerp+0x34>
 2002b74:	20e0      	movs	r0, #224	; 0xe0
 2002b76:	0200      	lsls	r0, r0, #8
 2002b78:	e7dc      	b.n	2002b34 <asinLerp+0x34>
 2002b7a:	46c0      	nop			; (mov r8, r8)
 2002b7c:	0200e634 	.word	0x0200e634
 2002b80:	02002ad1 	.word	0x02002ad1

02002b84 <acosLerp>:
 2002b84:	b510      	push	{r4, lr}
 2002b86:	f7ff ffbb 	bl	2002b00 <asinLerp>
 2002b8a:	2380      	movs	r3, #128	; 0x80
 2002b8c:	0400      	lsls	r0, r0, #16
 2002b8e:	0c00      	lsrs	r0, r0, #16
 2002b90:	019b      	lsls	r3, r3, #6
 2002b92:	1a18      	subs	r0, r3, r0
 2002b94:	0400      	lsls	r0, r0, #16
 2002b96:	1400      	asrs	r0, r0, #16
 2002b98:	bd10      	pop	{r4, pc}
 2002b9a:	46c0      	nop			; (mov r8, r8)

02002b9c <bsearch>:
 2002b9c:	b5f8      	push	{r3, r4, r5, r6, r7, lr}
 2002b9e:	465f      	mov	r7, fp
 2002ba0:	4656      	mov	r6, sl
 2002ba2:	464d      	mov	r5, r9
 2002ba4:	4644      	mov	r4, r8
 2002ba6:	b4f0      	push	{r4, r5, r6, r7}
 2002ba8:	4698      	mov	r8, r3
 2002baa:	9b0a      	ldr	r3, [sp, #40]	; 0x28
 2002bac:	469b      	mov	fp, r3
 2002bae:	4643      	mov	r3, r8
 2002bb0:	4681      	mov	r9, r0
 2002bb2:	468a      	mov	sl, r1
 2002bb4:	2b00      	cmp	r3, #0
 2002bb6:	d016      	beq.n	2002be6 <bsearch+0x4a>
 2002bb8:	2a00      	cmp	r2, #0
 2002bba:	d014      	beq.n	2002be6 <bsearch+0x4a>
 2002bbc:	1c16      	adds	r6, r2, #0
 2002bbe:	2700      	movs	r7, #0
 2002bc0:	e000      	b.n	2002bc4 <bsearch+0x28>
 2002bc2:	1c2e      	adds	r6, r5, #0
 2002bc4:	42be      	cmp	r6, r7
 2002bc6:	d90e      	bls.n	2002be6 <bsearch+0x4a>
 2002bc8:	19f5      	adds	r5, r6, r7
 2002bca:	086d      	lsrs	r5, r5, #1
 2002bcc:	4644      	mov	r4, r8
 2002bce:	436c      	muls	r4, r5
 2002bd0:	4454      	add	r4, sl
 2002bd2:	4648      	mov	r0, r9
 2002bd4:	1c21      	adds	r1, r4, #0
 2002bd6:	f000 f810 	bl	2002bfa <bsearch+0x5e>
 2002bda:	2800      	cmp	r0, #0
 2002bdc:	dbf1      	blt.n	2002bc2 <bsearch+0x26>
 2002bde:	2800      	cmp	r0, #0
 2002be0:	d002      	beq.n	2002be8 <bsearch+0x4c>
 2002be2:	1c6f      	adds	r7, r5, #1
 2002be4:	e7ee      	b.n	2002bc4 <bsearch+0x28>
 2002be6:	2400      	movs	r4, #0
 2002be8:	1c20      	adds	r0, r4, #0
 2002bea:	bc3c      	pop	{r2, r3, r4, r5}
 2002bec:	4690      	mov	r8, r2
 2002bee:	4699      	mov	r9, r3
 2002bf0:	46a2      	mov	sl, r4
 2002bf2:	46ab      	mov	fp, r5
 2002bf4:	bcf8      	pop	{r3, r4, r5, r6, r7}
 2002bf6:	bc02      	pop	{r1}
 2002bf8:	4708      	bx	r1
 2002bfa:	4758      	bx	fp

02002bfc <__libc_fini_array>:
 2002bfc:	b570      	push	{r4, r5, r6, lr}
 2002bfe:	4b0b      	ldr	r3, [pc, #44]	; (2002c2c <__libc_fini_array+0x30>)
 2002c00:	4c0b      	ldr	r4, [pc, #44]	; (2002c30 <__libc_fini_array+0x34>)
 2002c02:	1ae4      	subs	r4, r4, r3
 2002c04:	10a4      	asrs	r4, r4, #2
 2002c06:	2c00      	cmp	r4, #0
 2002c08:	d00a      	beq.n	2002c20 <__libc_fini_array+0x24>
 2002c0a:	4a0a      	ldr	r2, [pc, #40]	; (2002c34 <__libc_fini_array+0x38>)
 2002c0c:	18a5      	adds	r5, r4, r2
 2002c0e:	00ad      	lsls	r5, r5, #2
 2002c10:	195d      	adds	r5, r3, r5
 2002c12:	682b      	ldr	r3, [r5, #0]
 2002c14:	3c01      	subs	r4, #1
 2002c16:	f000 f837 	bl	2002c88 <__libc_init_array+0x50>
 2002c1a:	3d04      	subs	r5, #4
 2002c1c:	2c00      	cmp	r4, #0
 2002c1e:	d1f8      	bne.n	2002c12 <__libc_fini_array+0x16>
 2002c20:	f005 fbf8 	bl	2008414 <_fini>
 2002c24:	bc70      	pop	{r4, r5, r6}
 2002c26:	bc01      	pop	{r0}
 2002c28:	4700      	bx	r0
 2002c2a:	46c0      	nop			; (mov r8, r8)
 2002c2c:	0200e54c 	.word	0x0200e54c
 2002c30:	0200e550 	.word	0x0200e550
 2002c34:	3fffffff 	.word	0x3fffffff

02002c38 <__libc_init_array>:
 2002c38:	b570      	push	{r4, r5, r6, lr}
 2002c3a:	4d0f      	ldr	r5, [pc, #60]	; (2002c78 <__libc_init_array+0x40>)
 2002c3c:	4e0f      	ldr	r6, [pc, #60]	; (2002c7c <__libc_init_array+0x44>)
 2002c3e:	1b76      	subs	r6, r6, r5
 2002c40:	10b6      	asrs	r6, r6, #2
 2002c42:	2e00      	cmp	r6, #0
 2002c44:	d006      	beq.n	2002c54 <__libc_init_array+0x1c>
 2002c46:	2400      	movs	r4, #0
 2002c48:	cd08      	ldmia	r5!, {r3}
 2002c4a:	3401      	adds	r4, #1
 2002c4c:	f000 f81c 	bl	2002c88 <__libc_init_array+0x50>
 2002c50:	42a6      	cmp	r6, r4
 2002c52:	d8f9      	bhi.n	2002c48 <__libc_init_array+0x10>
 2002c54:	f7fd faec 	bl	2000230 <_init>
 2002c58:	4d09      	ldr	r5, [pc, #36]	; (2002c80 <__libc_init_array+0x48>)
 2002c5a:	4e0a      	ldr	r6, [pc, #40]	; (2002c84 <__libc_init_array+0x4c>)
 2002c5c:	1b76      	subs	r6, r6, r5
 2002c5e:	10b6      	asrs	r6, r6, #2
 2002c60:	2e00      	cmp	r6, #0
 2002c62:	d006      	beq.n	2002c72 <__libc_init_array+0x3a>
 2002c64:	2400      	movs	r4, #0
 2002c66:	cd08      	ldmia	r5!, {r3}
 2002c68:	3401      	adds	r4, #1
 2002c6a:	f000 f80d 	bl	2002c88 <__libc_init_array+0x50>
 2002c6e:	42a6      	cmp	r6, r4
 2002c70:	d8f9      	bhi.n	2002c66 <__libc_init_array+0x2e>
 2002c72:	bc70      	pop	{r4, r5, r6}
 2002c74:	bc01      	pop	{r0}
 2002c76:	4700      	bx	r0
 2002c78:	0200e548 	.word	0x0200e548
 2002c7c:	0200e548 	.word	0x0200e548
 2002c80:	0200e548 	.word	0x0200e548
 2002c84:	0200e54c 	.word	0x0200e54c
 2002c88:	4718      	bx	r3
 2002c8a:	46c0      	nop			; (mov r8, r8)

02002c8c <_iprintf_r>:
 2002c8c:	b40e      	push	{r1, r2, r3}
 2002c8e:	b500      	push	{lr}
 2002c90:	b082      	sub	sp, #8
 2002c92:	ab03      	add	r3, sp, #12
 2002c94:	cb04      	ldmia	r3!, {r2}
 2002c96:	6881      	ldr	r1, [r0, #8]
 2002c98:	9301      	str	r3, [sp, #4]
 2002c9a:	f001 f885 	bl	2003da8 <_vfiprintf_r>
 2002c9e:	b002      	add	sp, #8
 2002ca0:	bc08      	pop	{r3}
 2002ca2:	b003      	add	sp, #12
 2002ca4:	4718      	bx	r3
 2002ca6:	46c0      	nop			; (mov r8, r8)

02002ca8 <iprintf>:
 2002ca8:	b40f      	push	{r0, r1, r2, r3}
 2002caa:	b500      	push	{lr}
 2002cac:	b083      	sub	sp, #12
 2002cae:	4906      	ldr	r1, [pc, #24]	; (2002cc8 <iprintf+0x20>)
 2002cb0:	ab04      	add	r3, sp, #16
 2002cb2:	6808      	ldr	r0, [r1, #0]
 2002cb4:	cb04      	ldmia	r3!, {r2}
 2002cb6:	6881      	ldr	r1, [r0, #8]
 2002cb8:	9301      	str	r3, [sp, #4]
 2002cba:	f001 f875 	bl	2003da8 <_vfiprintf_r>
 2002cbe:	b003      	add	sp, #12
 2002cc0:	bc08      	pop	{r3}
 2002cc2:	b004      	add	sp, #16
 2002cc4:	4718      	bx	r3
 2002cc6:	46c0      	nop			; (mov r8, r8)
 2002cc8:	0200e940 	.word	0x0200e940

02002ccc <memcpy>:
 2002ccc:	b5f0      	push	{r4, r5, r6, r7, lr}
 2002cce:	1c06      	adds	r6, r0, #0
 2002cd0:	1c0d      	adds	r5, r1, #0
 2002cd2:	1c14      	adds	r4, r2, #0
 2002cd4:	2a0f      	cmp	r2, #15
 2002cd6:	d903      	bls.n	2002ce0 <memcpy+0x14>
 2002cd8:	1c0b      	adds	r3, r1, #0
 2002cda:	4303      	orrs	r3, r0
 2002cdc:	079f      	lsls	r7, r3, #30
 2002cde:	d00a      	beq.n	2002cf6 <memcpy+0x2a>
 2002ce0:	2c00      	cmp	r4, #0
 2002ce2:	d005      	beq.n	2002cf0 <memcpy+0x24>
 2002ce4:	2300      	movs	r3, #0
 2002ce6:	5cea      	ldrb	r2, [r5, r3]
 2002ce8:	54f2      	strb	r2, [r6, r3]
 2002cea:	3301      	adds	r3, #1
 2002cec:	42a3      	cmp	r3, r4
 2002cee:	d1fa      	bne.n	2002ce6 <memcpy+0x1a>
 2002cf0:	bcf0      	pop	{r4, r5, r6, r7}
 2002cf2:	bc02      	pop	{r1}
 2002cf4:	4708      	bx	r1
 2002cf6:	1c15      	adds	r5, r2, #0
 2002cf8:	1c0c      	adds	r4, r1, #0
 2002cfa:	1c03      	adds	r3, r0, #0
 2002cfc:	6826      	ldr	r6, [r4, #0]
 2002cfe:	601e      	str	r6, [r3, #0]
 2002d00:	6866      	ldr	r6, [r4, #4]
 2002d02:	605e      	str	r6, [r3, #4]
 2002d04:	68a6      	ldr	r6, [r4, #8]
 2002d06:	609e      	str	r6, [r3, #8]
 2002d08:	68e6      	ldr	r6, [r4, #12]
 2002d0a:	3d10      	subs	r5, #16
 2002d0c:	60de      	str	r6, [r3, #12]
 2002d0e:	3410      	adds	r4, #16
 2002d10:	3310      	adds	r3, #16
 2002d12:	2d0f      	cmp	r5, #15
 2002d14:	d8f2      	bhi.n	2002cfc <memcpy+0x30>
 2002d16:	3a10      	subs	r2, #16
 2002d18:	0913      	lsrs	r3, r2, #4
 2002d1a:	1c5d      	adds	r5, r3, #1
 2002d1c:	012d      	lsls	r5, r5, #4
 2002d1e:	011b      	lsls	r3, r3, #4
 2002d20:	1946      	adds	r6, r0, r5
 2002d22:	194d      	adds	r5, r1, r5
 2002d24:	1ad1      	subs	r1, r2, r3
 2002d26:	1c0c      	adds	r4, r1, #0
 2002d28:	2903      	cmp	r1, #3
 2002d2a:	d9d9      	bls.n	2002ce0 <memcpy+0x14>
 2002d2c:	2300      	movs	r3, #0
 2002d2e:	58ea      	ldr	r2, [r5, r3]
 2002d30:	50f2      	str	r2, [r6, r3]
 2002d32:	3304      	adds	r3, #4
 2002d34:	1aca      	subs	r2, r1, r3
 2002d36:	2a03      	cmp	r2, #3
 2002d38:	d8f9      	bhi.n	2002d2e <memcpy+0x62>
 2002d3a:	3904      	subs	r1, #4
 2002d3c:	088c      	lsrs	r4, r1, #2
 2002d3e:	1c63      	adds	r3, r4, #1
 2002d40:	009b      	lsls	r3, r3, #2
 2002d42:	00a4      	lsls	r4, r4, #2
 2002d44:	18f6      	adds	r6, r6, r3
 2002d46:	18ed      	adds	r5, r5, r3
 2002d48:	1b0c      	subs	r4, r1, r4
 2002d4a:	e7c9      	b.n	2002ce0 <memcpy+0x14>

02002d4c <memset>:
 2002d4c:	b570      	push	{r4, r5, r6, lr}
 2002d4e:	1c03      	adds	r3, r0, #0
 2002d50:	0784      	lsls	r4, r0, #30
 2002d52:	d00d      	beq.n	2002d70 <memset+0x24>
 2002d54:	2a00      	cmp	r2, #0
 2002d56:	d040      	beq.n	2002dda <memset+0x8e>
 2002d58:	060d      	lsls	r5, r1, #24
 2002d5a:	3a01      	subs	r2, #1
 2002d5c:	0e2d      	lsrs	r5, r5, #24
 2002d5e:	2403      	movs	r4, #3
 2002d60:	e002      	b.n	2002d68 <memset+0x1c>
 2002d62:	2a00      	cmp	r2, #0
 2002d64:	d039      	beq.n	2002dda <memset+0x8e>
 2002d66:	3a01      	subs	r2, #1
 2002d68:	701d      	strb	r5, [r3, #0]
 2002d6a:	3301      	adds	r3, #1
 2002d6c:	4223      	tst	r3, r4
 2002d6e:	d1f8      	bne.n	2002d62 <memset+0x16>
 2002d70:	2a03      	cmp	r2, #3
 2002d72:	d929      	bls.n	2002dc8 <memset+0x7c>
 2002d74:	25ff      	movs	r5, #255	; 0xff
 2002d76:	400d      	ands	r5, r1
 2002d78:	022c      	lsls	r4, r5, #8
 2002d7a:	4325      	orrs	r5, r4
 2002d7c:	042c      	lsls	r4, r5, #16
 2002d7e:	1c1e      	adds	r6, r3, #0
 2002d80:	4325      	orrs	r5, r4
 2002d82:	2a0f      	cmp	r2, #15
 2002d84:	d912      	bls.n	2002dac <memset+0x60>
 2002d86:	1c16      	adds	r6, r2, #0
 2002d88:	1c1c      	adds	r4, r3, #0
 2002d8a:	3e10      	subs	r6, #16
 2002d8c:	6025      	str	r5, [r4, #0]
 2002d8e:	6065      	str	r5, [r4, #4]
 2002d90:	60a5      	str	r5, [r4, #8]
 2002d92:	60e5      	str	r5, [r4, #12]
 2002d94:	3410      	adds	r4, #16
 2002d96:	2e0f      	cmp	r6, #15
 2002d98:	d8f7      	bhi.n	2002d8a <memset+0x3e>
 2002d9a:	3a10      	subs	r2, #16
 2002d9c:	0916      	lsrs	r6, r2, #4
 2002d9e:	3601      	adds	r6, #1
 2002da0:	0136      	lsls	r6, r6, #4
 2002da2:	199e      	adds	r6, r3, r6
 2002da4:	230f      	movs	r3, #15
 2002da6:	401a      	ands	r2, r3
 2002da8:	2a03      	cmp	r2, #3
 2002daa:	d90c      	bls.n	2002dc6 <memset+0x7a>
 2002dac:	2300      	movs	r3, #0
 2002dae:	50f5      	str	r5, [r6, r3]
 2002db0:	3304      	adds	r3, #4
 2002db2:	1ad4      	subs	r4, r2, r3
 2002db4:	2c03      	cmp	r4, #3
 2002db6:	d8fa      	bhi.n	2002dae <memset+0x62>
 2002db8:	3a04      	subs	r2, #4
 2002dba:	0893      	lsrs	r3, r2, #2
 2002dbc:	3301      	adds	r3, #1
 2002dbe:	009b      	lsls	r3, r3, #2
 2002dc0:	18f6      	adds	r6, r6, r3
 2002dc2:	2303      	movs	r3, #3
 2002dc4:	401a      	ands	r2, r3
 2002dc6:	1c33      	adds	r3, r6, #0
 2002dc8:	2a00      	cmp	r2, #0
 2002dca:	d006      	beq.n	2002dda <memset+0x8e>
 2002dcc:	0609      	lsls	r1, r1, #24
 2002dce:	0e0c      	lsrs	r4, r1, #24
 2002dd0:	2100      	movs	r1, #0
 2002dd2:	545c      	strb	r4, [r3, r1]
 2002dd4:	3101      	adds	r1, #1
 2002dd6:	428a      	cmp	r2, r1
 2002dd8:	d1fb      	bne.n	2002dd2 <memset+0x86>
 2002dda:	bc70      	pop	{r4, r5, r6}
 2002ddc:	bc02      	pop	{r1}
 2002dde:	4708      	bx	r1

02002de0 <setvbuf>:
 2002de0:	b5f8      	push	{r3, r4, r5, r6, r7, lr}
 2002de2:	4657      	mov	r7, sl
 2002de4:	4646      	mov	r6, r8
 2002de6:	b4c0      	push	{r6, r7}
 2002de8:	4e3d      	ldr	r6, [pc, #244]	; (2002ee0 <setvbuf+0x100>)
 2002dea:	1c04      	adds	r4, r0, #0
 2002dec:	6830      	ldr	r0, [r6, #0]
 2002dee:	4688      	mov	r8, r1
 2002df0:	1c17      	adds	r7, r2, #0
 2002df2:	1c1d      	adds	r5, r3, #0
 2002df4:	2800      	cmp	r0, #0
 2002df6:	d002      	beq.n	2002dfe <setvbuf+0x1e>
 2002df8:	6b83      	ldr	r3, [r0, #56]	; 0x38
 2002dfa:	2b00      	cmp	r3, #0
 2002dfc:	d034      	beq.n	2002e68 <setvbuf+0x88>
 2002dfe:	46aa      	mov	sl, r5
 2002e00:	2d00      	cmp	r5, #0
 2002e02:	db29      	blt.n	2002e58 <setvbuf+0x78>
 2002e04:	2f02      	cmp	r7, #2
 2002e06:	d827      	bhi.n	2002e58 <setvbuf+0x78>
 2002e08:	6830      	ldr	r0, [r6, #0]
 2002e0a:	1c21      	adds	r1, r4, #0
 2002e0c:	f002 f8b4 	bl	2004f78 <_fflush_r>
 2002e10:	2300      	movs	r3, #0
 2002e12:	6063      	str	r3, [r4, #4]
 2002e14:	61a3      	str	r3, [r4, #24]
 2002e16:	89a3      	ldrh	r3, [r4, #12]
 2002e18:	041a      	lsls	r2, r3, #16
 2002e1a:	0619      	lsls	r1, r3, #24
 2002e1c:	d427      	bmi.n	2002e6e <setvbuf+0x8e>
 2002e1e:	4b31      	ldr	r3, [pc, #196]	; (2002ee4 <setvbuf+0x104>)
 2002e20:	0c12      	lsrs	r2, r2, #16
 2002e22:	401a      	ands	r2, r3
 2002e24:	81a2      	strh	r2, [r4, #12]
 2002e26:	2f02      	cmp	r7, #2
 2002e28:	d02f      	beq.n	2002e8a <setvbuf+0xaa>
 2002e2a:	4642      	mov	r2, r8
 2002e2c:	2a00      	cmp	r2, #0
 2002e2e:	d039      	beq.n	2002ea4 <setvbuf+0xc4>
 2002e30:	2f01      	cmp	r7, #1
 2002e32:	d023      	beq.n	2002e7c <setvbuf+0x9c>
 2002e34:	6833      	ldr	r3, [r6, #0]
 2002e36:	4a2c      	ldr	r2, [pc, #176]	; (2002ee8 <setvbuf+0x108>)
 2002e38:	63da      	str	r2, [r3, #60]	; 0x3c
 2002e3a:	4643      	mov	r3, r8
 2002e3c:	6023      	str	r3, [r4, #0]
 2002e3e:	6123      	str	r3, [r4, #16]
 2002e40:	89a3      	ldrh	r3, [r4, #12]
 2002e42:	6165      	str	r5, [r4, #20]
 2002e44:	0719      	lsls	r1, r3, #28
 2002e46:	d505      	bpl.n	2002e54 <setvbuf+0x74>
 2002e48:	079a      	lsls	r2, r3, #30
 2002e4a:	d001      	beq.n	2002e50 <setvbuf+0x70>
 2002e4c:	2300      	movs	r3, #0
 2002e4e:	469a      	mov	sl, r3
 2002e50:	4651      	mov	r1, sl
 2002e52:	60a1      	str	r1, [r4, #8]
 2002e54:	2000      	movs	r0, #0
 2002e56:	e001      	b.n	2002e5c <setvbuf+0x7c>
 2002e58:	2001      	movs	r0, #1
 2002e5a:	4240      	negs	r0, r0
 2002e5c:	bc0c      	pop	{r2, r3}
 2002e5e:	4690      	mov	r8, r2
 2002e60:	469a      	mov	sl, r3
 2002e62:	bcf8      	pop	{r3, r4, r5, r6, r7}
 2002e64:	bc02      	pop	{r1}
 2002e66:	4708      	bx	r1
 2002e68:	f002 f9aa 	bl	20051c0 <__sinit>
 2002e6c:	e7c7      	b.n	2002dfe <setvbuf+0x1e>
 2002e6e:	6830      	ldr	r0, [r6, #0]
 2002e70:	6921      	ldr	r1, [r4, #16]
 2002e72:	f002 fb0d 	bl	2005490 <_free_r>
 2002e76:	89a3      	ldrh	r3, [r4, #12]
 2002e78:	041a      	lsls	r2, r3, #16
 2002e7a:	e7d0      	b.n	2002e1e <setvbuf+0x3e>
 2002e7c:	89a2      	ldrh	r2, [r4, #12]
 2002e7e:	2301      	movs	r3, #1
 2002e80:	4313      	orrs	r3, r2
 2002e82:	81a3      	strh	r3, [r4, #12]
 2002e84:	426b      	negs	r3, r5
 2002e86:	61a3      	str	r3, [r4, #24]
 2002e88:	e7d4      	b.n	2002e34 <setvbuf+0x54>
 2002e8a:	2000      	movs	r0, #0
 2002e8c:	2302      	movs	r3, #2
 2002e8e:	431a      	orrs	r2, r3
 2002e90:	2300      	movs	r3, #0
 2002e92:	60a3      	str	r3, [r4, #8]
 2002e94:	1c23      	adds	r3, r4, #0
 2002e96:	3343      	adds	r3, #67	; 0x43
 2002e98:	6023      	str	r3, [r4, #0]
 2002e9a:	6123      	str	r3, [r4, #16]
 2002e9c:	2301      	movs	r3, #1
 2002e9e:	81a2      	strh	r2, [r4, #12]
 2002ea0:	6163      	str	r3, [r4, #20]
 2002ea2:	e7db      	b.n	2002e5c <setvbuf+0x7c>
 2002ea4:	2d00      	cmp	r5, #0
 2002ea6:	d101      	bne.n	2002eac <setvbuf+0xcc>
 2002ea8:	2580      	movs	r5, #128	; 0x80
 2002eaa:	00ed      	lsls	r5, r5, #3
 2002eac:	1c28      	adds	r0, r5, #0
 2002eae:	f003 fb47 	bl	2006540 <malloc>
 2002eb2:	4680      	mov	r8, r0
 2002eb4:	2800      	cmp	r0, #0
 2002eb6:	d005      	beq.n	2002ec4 <setvbuf+0xe4>
 2002eb8:	89a2      	ldrh	r2, [r4, #12]
 2002eba:	2380      	movs	r3, #128	; 0x80
 2002ebc:	4313      	orrs	r3, r2
 2002ebe:	81a3      	strh	r3, [r4, #12]
 2002ec0:	46aa      	mov	sl, r5
 2002ec2:	e7b5      	b.n	2002e30 <setvbuf+0x50>
 2002ec4:	2080      	movs	r0, #128	; 0x80
 2002ec6:	00c0      	lsls	r0, r0, #3
 2002ec8:	f003 fb3a 	bl	2006540 <malloc>
 2002ecc:	4680      	mov	r8, r0
 2002ece:	2800      	cmp	r0, #0
 2002ed0:	d103      	bne.n	2002eda <setvbuf+0xfa>
 2002ed2:	2001      	movs	r0, #1
 2002ed4:	89a2      	ldrh	r2, [r4, #12]
 2002ed6:	4240      	negs	r0, r0
 2002ed8:	e7d8      	b.n	2002e8c <setvbuf+0xac>
 2002eda:	2580      	movs	r5, #128	; 0x80
 2002edc:	00ed      	lsls	r5, r5, #3
 2002ede:	e7eb      	b.n	2002eb8 <setvbuf+0xd8>
 2002ee0:	0200e940 	.word	0x0200e940
 2002ee4:	0000ff7c 	.word	0x0000ff7c
 2002ee8:	0200514d 	.word	0x0200514d

02002eec <_siscanf_r>:
 2002eec:	b40c      	push	{r2, r3}
 2002eee:	b5f0      	push	{r4, r5, r6, r7, lr}
 2002ef0:	b09d      	sub	sp, #116	; 0x74
 2002ef2:	2381      	movs	r3, #129	; 0x81
 2002ef4:	ac01      	add	r4, sp, #4
 2002ef6:	ad22      	add	r5, sp, #136	; 0x88
 2002ef8:	1c06      	adds	r6, r0, #0
 2002efa:	009b      	lsls	r3, r3, #2
 2002efc:	1c08      	adds	r0, r1, #0
 2002efe:	cd80      	ldmia	r5!, {r7}
 2002f00:	81a3      	strh	r3, [r4, #12]
 2002f02:	9101      	str	r1, [sp, #4]
 2002f04:	6121      	str	r1, [r4, #16]
 2002f06:	f000 f897 	bl	2003038 <strlen>
 2002f0a:	4b0b      	ldr	r3, [pc, #44]	; (2002f38 <_siscanf_r+0x4c>)
 2002f0c:	6223      	str	r3, [r4, #32]
 2002f0e:	2300      	movs	r3, #0
 2002f10:	6323      	str	r3, [r4, #48]	; 0x30
 2002f12:	6463      	str	r3, [r4, #68]	; 0x44
 2002f14:	2301      	movs	r3, #1
 2002f16:	425b      	negs	r3, r3
 2002f18:	6060      	str	r0, [r4, #4]
 2002f1a:	6160      	str	r0, [r4, #20]
 2002f1c:	81e3      	strh	r3, [r4, #14]
 2002f1e:	1c30      	adds	r0, r6, #0
 2002f20:	1c3a      	adds	r2, r7, #0
 2002f22:	1c2b      	adds	r3, r5, #0
 2002f24:	1c21      	adds	r1, r4, #0
 2002f26:	951b      	str	r5, [sp, #108]	; 0x6c
 2002f28:	f000 f942 	bl	20031b0 <__ssvfiscanf_r>
 2002f2c:	b01d      	add	sp, #116	; 0x74
 2002f2e:	bcf0      	pop	{r4, r5, r6, r7}
 2002f30:	bc08      	pop	{r3}
 2002f32:	b002      	add	sp, #8
 2002f34:	4718      	bx	r3
 2002f36:	46c0      	nop			; (mov r8, r8)
 2002f38:	02002f8d 	.word	0x02002f8d

02002f3c <siscanf>:
 2002f3c:	b40e      	push	{r1, r2, r3}
 2002f3e:	b570      	push	{r4, r5, r6, lr}
 2002f40:	b09d      	sub	sp, #116	; 0x74
 2002f42:	2381      	movs	r3, #129	; 0x81
 2002f44:	ac01      	add	r4, sp, #4
 2002f46:	ad21      	add	r5, sp, #132	; 0x84
 2002f48:	009b      	lsls	r3, r3, #2
 2002f4a:	cd40      	ldmia	r5!, {r6}
 2002f4c:	81a3      	strh	r3, [r4, #12]
 2002f4e:	9001      	str	r0, [sp, #4]
 2002f50:	6120      	str	r0, [r4, #16]
 2002f52:	f000 f871 	bl	2003038 <strlen>
 2002f56:	4b0b      	ldr	r3, [pc, #44]	; (2002f84 <siscanf+0x48>)
 2002f58:	6223      	str	r3, [r4, #32]
 2002f5a:	2300      	movs	r3, #0
 2002f5c:	6323      	str	r3, [r4, #48]	; 0x30
 2002f5e:	6463      	str	r3, [r4, #68]	; 0x44
 2002f60:	2301      	movs	r3, #1
 2002f62:	425b      	negs	r3, r3
 2002f64:	81e3      	strh	r3, [r4, #14]
 2002f66:	4b08      	ldr	r3, [pc, #32]	; (2002f88 <siscanf+0x4c>)
 2002f68:	6060      	str	r0, [r4, #4]
 2002f6a:	6160      	str	r0, [r4, #20]
 2002f6c:	1c32      	adds	r2, r6, #0
 2002f6e:	6818      	ldr	r0, [r3, #0]
 2002f70:	1c21      	adds	r1, r4, #0
 2002f72:	1c2b      	adds	r3, r5, #0
 2002f74:	951b      	str	r5, [sp, #108]	; 0x6c
 2002f76:	f000 f91b 	bl	20031b0 <__ssvfiscanf_r>
 2002f7a:	b01d      	add	sp, #116	; 0x74
 2002f7c:	bc70      	pop	{r4, r5, r6}
 2002f7e:	bc08      	pop	{r3}
 2002f80:	b003      	add	sp, #12
 2002f82:	4718      	bx	r3
 2002f84:	02002f8d 	.word	0x02002f8d
 2002f88:	0200e940 	.word	0x0200e940

02002f8c <__seofread>:
 2002f8c:	2000      	movs	r0, #0
 2002f8e:	4770      	bx	lr

02002f90 <__sclose>:
 2002f90:	b510      	push	{r4, lr}
 2002f92:	230e      	movs	r3, #14
 2002f94:	5ec9      	ldrsh	r1, [r1, r3]
 2002f96:	f005 f865 	bl	2008064 <_close_r>
 2002f9a:	bc10      	pop	{r4}
 2002f9c:	bc02      	pop	{r1}
 2002f9e:	4708      	bx	r1

02002fa0 <__sseek>:
 2002fa0:	b570      	push	{r4, r5, r6, lr}
 2002fa2:	1c0c      	adds	r4, r1, #0
 2002fa4:	250e      	movs	r5, #14
 2002fa6:	5f49      	ldrsh	r1, [r1, r5]
 2002fa8:	f005 f8b2 	bl	2008110 <_lseek_r>
 2002fac:	1c43      	adds	r3, r0, #1
 2002fae:	d008      	beq.n	2002fc2 <__sseek+0x22>
 2002fb0:	89a2      	ldrh	r2, [r4, #12]
 2002fb2:	2380      	movs	r3, #128	; 0x80
 2002fb4:	015b      	lsls	r3, r3, #5
 2002fb6:	4313      	orrs	r3, r2
 2002fb8:	81a3      	strh	r3, [r4, #12]
 2002fba:	6520      	str	r0, [r4, #80]	; 0x50
 2002fbc:	bc70      	pop	{r4, r5, r6}
 2002fbe:	bc02      	pop	{r1}
 2002fc0:	4708      	bx	r1
 2002fc2:	89a2      	ldrh	r2, [r4, #12]
 2002fc4:	4b01      	ldr	r3, [pc, #4]	; (2002fcc <__sseek+0x2c>)
 2002fc6:	4013      	ands	r3, r2
 2002fc8:	81a3      	strh	r3, [r4, #12]
 2002fca:	e7f7      	b.n	2002fbc <__sseek+0x1c>
 2002fcc:	ffffefff 	.word	0xffffefff

02002fd0 <__swrite>:
 2002fd0:	b5f8      	push	{r3, r4, r5, r6, r7, lr}
 2002fd2:	1c1f      	adds	r7, r3, #0
 2002fd4:	898b      	ldrh	r3, [r1, #12]
 2002fd6:	1c05      	adds	r5, r0, #0
 2002fd8:	1c0c      	adds	r4, r1, #0
 2002fda:	1c16      	adds	r6, r2, #0
 2002fdc:	05da      	lsls	r2, r3, #23
 2002fde:	d506      	bpl.n	2002fee <__swrite+0x1e>
 2002fe0:	230e      	movs	r3, #14
 2002fe2:	5ec9      	ldrsh	r1, [r1, r3]
 2002fe4:	2200      	movs	r2, #0
 2002fe6:	2302      	movs	r3, #2
 2002fe8:	f005 f892 	bl	2008110 <_lseek_r>
 2002fec:	89a3      	ldrh	r3, [r4, #12]
 2002fee:	4a06      	ldr	r2, [pc, #24]	; (2003008 <__swrite+0x38>)
 2002ff0:	4013      	ands	r3, r2
 2002ff2:	81a3      	strh	r3, [r4, #12]
 2002ff4:	220e      	movs	r2, #14
 2002ff6:	5ea1      	ldrsh	r1, [r4, r2]
 2002ff8:	1c28      	adds	r0, r5, #0
 2002ffa:	1c32      	adds	r2, r6, #0
 2002ffc:	1c3b      	adds	r3, r7, #0
 2002ffe:	f005 f925 	bl	200824c <_write_r>
 2003002:	bcf8      	pop	{r3, r4, r5, r6, r7}
 2003004:	bc02      	pop	{r1}
 2003006:	4708      	bx	r1
 2003008:	ffffefff 	.word	0xffffefff

0200300c <__sread>:
 200300c:	b570      	push	{r4, r5, r6, lr}
 200300e:	1c0c      	adds	r4, r1, #0
 2003010:	250e      	movs	r5, #14
 2003012:	5f49      	ldrsh	r1, [r1, r5]
 2003014:	f005 f8a4 	bl	2008160 <_read_r>
 2003018:	2800      	cmp	r0, #0
 200301a:	db05      	blt.n	2003028 <__sread+0x1c>
 200301c:	6d23      	ldr	r3, [r4, #80]	; 0x50
 200301e:	181b      	adds	r3, r3, r0
 2003020:	6523      	str	r3, [r4, #80]	; 0x50
 2003022:	bc70      	pop	{r4, r5, r6}
 2003024:	bc02      	pop	{r1}
 2003026:	4708      	bx	r1
 2003028:	89a2      	ldrh	r2, [r4, #12]
 200302a:	4b02      	ldr	r3, [pc, #8]	; (2003034 <__sread+0x28>)
 200302c:	4013      	ands	r3, r2
 200302e:	81a3      	strh	r3, [r4, #12]
 2003030:	e7f7      	b.n	2003022 <__sread+0x16>
 2003032:	46c0      	nop			; (mov r8, r8)
 2003034:	ffffefff 	.word	0xffffefff

02003038 <strlen>:
 2003038:	2300      	movs	r3, #0
 200303a:	5cc2      	ldrb	r2, [r0, r3]
 200303c:	3301      	adds	r3, #1
 200303e:	2a00      	cmp	r2, #0
 2003040:	d1fb      	bne.n	200303a <strlen+0x2>
 2003042:	1e58      	subs	r0, r3, #1
 2003044:	4770      	bx	lr
 2003046:	46c0      	nop			; (mov r8, r8)

02003048 <__ssrefill_r>:
 2003048:	b510      	push	{r4, lr}
 200304a:	1c0c      	adds	r4, r1, #0
 200304c:	6b09      	ldr	r1, [r1, #48]	; 0x30
 200304e:	2900      	cmp	r1, #0
 2003050:	d011      	beq.n	2003076 <__ssrefill_r+0x2e>
 2003052:	1c23      	adds	r3, r4, #0
 2003054:	3340      	adds	r3, #64	; 0x40
 2003056:	4299      	cmp	r1, r3
 2003058:	d001      	beq.n	200305e <__ssrefill_r+0x16>
 200305a:	f002 fa19 	bl	2005490 <_free_r>
 200305e:	2300      	movs	r3, #0
 2003060:	6323      	str	r3, [r4, #48]	; 0x30
 2003062:	6be3      	ldr	r3, [r4, #60]	; 0x3c
 2003064:	6063      	str	r3, [r4, #4]
 2003066:	2b00      	cmp	r3, #0
 2003068:	d005      	beq.n	2003076 <__ssrefill_r+0x2e>
 200306a:	6ba3      	ldr	r3, [r4, #56]	; 0x38
 200306c:	6023      	str	r3, [r4, #0]
 200306e:	2000      	movs	r0, #0
 2003070:	bc10      	pop	{r4}
 2003072:	bc02      	pop	{r1}
 2003074:	4708      	bx	r1
 2003076:	6923      	ldr	r3, [r4, #16]
 2003078:	89a2      	ldrh	r2, [r4, #12]
 200307a:	6023      	str	r3, [r4, #0]
 200307c:	2300      	movs	r3, #0
 200307e:	6063      	str	r3, [r4, #4]
 2003080:	2320      	movs	r3, #32
 2003082:	4313      	orrs	r3, r2
 2003084:	2001      	movs	r0, #1
 2003086:	81a3      	strh	r3, [r4, #12]
 2003088:	4240      	negs	r0, r0
 200308a:	e7f1      	b.n	2003070 <__ssrefill_r+0x28>

0200308c <_sfread_r>:
 200308c:	b5f0      	push	{r4, r5, r6, r7, lr}
 200308e:	465f      	mov	r7, fp
 2003090:	4656      	mov	r6, sl
 2003092:	464d      	mov	r5, r9
 2003094:	4644      	mov	r4, r8
 2003096:	b4f0      	push	{r4, r5, r6, r7}
 2003098:	4699      	mov	r9, r3
 200309a:	464b      	mov	r3, r9
 200309c:	4353      	muls	r3, r2
 200309e:	b083      	sub	sp, #12
 20030a0:	4680      	mov	r8, r0
 20030a2:	9201      	str	r2, [sp, #4]
 20030a4:	9c0c      	ldr	r4, [sp, #48]	; 0x30
 20030a6:	469b      	mov	fp, r3
 20030a8:	2b00      	cmp	r3, #0
 20030aa:	d029      	beq.n	2003100 <_sfread_r+0x74>
 20030ac:	1c1e      	adds	r6, r3, #0
 20030ae:	2300      	movs	r3, #0
 20030b0:	1c0f      	adds	r7, r1, #0
 20030b2:	469a      	mov	sl, r3
 20030b4:	e000      	b.n	20030b8 <_sfread_r+0x2c>
 20030b6:	197f      	adds	r7, r7, r5
 20030b8:	6865      	ldr	r5, [r4, #4]
 20030ba:	42ae      	cmp	r6, r5
 20030bc:	d923      	bls.n	2003106 <_sfread_r+0x7a>
 20030be:	6821      	ldr	r1, [r4, #0]
 20030c0:	1c2a      	adds	r2, r5, #0
 20030c2:	1c38      	adds	r0, r7, #0
 20030c4:	f7ff fe02 	bl	2002ccc <memcpy>
 20030c8:	6823      	ldr	r3, [r4, #0]
 20030ca:	4652      	mov	r2, sl
 20030cc:	195b      	adds	r3, r3, r5
 20030ce:	6023      	str	r3, [r4, #0]
 20030d0:	6062      	str	r2, [r4, #4]
 20030d2:	4640      	mov	r0, r8
 20030d4:	1c21      	adds	r1, r4, #0
 20030d6:	1b76      	subs	r6, r6, r5
 20030d8:	f7ff ffb6 	bl	2003048 <__ssrefill_r>
 20030dc:	2800      	cmp	r0, #0
 20030de:	d0ea      	beq.n	20030b6 <_sfread_r+0x2a>
 20030e0:	465b      	mov	r3, fp
 20030e2:	1b98      	subs	r0, r3, r6
 20030e4:	9901      	ldr	r1, [sp, #4]
 20030e6:	f005 f947 	bl	2008378 <__aeabi_uidiv>
 20030ea:	4681      	mov	r9, r0
 20030ec:	b003      	add	sp, #12
 20030ee:	4648      	mov	r0, r9
 20030f0:	bc3c      	pop	{r2, r3, r4, r5}
 20030f2:	4690      	mov	r8, r2
 20030f4:	4699      	mov	r9, r3
 20030f6:	46a2      	mov	sl, r4
 20030f8:	46ab      	mov	fp, r5
 20030fa:	bcf0      	pop	{r4, r5, r6, r7}
 20030fc:	bc02      	pop	{r1}
 20030fe:	4708      	bx	r1
 2003100:	2200      	movs	r2, #0
 2003102:	4691      	mov	r9, r2
 2003104:	e7f2      	b.n	20030ec <_sfread_r+0x60>
 2003106:	1c32      	adds	r2, r6, #0
 2003108:	6821      	ldr	r1, [r4, #0]
 200310a:	1c38      	adds	r0, r7, #0
 200310c:	f7ff fdde 	bl	2002ccc <memcpy>
 2003110:	6863      	ldr	r3, [r4, #4]
 2003112:	1b9b      	subs	r3, r3, r6
 2003114:	6063      	str	r3, [r4, #4]
 2003116:	6823      	ldr	r3, [r4, #0]
 2003118:	199e      	adds	r6, r3, r6
 200311a:	6026      	str	r6, [r4, #0]
 200311c:	e7e6      	b.n	20030ec <_sfread_r+0x60>
 200311e:	46c0      	nop			; (mov r8, r8)

02003120 <_sungetc_r>:
 2003120:	b570      	push	{r4, r5, r6, lr}
 2003122:	1c14      	adds	r4, r2, #0
 2003124:	1c4b      	adds	r3, r1, #1
 2003126:	d014      	beq.n	2003152 <_sungetc_r+0x32>
 2003128:	8993      	ldrh	r3, [r2, #12]
 200312a:	2220      	movs	r2, #32
 200312c:	4393      	bics	r3, r2
 200312e:	81a3      	strh	r3, [r4, #12]
 2003130:	6b23      	ldr	r3, [r4, #48]	; 0x30
 2003132:	060d      	lsls	r5, r1, #24
 2003134:	0e2d      	lsrs	r5, r5, #24
 2003136:	2b00      	cmp	r3, #0
 2003138:	d00f      	beq.n	200315a <_sungetc_r+0x3a>
 200313a:	6862      	ldr	r2, [r4, #4]
 200313c:	6b63      	ldr	r3, [r4, #52]	; 0x34
 200313e:	429a      	cmp	r2, r3
 2003140:	da2d      	bge.n	200319e <_sungetc_r+0x7e>
 2003142:	6823      	ldr	r3, [r4, #0]
 2003144:	3b01      	subs	r3, #1
 2003146:	6023      	str	r3, [r4, #0]
 2003148:	701d      	strb	r5, [r3, #0]
 200314a:	6863      	ldr	r3, [r4, #4]
 200314c:	3301      	adds	r3, #1
 200314e:	6063      	str	r3, [r4, #4]
 2003150:	1c29      	adds	r1, r5, #0
 2003152:	1c08      	adds	r0, r1, #0
 2003154:	bc70      	pop	{r4, r5, r6}
 2003156:	bc02      	pop	{r1}
 2003158:	4708      	bx	r1
 200315a:	6922      	ldr	r2, [r4, #16]
 200315c:	2a00      	cmp	r2, #0
 200315e:	d01c      	beq.n	200319a <_sungetc_r+0x7a>
 2003160:	6823      	ldr	r3, [r4, #0]
 2003162:	429a      	cmp	r2, r3
 2003164:	d203      	bcs.n	200316e <_sungetc_r+0x4e>
 2003166:	1e5a      	subs	r2, r3, #1
 2003168:	7811      	ldrb	r1, [r2, #0]
 200316a:	42a9      	cmp	r1, r5
 200316c:	d010      	beq.n	2003190 <_sungetc_r+0x70>
 200316e:	63a3      	str	r3, [r4, #56]	; 0x38
 2003170:	1c23      	adds	r3, r4, #0
 2003172:	3340      	adds	r3, #64	; 0x40
 2003174:	6323      	str	r3, [r4, #48]	; 0x30
 2003176:	2303      	movs	r3, #3
 2003178:	6363      	str	r3, [r4, #52]	; 0x34
 200317a:	2342      	movs	r3, #66	; 0x42
 200317c:	54e5      	strb	r5, [r4, r3]
 200317e:	1c23      	adds	r3, r4, #0
 2003180:	6862      	ldr	r2, [r4, #4]
 2003182:	3342      	adds	r3, #66	; 0x42
 2003184:	6023      	str	r3, [r4, #0]
 2003186:	2301      	movs	r3, #1
 2003188:	63e2      	str	r2, [r4, #60]	; 0x3c
 200318a:	6063      	str	r3, [r4, #4]
 200318c:	1c29      	adds	r1, r5, #0
 200318e:	e7e0      	b.n	2003152 <_sungetc_r+0x32>
 2003190:	6863      	ldr	r3, [r4, #4]
 2003192:	3301      	adds	r3, #1
 2003194:	6022      	str	r2, [r4, #0]
 2003196:	6063      	str	r3, [r4, #4]
 2003198:	e7db      	b.n	2003152 <_sungetc_r+0x32>
 200319a:	6823      	ldr	r3, [r4, #0]
 200319c:	e7e7      	b.n	200316e <_sungetc_r+0x4e>
 200319e:	1c21      	adds	r1, r4, #0
 20031a0:	f000 fcea 	bl	2003b78 <__submore>
 20031a4:	2800      	cmp	r0, #0
 20031a6:	d0cc      	beq.n	2003142 <_sungetc_r+0x22>
 20031a8:	2101      	movs	r1, #1
 20031aa:	4249      	negs	r1, r1
 20031ac:	e7d1      	b.n	2003152 <_sungetc_r+0x32>
 20031ae:	46c0      	nop			; (mov r8, r8)

020031b0 <__ssvfiscanf_r>:
 20031b0:	b5f0      	push	{r4, r5, r6, r7, lr}
 20031b2:	465f      	mov	r7, fp
 20031b4:	4656      	mov	r6, sl
 20031b6:	464d      	mov	r5, r9
 20031b8:	4644      	mov	r4, r8
 20031ba:	b4f0      	push	{r4, r5, r6, r7}
 20031bc:	b0dd      	sub	sp, #372	; 0x174
 20031be:	1c0c      	adds	r4, r1, #0
 20031c0:	1c15      	adds	r5, r2, #0
 20031c2:	9305      	str	r3, [sp, #20]
 20031c4:	9004      	str	r0, [sp, #16]
 20031c6:	f001 ff99 	bl	20050fc <__sfp_lock_acquire>
 20031ca:	2380      	movs	r3, #128	; 0x80
 20031cc:	89a2      	ldrh	r2, [r4, #12]
 20031ce:	019b      	lsls	r3, r3, #6
 20031d0:	421a      	tst	r2, r3
 20031d2:	d105      	bne.n	20031e0 <__ssvfiscanf_r+0x30>
 20031d4:	4313      	orrs	r3, r2
 20031d6:	81a3      	strh	r3, [r4, #12]
 20031d8:	6e62      	ldr	r2, [r4, #100]	; 0x64
 20031da:	4bcf      	ldr	r3, [pc, #828]	; (2003518 <__ssvfiscanf_r+0x368>)
 20031dc:	4013      	ands	r3, r2
 20031de:	6663      	str	r3, [r4, #100]	; 0x64
 20031e0:	21b2      	movs	r1, #178	; 0xb2
 20031e2:	46a8      	mov	r8, r5
 20031e4:	2000      	movs	r0, #0
 20031e6:	2500      	movs	r5, #0
 20031e8:	0049      	lsls	r1, r1, #1
 20031ea:	4acc      	ldr	r2, [pc, #816]	; (200351c <__ssvfiscanf_r+0x36c>)
 20031ec:	4469      	add	r1, sp
 20031ee:	900b      	str	r0, [sp, #44]	; 0x2c
 20031f0:	950a      	str	r5, [sp, #40]	; 0x28
 20031f2:	9509      	str	r5, [sp, #36]	; 0x24
 20031f4:	468b      	mov	fp, r1
 20031f6:	4692      	mov	sl, r2
 20031f8:	1c2e      	adds	r6, r5, #0
 20031fa:	2100      	movs	r1, #0
 20031fc:	2208      	movs	r2, #8
 20031fe:	4658      	mov	r0, fp
 2003200:	f7ff fda4 	bl	2002d4c <memset>
 2003204:	4bc6      	ldr	r3, [pc, #792]	; (2003520 <__ssvfiscanf_r+0x370>)
 2003206:	4650      	mov	r0, sl
 2003208:	681f      	ldr	r7, [r3, #0]
 200320a:	6805      	ldr	r5, [r0, #0]
 200320c:	f002 fd2e 	bl	2005c6c <__locale_charset>
 2003210:	4659      	mov	r1, fp
 2003212:	9000      	str	r0, [sp, #0]
 2003214:	9101      	str	r1, [sp, #4]
 2003216:	1c2b      	adds	r3, r5, #0
 2003218:	9804      	ldr	r0, [sp, #16]
 200321a:	a95b      	add	r1, sp, #364	; 0x16c
 200321c:	4642      	mov	r2, r8
 200321e:	f000 fc8f 	bl	2003b40 <__ssvfiscanf_r+0x990>
 2003222:	9b5b      	ldr	r3, [sp, #364]	; 0x16c
 2003224:	1c07      	adds	r7, r0, #0
 2003226:	2b00      	cmp	r3, #0
 2003228:	d100      	bne.n	200322c <__ssvfiscanf_r+0x7c>
 200322a:	e103      	b.n	2003434 <__ssvfiscanf_r+0x284>
 200322c:	4480      	add	r8, r0
 200322e:	2801      	cmp	r0, #1
 2003230:	d01e      	beq.n	2003270 <__ssvfiscanf_r+0xc0>
 2003232:	2b25      	cmp	r3, #37	; 0x25
 2003234:	d03c      	beq.n	20032b0 <__ssvfiscanf_r+0x100>
 2003236:	2f00      	cmp	r7, #0
 2003238:	dd17      	ble.n	200326a <__ssvfiscanf_r+0xba>
 200323a:	4641      	mov	r1, r8
 200323c:	1bc9      	subs	r1, r1, r7
 200323e:	6862      	ldr	r2, [r4, #4]
 2003240:	4689      	mov	r9, r1
 2003242:	2500      	movs	r5, #0
 2003244:	2a00      	cmp	r2, #0
 2003246:	dc00      	bgt.n	200324a <__ssvfiscanf_r+0x9a>
 2003248:	e0d6      	b.n	20033f8 <__ssvfiscanf_r+0x248>
 200324a:	6823      	ldr	r3, [r4, #0]
 200324c:	4648      	mov	r0, r9
 200324e:	7819      	ldrb	r1, [r3, #0]
 2003250:	5d42      	ldrb	r2, [r0, r5]
 2003252:	4291      	cmp	r1, r2
 2003254:	d000      	beq.n	2003258 <__ssvfiscanf_r+0xa8>
 2003256:	e0ed      	b.n	2003434 <__ssvfiscanf_r+0x284>
 2003258:	6862      	ldr	r2, [r4, #4]
 200325a:	3301      	adds	r3, #1
 200325c:	3a01      	subs	r2, #1
 200325e:	3501      	adds	r5, #1
 2003260:	6062      	str	r2, [r4, #4]
 2003262:	6023      	str	r3, [r4, #0]
 2003264:	3601      	adds	r6, #1
 2003266:	42af      	cmp	r7, r5
 2003268:	dcec      	bgt.n	2003244 <__ssvfiscanf_r+0x94>
 200326a:	9d05      	ldr	r5, [sp, #20]
 200326c:	9505      	str	r5, [sp, #20]
 200326e:	e7c4      	b.n	20031fa <__ssvfiscanf_r+0x4a>
 2003270:	4dac      	ldr	r5, [pc, #688]	; (2003524 <__ssvfiscanf_r+0x374>)
 2003272:	682a      	ldr	r2, [r5, #0]
 2003274:	18d2      	adds	r2, r2, r3
 2003276:	7852      	ldrb	r2, [r2, #1]
 2003278:	0710      	lsls	r0, r2, #28
 200327a:	d5da      	bpl.n	2003232 <__ssvfiscanf_r+0x82>
 200327c:	6862      	ldr	r2, [r4, #4]
 200327e:	2708      	movs	r7, #8
 2003280:	e00c      	b.n	200329c <__ssvfiscanf_r+0xec>
 2003282:	6823      	ldr	r3, [r4, #0]
 2003284:	6829      	ldr	r1, [r5, #0]
 2003286:	781a      	ldrb	r2, [r3, #0]
 2003288:	188a      	adds	r2, r1, r2
 200328a:	7852      	ldrb	r2, [r2, #1]
 200328c:	423a      	tst	r2, r7
 200328e:	d0ec      	beq.n	200326a <__ssvfiscanf_r+0xba>
 2003290:	6862      	ldr	r2, [r4, #4]
 2003292:	3301      	adds	r3, #1
 2003294:	3a01      	subs	r2, #1
 2003296:	6062      	str	r2, [r4, #4]
 2003298:	6023      	str	r3, [r4, #0]
 200329a:	3601      	adds	r6, #1
 200329c:	2a00      	cmp	r2, #0
 200329e:	dcf0      	bgt.n	2003282 <__ssvfiscanf_r+0xd2>
 20032a0:	9804      	ldr	r0, [sp, #16]
 20032a2:	1c21      	adds	r1, r4, #0
 20032a4:	f7ff fed0 	bl	2003048 <__ssrefill_r>
 20032a8:	2800      	cmp	r0, #0
 20032aa:	d0ea      	beq.n	2003282 <__ssvfiscanf_r+0xd2>
 20032ac:	9d05      	ldr	r5, [sp, #20]
 20032ae:	e7dd      	b.n	200326c <__ssvfiscanf_r+0xbc>
 20032b0:	2100      	movs	r1, #0
 20032b2:	9107      	str	r1, [sp, #28]
 20032b4:	9108      	str	r1, [sp, #32]
 20032b6:	4642      	mov	r2, r8
 20032b8:	2110      	movs	r1, #16
 20032ba:	7813      	ldrb	r3, [r2, #0]
 20032bc:	3201      	adds	r2, #1
 20032be:	2b78      	cmp	r3, #120	; 0x78
 20032c0:	d800      	bhi.n	20032c4 <__ssvfiscanf_r+0x114>
 20032c2:	e095      	b.n	20033f0 <__ssvfiscanf_r+0x240>
 20032c4:	4d97      	ldr	r5, [pc, #604]	; (2003524 <__ssvfiscanf_r+0x374>)
 20032c6:	4690      	mov	r8, r2
 20032c8:	682a      	ldr	r2, [r5, #0]
 20032ca:	18d3      	adds	r3, r2, r3
 20032cc:	785a      	ldrb	r2, [r3, #1]
 20032ce:	2303      	movs	r3, #3
 20032d0:	4013      	ands	r3, r2
 20032d2:	2b01      	cmp	r3, #1
 20032d4:	d100      	bne.n	20032d8 <__ssvfiscanf_r+0x128>
 20032d6:	e170      	b.n	20035ba <__ssvfiscanf_r+0x40a>
 20032d8:	4a93      	ldr	r2, [pc, #588]	; (2003528 <__ssvfiscanf_r+0x378>)
 20032da:	230a      	movs	r3, #10
 20032dc:	2503      	movs	r5, #3
 20032de:	920b      	str	r2, [sp, #44]	; 0x2c
 20032e0:	9f08      	ldr	r7, [sp, #32]
 20032e2:	9309      	str	r3, [sp, #36]	; 0x24
 20032e4:	9506      	str	r5, [sp, #24]
 20032e6:	6863      	ldr	r3, [r4, #4]
 20032e8:	2b00      	cmp	r3, #0
 20032ea:	dc00      	bgt.n	20032ee <__ssvfiscanf_r+0x13e>
 20032ec:	e0bb      	b.n	2003466 <__ssvfiscanf_r+0x2b6>
 20032ee:	9807      	ldr	r0, [sp, #28]
 20032f0:	0640      	lsls	r0, r0, #25
 20032f2:	d41a      	bmi.n	200332a <__ssvfiscanf_r+0x17a>
 20032f4:	6823      	ldr	r3, [r4, #0]
 20032f6:	4d8b      	ldr	r5, [pc, #556]	; (2003524 <__ssvfiscanf_r+0x374>)
 20032f8:	2108      	movs	r1, #8
 20032fa:	4689      	mov	r9, r1
 20032fc:	781a      	ldrb	r2, [r3, #0]
 20032fe:	6829      	ldr	r1, [r5, #0]
 2003300:	188a      	adds	r2, r1, r2
 2003302:	7852      	ldrb	r2, [r2, #1]
 2003304:	4648      	mov	r0, r9
 2003306:	4202      	tst	r2, r0
 2003308:	d00f      	beq.n	200332a <__ssvfiscanf_r+0x17a>
 200330a:	6862      	ldr	r2, [r4, #4]
 200330c:	3a01      	subs	r2, #1
 200330e:	6062      	str	r2, [r4, #4]
 2003310:	2a00      	cmp	r2, #0
 2003312:	dc00      	bgt.n	2003316 <__ssvfiscanf_r+0x166>
 2003314:	e155      	b.n	20035c2 <__ssvfiscanf_r+0x412>
 2003316:	3301      	adds	r3, #1
 2003318:	6023      	str	r3, [r4, #0]
 200331a:	3601      	adds	r6, #1
 200331c:	781a      	ldrb	r2, [r3, #0]
 200331e:	6829      	ldr	r1, [r5, #0]
 2003320:	188a      	adds	r2, r1, r2
 2003322:	7852      	ldrb	r2, [r2, #1]
 2003324:	4648      	mov	r0, r9
 2003326:	4202      	tst	r2, r0
 2003328:	d1ef      	bne.n	200330a <__ssvfiscanf_r+0x15a>
 200332a:	9906      	ldr	r1, [sp, #24]
 200332c:	2902      	cmp	r1, #2
 200332e:	d100      	bne.n	2003332 <__ssvfiscanf_r+0x182>
 2003330:	e21d      	b.n	200376e <__ssvfiscanf_r+0x5be>
 2003332:	2903      	cmp	r1, #3
 2003334:	d100      	bne.n	2003338 <__ssvfiscanf_r+0x188>
 2003336:	e18e      	b.n	2003656 <__ssvfiscanf_r+0x4a6>
 2003338:	2901      	cmp	r1, #1
 200333a:	d100      	bne.n	200333e <__ssvfiscanf_r+0x18e>
 200333c:	e163      	b.n	2003606 <__ssvfiscanf_r+0x456>
 200333e:	9a08      	ldr	r2, [sp, #32]
 2003340:	2a00      	cmp	r2, #0
 2003342:	d100      	bne.n	2003346 <__ssvfiscanf_r+0x196>
 2003344:	2701      	movs	r7, #1
 2003346:	9b07      	ldr	r3, [sp, #28]
 2003348:	2501      	movs	r5, #1
 200334a:	422b      	tst	r3, r5
 200334c:	d100      	bne.n	2003350 <__ssvfiscanf_r+0x1a0>
 200334e:	e2f0      	b.n	2003932 <__ssvfiscanf_r+0x782>
 2003350:	9807      	ldr	r0, [sp, #28]
 2003352:	2310      	movs	r3, #16
 2003354:	4018      	ands	r0, r3
 2003356:	9007      	str	r0, [sp, #28]
 2003358:	d100      	bne.n	200335c <__ssvfiscanf_r+0x1ac>
 200335a:	e36d      	b.n	2003a38 <__ssvfiscanf_r+0x888>
 200335c:	2100      	movs	r1, #0
 200335e:	9d05      	ldr	r5, [sp, #20]
 2003360:	9105      	str	r1, [sp, #20]
 2003362:	4641      	mov	r1, r8
 2003364:	9807      	ldr	r0, [sp, #28]
 2003366:	2300      	movs	r3, #0
 2003368:	46b0      	mov	r8, r6
 200336a:	9108      	str	r1, [sp, #32]
 200336c:	9e05      	ldr	r6, [sp, #20]
 200336e:	9506      	str	r5, [sp, #24]
 2003370:	4681      	mov	r9, r0
 2003372:	1c1d      	adds	r5, r3, #0
 2003374:	4650      	mov	r0, sl
 2003376:	6803      	ldr	r3, [r0, #0]
 2003378:	429d      	cmp	r5, r3
 200337a:	d044      	beq.n	2003406 <__ssvfiscanf_r+0x256>
 200337c:	6823      	ldr	r3, [r4, #0]
 200337e:	781a      	ldrb	r2, [r3, #0]
 2003380:	a94f      	add	r1, sp, #316	; 0x13c
 2003382:	554a      	strb	r2, [r1, r5]
 2003384:	6862      	ldr	r2, [r4, #4]
 2003386:	3301      	adds	r3, #1
 2003388:	3a01      	subs	r2, #1
 200338a:	6062      	str	r2, [r4, #4]
 200338c:	6023      	str	r3, [r4, #0]
 200338e:	2100      	movs	r1, #0
 2003390:	2208      	movs	r2, #8
 2003392:	4658      	mov	r0, fp
 2003394:	f7ff fcda 	bl	2002d4c <memset>
 2003398:	3501      	adds	r5, #1
 200339a:	465a      	mov	r2, fp
 200339c:	9200      	str	r2, [sp, #0]
 200339e:	1c2b      	adds	r3, r5, #0
 20033a0:	9804      	ldr	r0, [sp, #16]
 20033a2:	1c31      	adds	r1, r6, #0
 20033a4:	aa4f      	add	r2, sp, #316	; 0x13c
 20033a6:	f003 fb9f 	bl	2006ae8 <_mbrtowc_r>
 20033aa:	1c43      	adds	r3, r0, #1
 20033ac:	d02b      	beq.n	2003406 <__ssvfiscanf_r+0x256>
 20033ae:	2800      	cmp	r0, #0
 20033b0:	d000      	beq.n	20033b4 <__ssvfiscanf_r+0x204>
 20033b2:	e110      	b.n	20035d6 <__ssvfiscanf_r+0x426>
 20033b4:	4648      	mov	r0, r9
 20033b6:	2800      	cmp	r0, #0
 20033b8:	d100      	bne.n	20033bc <__ssvfiscanf_r+0x20c>
 20033ba:	6030      	str	r0, [r6, #0]
 20033bc:	4649      	mov	r1, r9
 20033be:	44a8      	add	r8, r5
 20033c0:	3f01      	subs	r7, #1
 20033c2:	2900      	cmp	r1, #0
 20033c4:	d100      	bne.n	20033c8 <__ssvfiscanf_r+0x218>
 20033c6:	3604      	adds	r6, #4
 20033c8:	6863      	ldr	r3, [r4, #4]
 20033ca:	2500      	movs	r5, #0
 20033cc:	2b00      	cmp	r3, #0
 20033ce:	dc00      	bgt.n	20033d2 <__ssvfiscanf_r+0x222>
 20033d0:	e108      	b.n	20035e4 <__ssvfiscanf_r+0x434>
 20033d2:	2f00      	cmp	r7, #0
 20033d4:	d1ce      	bne.n	2003374 <__ssvfiscanf_r+0x1c4>
 20033d6:	9f08      	ldr	r7, [sp, #32]
 20033d8:	9d06      	ldr	r5, [sp, #24]
 20033da:	4646      	mov	r6, r8
 20033dc:	46b8      	mov	r8, r7
 20033de:	9807      	ldr	r0, [sp, #28]
 20033e0:	2800      	cmp	r0, #0
 20033e2:	d000      	beq.n	20033e6 <__ssvfiscanf_r+0x236>
 20033e4:	e742      	b.n	200326c <__ssvfiscanf_r+0xbc>
 20033e6:	990a      	ldr	r1, [sp, #40]	; 0x28
 20033e8:	3101      	adds	r1, #1
 20033ea:	910a      	str	r1, [sp, #40]	; 0x28
 20033ec:	9505      	str	r5, [sp, #20]
 20033ee:	e704      	b.n	20031fa <__ssvfiscanf_r+0x4a>
 20033f0:	4d4e      	ldr	r5, [pc, #312]	; (200352c <__ssvfiscanf_r+0x37c>)
 20033f2:	0098      	lsls	r0, r3, #2
 20033f4:	5828      	ldr	r0, [r5, r0]
 20033f6:	4687      	mov	pc, r0
 20033f8:	9804      	ldr	r0, [sp, #16]
 20033fa:	1c21      	adds	r1, r4, #0
 20033fc:	f7ff fe24 	bl	2003048 <__ssrefill_r>
 2003400:	2800      	cmp	r0, #0
 2003402:	d100      	bne.n	2003406 <__ssvfiscanf_r+0x256>
 2003404:	e721      	b.n	200324a <__ssvfiscanf_r+0x9a>
 2003406:	9d0a      	ldr	r5, [sp, #40]	; 0x28
 2003408:	f001 fe7a 	bl	2005100 <__sfp_lock_release>
 200340c:	2d00      	cmp	r5, #0
 200340e:	d002      	beq.n	2003416 <__ssvfiscanf_r+0x266>
 2003410:	89a3      	ldrh	r3, [r4, #12]
 2003412:	065f      	lsls	r7, r3, #25
 2003414:	d501      	bpl.n	200341a <__ssvfiscanf_r+0x26a>
 2003416:	2501      	movs	r5, #1
 2003418:	426d      	negs	r5, r5
 200341a:	b05d      	add	sp, #372	; 0x174
 200341c:	1c28      	adds	r0, r5, #0
 200341e:	bc3c      	pop	{r2, r3, r4, r5}
 2003420:	4690      	mov	r8, r2
 2003422:	4699      	mov	r9, r3
 2003424:	46a2      	mov	sl, r4
 2003426:	46ab      	mov	fp, r5
 2003428:	bcf0      	pop	{r4, r5, r6, r7}
 200342a:	bc02      	pop	{r1}
 200342c:	4708      	bx	r1
 200342e:	2d00      	cmp	r5, #0
 2003430:	d000      	beq.n	2003434 <__ssvfiscanf_r+0x284>
 2003432:	e21d      	b.n	2003870 <__ssvfiscanf_r+0x6c0>
 2003434:	9d0a      	ldr	r5, [sp, #40]	; 0x28
 2003436:	f001 fe63 	bl	2005100 <__sfp_lock_release>
 200343a:	e7ee      	b.n	200341a <__ssvfiscanf_r+0x26a>
 200343c:	2501      	movs	r5, #1
 200343e:	f001 fe5f 	bl	2005100 <__sfp_lock_release>
 2003442:	426d      	negs	r5, r5
 2003444:	e7e9      	b.n	200341a <__ssvfiscanf_r+0x26a>
 2003446:	9b07      	ldr	r3, [sp, #28]
 2003448:	430b      	orrs	r3, r1
 200344a:	9307      	str	r3, [sp, #28]
 200344c:	e735      	b.n	20032ba <__ssvfiscanf_r+0x10a>
 200344e:	4838      	ldr	r0, [pc, #224]	; (2003530 <__ssvfiscanf_r+0x380>)
 2003450:	6863      	ldr	r3, [r4, #4]
 2003452:	4690      	mov	r8, r2
 2003454:	210a      	movs	r1, #10
 2003456:	2203      	movs	r2, #3
 2003458:	9f08      	ldr	r7, [sp, #32]
 200345a:	900b      	str	r0, [sp, #44]	; 0x2c
 200345c:	9109      	str	r1, [sp, #36]	; 0x24
 200345e:	9206      	str	r2, [sp, #24]
 2003460:	2b00      	cmp	r3, #0
 2003462:	dd00      	ble.n	2003466 <__ssvfiscanf_r+0x2b6>
 2003464:	e743      	b.n	20032ee <__ssvfiscanf_r+0x13e>
 2003466:	9804      	ldr	r0, [sp, #16]
 2003468:	1c21      	adds	r1, r4, #0
 200346a:	f7ff fded 	bl	2003048 <__ssrefill_r>
 200346e:	2800      	cmp	r0, #0
 2003470:	d100      	bne.n	2003474 <__ssvfiscanf_r+0x2c4>
 2003472:	e73c      	b.n	20032ee <__ssvfiscanf_r+0x13e>
 2003474:	e7c7      	b.n	2003406 <__ssvfiscanf_r+0x256>
 2003476:	9d07      	ldr	r5, [sp, #28]
 2003478:	2388      	movs	r3, #136	; 0x88
 200347a:	009b      	lsls	r3, r3, #2
 200347c:	482c      	ldr	r0, [pc, #176]	; (2003530 <__ssvfiscanf_r+0x380>)
 200347e:	4690      	mov	r8, r2
 2003480:	431d      	orrs	r5, r3
 2003482:	2110      	movs	r1, #16
 2003484:	2203      	movs	r2, #3
 2003486:	9507      	str	r5, [sp, #28]
 2003488:	9f08      	ldr	r7, [sp, #32]
 200348a:	900b      	str	r0, [sp, #44]	; 0x2c
 200348c:	9109      	str	r1, [sp, #36]	; 0x24
 200348e:	9206      	str	r2, [sp, #24]
 2003490:	e729      	b.n	20032e6 <__ssvfiscanf_r+0x136>
 2003492:	2102      	movs	r1, #2
 2003494:	4690      	mov	r8, r2
 2003496:	9f08      	ldr	r7, [sp, #32]
 2003498:	9106      	str	r1, [sp, #24]
 200349a:	e724      	b.n	20032e6 <__ssvfiscanf_r+0x136>
 200349c:	4d22      	ldr	r5, [pc, #136]	; (2003528 <__ssvfiscanf_r+0x378>)
 200349e:	2000      	movs	r0, #0
 20034a0:	2103      	movs	r1, #3
 20034a2:	4690      	mov	r8, r2
 20034a4:	950b      	str	r5, [sp, #44]	; 0x2c
 20034a6:	9f08      	ldr	r7, [sp, #32]
 20034a8:	9009      	str	r0, [sp, #36]	; 0x24
 20034aa:	9106      	str	r1, [sp, #24]
 20034ac:	e71b      	b.n	20032e6 <__ssvfiscanf_r+0x136>
 20034ae:	9d07      	ldr	r5, [sp, #28]
 20034b0:	2001      	movs	r0, #1
 20034b2:	4305      	orrs	r5, r0
 20034b4:	9507      	str	r5, [sp, #28]
 20034b6:	e700      	b.n	20032ba <__ssvfiscanf_r+0x10a>
 20034b8:	9b07      	ldr	r3, [sp, #28]
 20034ba:	4690      	mov	r8, r2
 20034bc:	06db      	lsls	r3, r3, #27
 20034be:	d500      	bpl.n	20034c2 <__ssvfiscanf_r+0x312>
 20034c0:	e6d3      	b.n	200326a <__ssvfiscanf_r+0xba>
 20034c2:	9d07      	ldr	r5, [sp, #28]
 20034c4:	2704      	movs	r7, #4
 20034c6:	423d      	tst	r5, r7
 20034c8:	d100      	bne.n	20034cc <__ssvfiscanf_r+0x31c>
 20034ca:	e2fa      	b.n	2003ac2 <__ssvfiscanf_r+0x912>
 20034cc:	9805      	ldr	r0, [sp, #20]
 20034ce:	9d05      	ldr	r5, [sp, #20]
 20034d0:	6803      	ldr	r3, [r0, #0]
 20034d2:	3504      	adds	r5, #4
 20034d4:	801e      	strh	r6, [r3, #0]
 20034d6:	9505      	str	r5, [sp, #20]
 20034d8:	e68f      	b.n	20031fa <__ssvfiscanf_r+0x4a>
 20034da:	4b15      	ldr	r3, [pc, #84]	; (2003530 <__ssvfiscanf_r+0x380>)
 20034dc:	2508      	movs	r5, #8
 20034de:	2003      	movs	r0, #3
 20034e0:	4690      	mov	r8, r2
 20034e2:	9f08      	ldr	r7, [sp, #32]
 20034e4:	930b      	str	r3, [sp, #44]	; 0x2c
 20034e6:	9509      	str	r5, [sp, #36]	; 0x24
 20034e8:	9006      	str	r0, [sp, #24]
 20034ea:	e6fc      	b.n	20032e6 <__ssvfiscanf_r+0x136>
 20034ec:	9d08      	ldr	r5, [sp, #32]
 20034ee:	00a8      	lsls	r0, r5, #2
 20034f0:	1940      	adds	r0, r0, r5
 20034f2:	0040      	lsls	r0, r0, #1
 20034f4:	3b30      	subs	r3, #48	; 0x30
 20034f6:	181b      	adds	r3, r3, r0
 20034f8:	9308      	str	r3, [sp, #32]
 20034fa:	e6de      	b.n	20032ba <__ssvfiscanf_r+0x10a>
 20034fc:	9f07      	ldr	r7, [sp, #28]
 20034fe:	2001      	movs	r0, #1
 2003500:	4307      	orrs	r7, r0
 2003502:	9707      	str	r7, [sp, #28]
 2003504:	4690      	mov	r8, r2
 2003506:	4908      	ldr	r1, [pc, #32]	; (2003528 <__ssvfiscanf_r+0x378>)
 2003508:	220a      	movs	r2, #10
 200350a:	2303      	movs	r3, #3
 200350c:	910b      	str	r1, [sp, #44]	; 0x2c
 200350e:	9f08      	ldr	r7, [sp, #32]
 2003510:	9209      	str	r2, [sp, #36]	; 0x24
 2003512:	9306      	str	r3, [sp, #24]
 2003514:	e6e7      	b.n	20032e6 <__ssvfiscanf_r+0x136>
 2003516:	46c0      	nop			; (mov r8, r8)
 2003518:	ffffdfff 	.word	0xffffdfff
 200351c:	0200edd8 	.word	0x0200edd8
 2003520:	0200f2cc 	.word	0x0200f2cc
 2003524:	0200ed74 	.word	0x0200ed74
 2003528:	02007899 	.word	0x02007899
 200352c:	0200a610 	.word	0x0200a610
 2003530:	02007a21 	.word	0x02007a21
 2003534:	9b07      	ldr	r3, [sp, #28]
 2003536:	2502      	movs	r5, #2
 2003538:	432b      	orrs	r3, r5
 200353a:	9307      	str	r3, [sp, #28]
 200353c:	e6bd      	b.n	20032ba <__ssvfiscanf_r+0x10a>
 200353e:	4690      	mov	r8, r2
 2003540:	9a07      	ldr	r2, [sp, #28]
 2003542:	2301      	movs	r3, #1
 2003544:	4dd0      	ldr	r5, [pc, #832]	; (2003888 <__ssvfiscanf_r+0x6d8>)
 2003546:	431a      	orrs	r2, r3
 2003548:	2008      	movs	r0, #8
 200354a:	2103      	movs	r1, #3
 200354c:	9207      	str	r2, [sp, #28]
 200354e:	9f08      	ldr	r7, [sp, #32]
 2003550:	950b      	str	r5, [sp, #44]	; 0x2c
 2003552:	9009      	str	r0, [sp, #36]	; 0x24
 2003554:	9106      	str	r1, [sp, #24]
 2003556:	e6c6      	b.n	20032e6 <__ssvfiscanf_r+0x136>
 2003558:	4690      	mov	r8, r2
 200355a:	2380      	movs	r3, #128	; 0x80
 200355c:	9a07      	ldr	r2, [sp, #28]
 200355e:	009b      	lsls	r3, r3, #2
 2003560:	431a      	orrs	r2, r3
 2003562:	4bc9      	ldr	r3, [pc, #804]	; (2003888 <__ssvfiscanf_r+0x6d8>)
 2003564:	2510      	movs	r5, #16
 2003566:	2003      	movs	r0, #3
 2003568:	9207      	str	r2, [sp, #28]
 200356a:	9f08      	ldr	r7, [sp, #32]
 200356c:	930b      	str	r3, [sp, #44]	; 0x2c
 200356e:	9509      	str	r5, [sp, #36]	; 0x24
 2003570:	9006      	str	r0, [sp, #24]
 2003572:	e6b8      	b.n	20032e6 <__ssvfiscanf_r+0x136>
 2003574:	4690      	mov	r8, r2
 2003576:	466a      	mov	r2, sp
 2003578:	323c      	adds	r2, #60	; 0x3c
 200357a:	4641      	mov	r1, r8
 200357c:	1c10      	adds	r0, r2, #0
 200357e:	9206      	str	r2, [sp, #24]
 2003580:	f003 ff9c 	bl	20074bc <__sccl>
 2003584:	9d07      	ldr	r5, [sp, #28]
 2003586:	2340      	movs	r3, #64	; 0x40
 2003588:	4680      	mov	r8, r0
 200358a:	431d      	orrs	r5, r3
 200358c:	2001      	movs	r0, #1
 200358e:	9507      	str	r5, [sp, #28]
 2003590:	9f08      	ldr	r7, [sp, #32]
 2003592:	9006      	str	r0, [sp, #24]
 2003594:	e6a7      	b.n	20032e6 <__ssvfiscanf_r+0x136>
 2003596:	9907      	ldr	r1, [sp, #28]
 2003598:	2340      	movs	r3, #64	; 0x40
 200359a:	4690      	mov	r8, r2
 200359c:	4319      	orrs	r1, r3
 200359e:	2200      	movs	r2, #0
 20035a0:	9107      	str	r1, [sp, #28]
 20035a2:	9f08      	ldr	r7, [sp, #32]
 20035a4:	9206      	str	r2, [sp, #24]
 20035a6:	e69e      	b.n	20032e6 <__ssvfiscanf_r+0x136>
 20035a8:	9807      	ldr	r0, [sp, #28]
 20035aa:	2304      	movs	r3, #4
 20035ac:	4318      	orrs	r0, r3
 20035ae:	9007      	str	r0, [sp, #28]
 20035b0:	e683      	b.n	20032ba <__ssvfiscanf_r+0x10a>
 20035b2:	4690      	mov	r8, r2
 20035b4:	e7a7      	b.n	2003506 <__ssvfiscanf_r+0x356>
 20035b6:	4690      	mov	r8, r2
 20035b8:	e63d      	b.n	2003236 <__ssvfiscanf_r+0x86>
 20035ba:	9907      	ldr	r1, [sp, #28]
 20035bc:	4319      	orrs	r1, r3
 20035be:	9107      	str	r1, [sp, #28]
 20035c0:	e68a      	b.n	20032d8 <__ssvfiscanf_r+0x128>
 20035c2:	9804      	ldr	r0, [sp, #16]
 20035c4:	1c21      	adds	r1, r4, #0
 20035c6:	f7ff fd3f 	bl	2003048 <__ssrefill_r>
 20035ca:	2800      	cmp	r0, #0
 20035cc:	d000      	beq.n	20035d0 <__ssvfiscanf_r+0x420>
 20035ce:	e71a      	b.n	2003406 <__ssvfiscanf_r+0x256>
 20035d0:	6823      	ldr	r3, [r4, #0]
 20035d2:	3601      	adds	r6, #1
 20035d4:	e6a2      	b.n	200331c <__ssvfiscanf_r+0x16c>
 20035d6:	3002      	adds	r0, #2
 20035d8:	d000      	beq.n	20035dc <__ssvfiscanf_r+0x42c>
 20035da:	e6ef      	b.n	20033bc <__ssvfiscanf_r+0x20c>
 20035dc:	6863      	ldr	r3, [r4, #4]
 20035de:	2b00      	cmp	r3, #0
 20035e0:	dd00      	ble.n	20035e4 <__ssvfiscanf_r+0x434>
 20035e2:	e6f6      	b.n	20033d2 <__ssvfiscanf_r+0x222>
 20035e4:	9804      	ldr	r0, [sp, #16]
 20035e6:	1c21      	adds	r1, r4, #0
 20035e8:	f7ff fd2e 	bl	2003048 <__ssrefill_r>
 20035ec:	2800      	cmp	r0, #0
 20035ee:	d100      	bne.n	20035f2 <__ssvfiscanf_r+0x442>
 20035f0:	e6ef      	b.n	20033d2 <__ssvfiscanf_r+0x222>
 20035f2:	46a9      	mov	r9, r5
 20035f4:	9a08      	ldr	r2, [sp, #32]
 20035f6:	464b      	mov	r3, r9
 20035f8:	4646      	mov	r6, r8
 20035fa:	9d06      	ldr	r5, [sp, #24]
 20035fc:	4690      	mov	r8, r2
 20035fe:	2b00      	cmp	r3, #0
 2003600:	d100      	bne.n	2003604 <__ssvfiscanf_r+0x454>
 2003602:	e6ec      	b.n	20033de <__ssvfiscanf_r+0x22e>
 2003604:	e6ff      	b.n	2003406 <__ssvfiscanf_r+0x256>
 2003606:	9a08      	ldr	r2, [sp, #32]
 2003608:	2a00      	cmp	r2, #0
 200360a:	d101      	bne.n	2003610 <__ssvfiscanf_r+0x460>
 200360c:	2701      	movs	r7, #1
 200360e:	427f      	negs	r7, r7
 2003610:	9b07      	ldr	r3, [sp, #28]
 2003612:	06db      	lsls	r3, r3, #27
 2003614:	d400      	bmi.n	2003618 <__ssvfiscanf_r+0x468>
 2003616:	e168      	b.n	20038ea <__ssvfiscanf_r+0x73a>
 2003618:	4668      	mov	r0, sp
 200361a:	303c      	adds	r0, #60	; 0x3c
 200361c:	6823      	ldr	r3, [r4, #0]
 200361e:	9006      	str	r0, [sp, #24]
 2003620:	2500      	movs	r5, #0
 2003622:	781a      	ldrb	r2, [r3, #0]
 2003624:	9906      	ldr	r1, [sp, #24]
 2003626:	5c8a      	ldrb	r2, [r1, r2]
 2003628:	2a00      	cmp	r2, #0
 200362a:	d100      	bne.n	200362e <__ssvfiscanf_r+0x47e>
 200362c:	e6ff      	b.n	200342e <__ssvfiscanf_r+0x27e>
 200362e:	6862      	ldr	r2, [r4, #4]
 2003630:	3301      	adds	r3, #1
 2003632:	3a01      	subs	r2, #1
 2003634:	3501      	adds	r5, #1
 2003636:	6062      	str	r2, [r4, #4]
 2003638:	6023      	str	r3, [r4, #0]
 200363a:	42af      	cmp	r7, r5
 200363c:	d100      	bne.n	2003640 <__ssvfiscanf_r+0x490>
 200363e:	e117      	b.n	2003870 <__ssvfiscanf_r+0x6c0>
 2003640:	2a00      	cmp	r2, #0
 2003642:	dcee      	bgt.n	2003622 <__ssvfiscanf_r+0x472>
 2003644:	9804      	ldr	r0, [sp, #16]
 2003646:	1c21      	adds	r1, r4, #0
 2003648:	f7ff fcfe 	bl	2003048 <__ssrefill_r>
 200364c:	2800      	cmp	r0, #0
 200364e:	d000      	beq.n	2003652 <__ssvfiscanf_r+0x4a2>
 2003650:	e10e      	b.n	2003870 <__ssvfiscanf_r+0x6c0>
 2003652:	6823      	ldr	r3, [r4, #0]
 2003654:	e7e5      	b.n	2003622 <__ssvfiscanf_r+0x472>
 2003656:	9b08      	ldr	r3, [sp, #32]
 2003658:	3b01      	subs	r3, #1
 200365a:	2b26      	cmp	r3, #38	; 0x26
 200365c:	d900      	bls.n	2003660 <__ssvfiscanf_r+0x4b0>
 200365e:	e18c      	b.n	200397a <__ssvfiscanf_r+0x7ca>
 2003660:	2500      	movs	r5, #0
 2003662:	950d      	str	r5, [sp, #52]	; 0x34
 2003664:	219e      	movs	r1, #158	; 0x9e
 2003666:	9807      	ldr	r0, [sp, #28]
 2003668:	25d8      	movs	r5, #216	; 0xd8
 200366a:	0049      	lsls	r1, r1, #1
 200366c:	4469      	add	r1, sp
 200366e:	012d      	lsls	r5, r5, #4
 2003670:	4305      	orrs	r5, r0
 2003672:	4689      	mov	r9, r1
 2003674:	9103      	str	r1, [sp, #12]
 2003676:	20c0      	movs	r0, #192	; 0xc0
 2003678:	2180      	movs	r1, #128	; 0x80
 200367a:	22a0      	movs	r2, #160	; 0xa0
 200367c:	2300      	movs	r3, #0
 200367e:	00c0      	lsls	r0, r0, #3
 2003680:	0089      	lsls	r1, r1, #2
 2003682:	00d2      	lsls	r2, r2, #3
 2003684:	930c      	str	r3, [sp, #48]	; 0x30
 2003686:	9006      	str	r0, [sp, #24]
 2003688:	1c33      	adds	r3, r6, #0
 200368a:	9107      	str	r1, [sp, #28]
 200368c:	9208      	str	r2, [sp, #32]
 200368e:	1c2e      	adds	r6, r5, #0
 2003690:	464d      	mov	r5, r9
 2003692:	4699      	mov	r9, r3
 2003694:	6822      	ldr	r2, [r4, #0]
 2003696:	7813      	ldrb	r3, [r2, #0]
 2003698:	1c19      	adds	r1, r3, #0
 200369a:	392b      	subs	r1, #43	; 0x2b
 200369c:	0609      	lsls	r1, r1, #24
 200369e:	0e09      	lsrs	r1, r1, #24
 20036a0:	294d      	cmp	r1, #77	; 0x4d
 20036a2:	d919      	bls.n	20036d8 <__ssvfiscanf_r+0x528>
 20036a4:	464b      	mov	r3, r9
 20036a6:	46a9      	mov	r9, r5
 20036a8:	1c35      	adds	r5, r6, #0
 20036aa:	1c1e      	adds	r6, r3, #0
 20036ac:	05ea      	lsls	r2, r5, #23
 20036ae:	d507      	bpl.n	20036c0 <__ssvfiscanf_r+0x510>
 20036b0:	9b03      	ldr	r3, [sp, #12]
 20036b2:	4599      	cmp	r9, r3
 20036b4:	d900      	bls.n	20036b8 <__ssvfiscanf_r+0x508>
 20036b6:	e1fa      	b.n	2003aae <__ssvfiscanf_r+0x8fe>
 20036b8:	9903      	ldr	r1, [sp, #12]
 20036ba:	4589      	cmp	r9, r1
 20036bc:	d100      	bne.n	20036c0 <__ssvfiscanf_r+0x510>
 20036be:	e6b9      	b.n	2003434 <__ssvfiscanf_r+0x284>
 20036c0:	2310      	movs	r3, #16
 20036c2:	402b      	ands	r3, r5
 20036c4:	d100      	bne.n	20036c8 <__ssvfiscanf_r+0x518>
 20036c6:	e15d      	b.n	2003984 <__ssvfiscanf_r+0x7d4>
 20036c8:	9d05      	ldr	r5, [sp, #20]
 20036ca:	9903      	ldr	r1, [sp, #12]
 20036cc:	9a0c      	ldr	r2, [sp, #48]	; 0x30
 20036ce:	1a76      	subs	r6, r6, r1
 20036d0:	18b6      	adds	r6, r6, r2
 20036d2:	444e      	add	r6, r9
 20036d4:	9505      	str	r5, [sp, #20]
 20036d6:	e590      	b.n	20031fa <__ssvfiscanf_r+0x4a>
 20036d8:	486c      	ldr	r0, [pc, #432]	; (200388c <__ssvfiscanf_r+0x6dc>)
 20036da:	0089      	lsls	r1, r1, #2
 20036dc:	5841      	ldr	r1, [r0, r1]
 20036de:	468f      	mov	pc, r1
 20036e0:	9906      	ldr	r1, [sp, #24]
 20036e2:	9807      	ldr	r0, [sp, #28]
 20036e4:	4031      	ands	r1, r6
 20036e6:	4281      	cmp	r1, r0
 20036e8:	d1dc      	bne.n	20036a4 <__ssvfiscanf_r+0x4f4>
 20036ea:	4969      	ldr	r1, [pc, #420]	; (2003890 <__ssvfiscanf_r+0x6e0>)
 20036ec:	9808      	ldr	r0, [sp, #32]
 20036ee:	400e      	ands	r6, r1
 20036f0:	2110      	movs	r1, #16
 20036f2:	9109      	str	r1, [sp, #36]	; 0x24
 20036f4:	4306      	orrs	r6, r0
 20036f6:	702b      	strb	r3, [r5, #0]
 20036f8:	3501      	adds	r5, #1
 20036fa:	6863      	ldr	r3, [r4, #4]
 20036fc:	3b01      	subs	r3, #1
 20036fe:	6063      	str	r3, [r4, #4]
 2003700:	2b00      	cmp	r3, #0
 2003702:	dc00      	bgt.n	2003706 <__ssvfiscanf_r+0x556>
 2003704:	e0b8      	b.n	2003878 <__ssvfiscanf_r+0x6c8>
 2003706:	3201      	adds	r2, #1
 2003708:	6022      	str	r2, [r4, #0]
 200370a:	3f01      	subs	r7, #1
 200370c:	2f00      	cmp	r7, #0
 200370e:	d1c1      	bne.n	2003694 <__ssvfiscanf_r+0x4e4>
 2003710:	e7c8      	b.n	20036a4 <__ssvfiscanf_r+0x4f4>
 2003712:	9909      	ldr	r1, [sp, #36]	; 0x24
 2003714:	290a      	cmp	r1, #10
 2003716:	ddc5      	ble.n	20036a4 <__ssvfiscanf_r+0x4f4>
 2003718:	485e      	ldr	r0, [pc, #376]	; (2003894 <__ssvfiscanf_r+0x6e4>)
 200371a:	4006      	ands	r6, r0
 200371c:	e7eb      	b.n	20036f6 <__ssvfiscanf_r+0x546>
 200371e:	9909      	ldr	r1, [sp, #36]	; 0x24
 2003720:	0048      	lsls	r0, r1, #1
 2003722:	495d      	ldr	r1, [pc, #372]	; (2003898 <__ssvfiscanf_r+0x6e8>)
 2003724:	5a40      	ldrh	r0, [r0, r1]
 2003726:	0400      	lsls	r0, r0, #16
 2003728:	1400      	asrs	r0, r0, #16
 200372a:	9009      	str	r0, [sp, #36]	; 0x24
 200372c:	2808      	cmp	r0, #8
 200372e:	dcf3      	bgt.n	2003718 <__ssvfiscanf_r+0x568>
 2003730:	e7b8      	b.n	20036a4 <__ssvfiscanf_r+0x4f4>
 2003732:	9909      	ldr	r1, [sp, #36]	; 0x24
 2003734:	0048      	lsls	r0, r1, #1
 2003736:	4958      	ldr	r1, [pc, #352]	; (2003898 <__ssvfiscanf_r+0x6e8>)
 2003738:	5a40      	ldrh	r0, [r0, r1]
 200373a:	0400      	lsls	r0, r0, #16
 200373c:	1400      	asrs	r0, r0, #16
 200373e:	9009      	str	r0, [sp, #36]	; 0x24
 2003740:	4854      	ldr	r0, [pc, #336]	; (2003894 <__ssvfiscanf_r+0x6e4>)
 2003742:	4006      	ands	r6, r0
 2003744:	e7d7      	b.n	20036f6 <__ssvfiscanf_r+0x546>
 2003746:	0531      	lsls	r1, r6, #20
 2003748:	d5d5      	bpl.n	20036f6 <__ssvfiscanf_r+0x546>
 200374a:	9809      	ldr	r0, [sp, #36]	; 0x24
 200374c:	2800      	cmp	r0, #0
 200374e:	d103      	bne.n	2003758 <__ssvfiscanf_r+0x5a8>
 2003750:	9907      	ldr	r1, [sp, #28]
 2003752:	2008      	movs	r0, #8
 2003754:	9009      	str	r0, [sp, #36]	; 0x24
 2003756:	430e      	orrs	r6, r1
 2003758:	0571      	lsls	r1, r6, #21
 200375a:	d400      	bmi.n	200375e <__ssvfiscanf_r+0x5ae>
 200375c:	e172      	b.n	2003a44 <__ssvfiscanf_r+0x894>
 200375e:	494f      	ldr	r1, [pc, #316]	; (200389c <__ssvfiscanf_r+0x6ec>)
 2003760:	400e      	ands	r6, r1
 2003762:	e7c8      	b.n	20036f6 <__ssvfiscanf_r+0x546>
 2003764:	2180      	movs	r1, #128	; 0x80
 2003766:	420e      	tst	r6, r1
 2003768:	d09c      	beq.n	20036a4 <__ssvfiscanf_r+0x4f4>
 200376a:	438e      	bics	r6, r1
 200376c:	e7c3      	b.n	20036f6 <__ssvfiscanf_r+0x546>
 200376e:	9808      	ldr	r0, [sp, #32]
 2003770:	2800      	cmp	r0, #0
 2003772:	d101      	bne.n	2003778 <__ssvfiscanf_r+0x5c8>
 2003774:	2701      	movs	r7, #1
 2003776:	427f      	negs	r7, r7
 2003778:	9907      	ldr	r1, [sp, #28]
 200377a:	2201      	movs	r2, #1
 200377c:	4211      	tst	r1, r2
 200377e:	d100      	bne.n	2003782 <__ssvfiscanf_r+0x5d2>
 2003780:	e090      	b.n	20038a4 <__ssvfiscanf_r+0x6f4>
 2003782:	2310      	movs	r3, #16
 2003784:	4019      	ands	r1, r3
 2003786:	9107      	str	r1, [sp, #28]
 2003788:	d100      	bne.n	200378c <__ssvfiscanf_r+0x5dc>
 200378a:	e14f      	b.n	2003a2c <__ssvfiscanf_r+0x87c>
 200378c:	23b6      	movs	r3, #182	; 0xb6
 200378e:	005b      	lsls	r3, r3, #1
 2003790:	446b      	add	r3, sp
 2003792:	9d05      	ldr	r5, [sp, #20]
 2003794:	9305      	str	r3, [sp, #20]
 2003796:	1c3b      	adds	r3, r7, #0
 2003798:	2100      	movs	r1, #0
 200379a:	1c0f      	adds	r7, r1, #0
 200379c:	4699      	mov	r9, r3
 200379e:	6823      	ldr	r3, [r4, #0]
 20037a0:	4648      	mov	r0, r9
 20037a2:	781a      	ldrb	r2, [r3, #0]
 20037a4:	2800      	cmp	r0, #0
 20037a6:	d048      	beq.n	200383a <__ssvfiscanf_r+0x68a>
 20037a8:	483d      	ldr	r0, [pc, #244]	; (20038a0 <__ssvfiscanf_r+0x6f0>)
 20037aa:	6801      	ldr	r1, [r0, #0]
 20037ac:	1889      	adds	r1, r1, r2
 20037ae:	7849      	ldrb	r1, [r1, #1]
 20037b0:	2008      	movs	r0, #8
 20037b2:	4201      	tst	r1, r0
 20037b4:	d141      	bne.n	200383a <__ssvfiscanf_r+0x68a>
 20037b6:	4650      	mov	r0, sl
 20037b8:	6801      	ldr	r1, [r0, #0]
 20037ba:	428f      	cmp	r7, r1
 20037bc:	d100      	bne.n	20037c0 <__ssvfiscanf_r+0x610>
 20037be:	e622      	b.n	2003406 <__ssvfiscanf_r+0x256>
 20037c0:	a94f      	add	r1, sp, #316	; 0x13c
 20037c2:	55ca      	strb	r2, [r1, r7]
 20037c4:	6862      	ldr	r2, [r4, #4]
 20037c6:	3301      	adds	r3, #1
 20037c8:	3a01      	subs	r2, #1
 20037ca:	6062      	str	r2, [r4, #4]
 20037cc:	6023      	str	r3, [r4, #0]
 20037ce:	2100      	movs	r1, #0
 20037d0:	2208      	movs	r2, #8
 20037d2:	4658      	mov	r0, fp
 20037d4:	f7ff faba 	bl	2002d4c <memset>
 20037d8:	3701      	adds	r7, #1
 20037da:	465a      	mov	r2, fp
 20037dc:	9200      	str	r2, [sp, #0]
 20037de:	1c3b      	adds	r3, r7, #0
 20037e0:	9804      	ldr	r0, [sp, #16]
 20037e2:	9905      	ldr	r1, [sp, #20]
 20037e4:	aa4f      	add	r2, sp, #316	; 0x13c
 20037e6:	f003 f97f 	bl	2006ae8 <_mbrtowc_r>
 20037ea:	1c43      	adds	r3, r0, #1
 20037ec:	d100      	bne.n	20037f0 <__ssvfiscanf_r+0x640>
 20037ee:	e60a      	b.n	2003406 <__ssvfiscanf_r+0x256>
 20037f0:	2800      	cmp	r0, #0
 20037f2:	d000      	beq.n	20037f6 <__ssvfiscanf_r+0x646>
 20037f4:	e132      	b.n	2003a5c <__ssvfiscanf_r+0x8ac>
 20037f6:	9905      	ldr	r1, [sp, #20]
 20037f8:	6008      	str	r0, [r1, #0]
 20037fa:	f002 f90d 	bl	2005a18 <iswspace>
 20037fe:	2800      	cmp	r0, #0
 2003800:	d100      	bne.n	2003804 <__ssvfiscanf_r+0x654>
 2003802:	e16a      	b.n	2003ada <__ssvfiscanf_r+0x92a>
 2003804:	46b9      	mov	r9, r7
 2003806:	2f00      	cmp	r7, #0
 2003808:	d017      	beq.n	200383a <__ssvfiscanf_r+0x68a>
 200380a:	2301      	movs	r3, #1
 200380c:	425b      	negs	r3, r3
 200380e:	a84f      	add	r0, sp, #316	; 0x13c
 2003810:	4499      	add	r9, r3
 2003812:	1c07      	adds	r7, r0, #0
 2003814:	444f      	add	r7, r9
 2003816:	9506      	str	r5, [sp, #24]
 2003818:	1c25      	adds	r5, r4, #0
 200381a:	464c      	mov	r4, r9
 200381c:	46b1      	mov	r9, r6
 200381e:	9e04      	ldr	r6, [sp, #16]
 2003820:	e000      	b.n	2003824 <__ssvfiscanf_r+0x674>
 2003822:	3c01      	subs	r4, #1
 2003824:	7839      	ldrb	r1, [r7, #0]
 2003826:	1c30      	adds	r0, r6, #0
 2003828:	1c2a      	adds	r2, r5, #0
 200382a:	f7ff fc79 	bl	2003120 <_sungetc_r>
 200382e:	3f01      	subs	r7, #1
 2003830:	2c00      	cmp	r4, #0
 2003832:	d1f6      	bne.n	2003822 <__ssvfiscanf_r+0x672>
 2003834:	1c2c      	adds	r4, r5, #0
 2003836:	9d06      	ldr	r5, [sp, #24]
 2003838:	464e      	mov	r6, r9
 200383a:	9907      	ldr	r1, [sp, #28]
 200383c:	2900      	cmp	r1, #0
 200383e:	d000      	beq.n	2003842 <__ssvfiscanf_r+0x692>
 2003840:	e514      	b.n	200326c <__ssvfiscanf_r+0xbc>
 2003842:	9b0a      	ldr	r3, [sp, #40]	; 0x28
 2003844:	9a05      	ldr	r2, [sp, #20]
 2003846:	3301      	adds	r3, #1
 2003848:	6011      	str	r1, [r2, #0]
 200384a:	930a      	str	r3, [sp, #40]	; 0x28
 200384c:	9505      	str	r5, [sp, #20]
 200384e:	e4d4      	b.n	20031fa <__ssvfiscanf_r+0x4a>
 2003850:	1c2b      	adds	r3, r5, #0
 2003852:	464d      	mov	r5, r9
 2003854:	4699      	mov	r9, r3
 2003856:	464a      	mov	r2, r9
 2003858:	1b55      	subs	r5, r2, r5
 200385a:	2d00      	cmp	r5, #0
 200385c:	d100      	bne.n	2003860 <__ssvfiscanf_r+0x6b0>
 200385e:	e5e9      	b.n	2003434 <__ssvfiscanf_r+0x284>
 2003860:	9b05      	ldr	r3, [sp, #20]
 2003862:	3304      	adds	r3, #4
 2003864:	9305      	str	r3, [sp, #20]
 2003866:	2300      	movs	r3, #0
 2003868:	7013      	strb	r3, [r2, #0]
 200386a:	9f0a      	ldr	r7, [sp, #40]	; 0x28
 200386c:	3701      	adds	r7, #1
 200386e:	970a      	str	r7, [sp, #40]	; 0x28
 2003870:	1976      	adds	r6, r6, r5
 2003872:	9d05      	ldr	r5, [sp, #20]
 2003874:	9505      	str	r5, [sp, #20]
 2003876:	e4c0      	b.n	20031fa <__ssvfiscanf_r+0x4a>
 2003878:	9804      	ldr	r0, [sp, #16]
 200387a:	1c21      	adds	r1, r4, #0
 200387c:	f7ff fbe4 	bl	2003048 <__ssrefill_r>
 2003880:	2800      	cmp	r0, #0
 2003882:	d100      	bne.n	2003886 <__ssvfiscanf_r+0x6d6>
 2003884:	e741      	b.n	200370a <__ssvfiscanf_r+0x55a>
 2003886:	e70d      	b.n	20036a4 <__ssvfiscanf_r+0x4f4>
 2003888:	02007a21 	.word	0x02007a21
 200388c:	0200a7f4 	.word	0x0200a7f4
 2003890:	fffffdff 	.word	0xfffffdff
 2003894:	fffff47f 	.word	0xfffff47f
 2003898:	0200a92c 	.word	0x0200a92c
 200389c:	fffffa7f 	.word	0xfffffa7f
 20038a0:	0200ed74 	.word	0x0200ed74
 20038a4:	9d07      	ldr	r5, [sp, #28]
 20038a6:	06ed      	lsls	r5, r5, #27
 20038a8:	d400      	bmi.n	20038ac <__ssvfiscanf_r+0x6fc>
 20038aa:	e087      	b.n	20039bc <__ssvfiscanf_r+0x80c>
 20038ac:	1c32      	adds	r2, r6, #0
 20038ae:	2000      	movs	r0, #0
 20038b0:	6823      	ldr	r3, [r4, #0]
 20038b2:	4da1      	ldr	r5, [pc, #644]	; (2003b38 <__ssvfiscanf_r+0x988>)
 20038b4:	1c06      	adds	r6, r0, #0
 20038b6:	4691      	mov	r9, r2
 20038b8:	6829      	ldr	r1, [r5, #0]
 20038ba:	781a      	ldrb	r2, [r3, #0]
 20038bc:	188a      	adds	r2, r1, r2
 20038be:	7852      	ldrb	r2, [r2, #1]
 20038c0:	2108      	movs	r1, #8
 20038c2:	420a      	tst	r2, r1
 20038c4:	d176      	bne.n	20039b4 <__ssvfiscanf_r+0x804>
 20038c6:	6862      	ldr	r2, [r4, #4]
 20038c8:	3301      	adds	r3, #1
 20038ca:	3a01      	subs	r2, #1
 20038cc:	3601      	adds	r6, #1
 20038ce:	6062      	str	r2, [r4, #4]
 20038d0:	6023      	str	r3, [r4, #0]
 20038d2:	42b7      	cmp	r7, r6
 20038d4:	d06e      	beq.n	20039b4 <__ssvfiscanf_r+0x804>
 20038d6:	2a00      	cmp	r2, #0
 20038d8:	dcee      	bgt.n	20038b8 <__ssvfiscanf_r+0x708>
 20038da:	9804      	ldr	r0, [sp, #16]
 20038dc:	1c21      	adds	r1, r4, #0
 20038de:	f7ff fbb3 	bl	2003048 <__ssrefill_r>
 20038e2:	2800      	cmp	r0, #0
 20038e4:	d166      	bne.n	20039b4 <__ssvfiscanf_r+0x804>
 20038e6:	6823      	ldr	r3, [r4, #0]
 20038e8:	e7e6      	b.n	20038b8 <__ssvfiscanf_r+0x708>
 20038ea:	9a05      	ldr	r2, [sp, #20]
 20038ec:	4668      	mov	r0, sp
 20038ee:	6815      	ldr	r5, [r2, #0]
 20038f0:	303c      	adds	r0, #60	; 0x3c
 20038f2:	6823      	ldr	r3, [r4, #0]
 20038f4:	9006      	str	r0, [sp, #24]
 20038f6:	46a9      	mov	r9, r5
 20038f8:	781b      	ldrb	r3, [r3, #0]
 20038fa:	9906      	ldr	r1, [sp, #24]
 20038fc:	5ccb      	ldrb	r3, [r1, r3]
 20038fe:	2b00      	cmp	r3, #0
 2003900:	d0a6      	beq.n	2003850 <__ssvfiscanf_r+0x6a0>
 2003902:	6863      	ldr	r3, [r4, #4]
 2003904:	3b01      	subs	r3, #1
 2003906:	6063      	str	r3, [r4, #4]
 2003908:	6823      	ldr	r3, [r4, #0]
 200390a:	781a      	ldrb	r2, [r3, #0]
 200390c:	3f01      	subs	r7, #1
 200390e:	3301      	adds	r3, #1
 2003910:	702a      	strb	r2, [r5, #0]
 2003912:	3501      	adds	r5, #1
 2003914:	6023      	str	r3, [r4, #0]
 2003916:	2f00      	cmp	r7, #0
 2003918:	d09a      	beq.n	2003850 <__ssvfiscanf_r+0x6a0>
 200391a:	6862      	ldr	r2, [r4, #4]
 200391c:	2a00      	cmp	r2, #0
 200391e:	dceb      	bgt.n	20038f8 <__ssvfiscanf_r+0x748>
 2003920:	9804      	ldr	r0, [sp, #16]
 2003922:	1c21      	adds	r1, r4, #0
 2003924:	f7ff fb90 	bl	2003048 <__ssrefill_r>
 2003928:	2800      	cmp	r0, #0
 200392a:	d000      	beq.n	200392e <__ssvfiscanf_r+0x77e>
 200392c:	e0f9      	b.n	2003b22 <__ssvfiscanf_r+0x972>
 200392e:	6823      	ldr	r3, [r4, #0]
 2003930:	e7e2      	b.n	20038f8 <__ssvfiscanf_r+0x748>
 2003932:	9a07      	ldr	r2, [sp, #28]
 2003934:	06d2      	lsls	r2, r2, #27
 2003936:	d400      	bmi.n	200393a <__ssvfiscanf_r+0x78a>
 2003938:	e0aa      	b.n	2003a90 <__ssvfiscanf_r+0x8e0>
 200393a:	2300      	movs	r3, #0
 200393c:	4699      	mov	r9, r3
 200393e:	1c33      	adds	r3, r6, #0
 2003940:	464e      	mov	r6, r9
 2003942:	4699      	mov	r9, r3
 2003944:	e000      	b.n	2003948 <__ssvfiscanf_r+0x798>
 2003946:	1b7f      	subs	r7, r7, r5
 2003948:	6865      	ldr	r5, [r4, #4]
 200394a:	42bd      	cmp	r5, r7
 200394c:	db00      	blt.n	2003950 <__ssvfiscanf_r+0x7a0>
 200394e:	e0de      	b.n	2003b0e <__ssvfiscanf_r+0x95e>
 2003950:	6823      	ldr	r3, [r4, #0]
 2003952:	195b      	adds	r3, r3, r5
 2003954:	6023      	str	r3, [r4, #0]
 2003956:	9804      	ldr	r0, [sp, #16]
 2003958:	1c21      	adds	r1, r4, #0
 200395a:	1976      	adds	r6, r6, r5
 200395c:	f7ff fb74 	bl	2003048 <__ssrefill_r>
 2003960:	2800      	cmp	r0, #0
 2003962:	d0f0      	beq.n	2003946 <__ssvfiscanf_r+0x796>
 2003964:	464b      	mov	r3, r9
 2003966:	46b1      	mov	r9, r6
 2003968:	464d      	mov	r5, r9
 200396a:	1c1e      	adds	r6, r3, #0
 200396c:	2d00      	cmp	r5, #0
 200396e:	d100      	bne.n	2003972 <__ssvfiscanf_r+0x7c2>
 2003970:	e549      	b.n	2003406 <__ssvfiscanf_r+0x256>
 2003972:	9d05      	ldr	r5, [sp, #20]
 2003974:	444e      	add	r6, r9
 2003976:	9505      	str	r5, [sp, #20]
 2003978:	e43f      	b.n	20031fa <__ssvfiscanf_r+0x4a>
 200397a:	9f08      	ldr	r7, [sp, #32]
 200397c:	3f27      	subs	r7, #39	; 0x27
 200397e:	970d      	str	r7, [sp, #52]	; 0x34
 2003980:	2727      	movs	r7, #39	; 0x27
 2003982:	e66f      	b.n	2003664 <__ssvfiscanf_r+0x4b4>
 2003984:	464a      	mov	r2, r9
 2003986:	7013      	strb	r3, [r2, #0]
 2003988:	a94f      	add	r1, sp, #316	; 0x13c
 200398a:	9804      	ldr	r0, [sp, #16]
 200398c:	2200      	movs	r2, #0
 200398e:	9b09      	ldr	r3, [sp, #36]	; 0x24
 2003990:	9f0b      	ldr	r7, [sp, #44]	; 0x2c
 2003992:	f000 f8d5 	bl	2003b40 <__ssvfiscanf_r+0x990>
 2003996:	06a9      	lsls	r1, r5, #26
 2003998:	d471      	bmi.n	2003a7e <__ssvfiscanf_r+0x8ce>
 200399a:	2304      	movs	r3, #4
 200399c:	421d      	tst	r5, r3
 200399e:	d000      	beq.n	20039a2 <__ssvfiscanf_r+0x7f2>
 20039a0:	e0a7      	b.n	2003af2 <__ssvfiscanf_r+0x942>
 20039a2:	2101      	movs	r1, #1
 20039a4:	420d      	tst	r5, r1
 20039a6:	d16a      	bne.n	2003a7e <__ssvfiscanf_r+0x8ce>
 20039a8:	9f05      	ldr	r7, [sp, #20]
 20039aa:	9d05      	ldr	r5, [sp, #20]
 20039ac:	683b      	ldr	r3, [r7, #0]
 20039ae:	3504      	adds	r5, #4
 20039b0:	6018      	str	r0, [r3, #0]
 20039b2:	e069      	b.n	2003a88 <__ssvfiscanf_r+0x8d8>
 20039b4:	464b      	mov	r3, r9
 20039b6:	46b1      	mov	r9, r6
 20039b8:	1c1e      	adds	r6, r3, #0
 20039ba:	e7da      	b.n	2003972 <__ssvfiscanf_r+0x7c2>
 20039bc:	9a05      	ldr	r2, [sp, #20]
 20039be:	6812      	ldr	r2, [r2, #0]
 20039c0:	6823      	ldr	r3, [r4, #0]
 20039c2:	4691      	mov	r9, r2
 20039c4:	9207      	str	r2, [sp, #28]
 20039c6:	4d5c      	ldr	r5, [pc, #368]	; (2003b38 <__ssvfiscanf_r+0x988>)
 20039c8:	1c32      	adds	r2, r6, #0
 20039ca:	464e      	mov	r6, r9
 20039cc:	4691      	mov	r9, r2
 20039ce:	781b      	ldrb	r3, [r3, #0]
 20039d0:	682a      	ldr	r2, [r5, #0]
 20039d2:	18d3      	adds	r3, r2, r3
 20039d4:	785b      	ldrb	r3, [r3, #1]
 20039d6:	2008      	movs	r0, #8
 20039d8:	4203      	tst	r3, r0
 20039da:	d116      	bne.n	2003a0a <__ssvfiscanf_r+0x85a>
 20039dc:	6863      	ldr	r3, [r4, #4]
 20039de:	3b01      	subs	r3, #1
 20039e0:	6063      	str	r3, [r4, #4]
 20039e2:	6823      	ldr	r3, [r4, #0]
 20039e4:	781a      	ldrb	r2, [r3, #0]
 20039e6:	3f01      	subs	r7, #1
 20039e8:	3301      	adds	r3, #1
 20039ea:	7032      	strb	r2, [r6, #0]
 20039ec:	3601      	adds	r6, #1
 20039ee:	6023      	str	r3, [r4, #0]
 20039f0:	2f00      	cmp	r7, #0
 20039f2:	d00a      	beq.n	2003a0a <__ssvfiscanf_r+0x85a>
 20039f4:	6862      	ldr	r2, [r4, #4]
 20039f6:	2a00      	cmp	r2, #0
 20039f8:	dce9      	bgt.n	20039ce <__ssvfiscanf_r+0x81e>
 20039fa:	9804      	ldr	r0, [sp, #16]
 20039fc:	1c21      	adds	r1, r4, #0
 20039fe:	f7ff fb23 	bl	2003048 <__ssrefill_r>
 2003a02:	2800      	cmp	r0, #0
 2003a04:	d101      	bne.n	2003a0a <__ssvfiscanf_r+0x85a>
 2003a06:	6823      	ldr	r3, [r4, #0]
 2003a08:	e7e1      	b.n	20039ce <__ssvfiscanf_r+0x81e>
 2003a0a:	464b      	mov	r3, r9
 2003a0c:	46b1      	mov	r9, r6
 2003a0e:	4649      	mov	r1, r9
 2003a10:	1c1e      	adds	r6, r3, #0
 2003a12:	2300      	movs	r3, #0
 2003a14:	9d05      	ldr	r5, [sp, #20]
 2003a16:	700b      	strb	r3, [r1, #0]
 2003a18:	9b0a      	ldr	r3, [sp, #40]	; 0x28
 2003a1a:	9a07      	ldr	r2, [sp, #28]
 2003a1c:	3504      	adds	r5, #4
 2003a1e:	1ab6      	subs	r6, r6, r2
 2003a20:	3301      	adds	r3, #1
 2003a22:	444e      	add	r6, r9
 2003a24:	930a      	str	r3, [sp, #40]	; 0x28
 2003a26:	9505      	str	r5, [sp, #20]
 2003a28:	f7ff fbe7 	bl	20031fa <__ssvfiscanf_r+0x4a>
 2003a2c:	9805      	ldr	r0, [sp, #20]
 2003a2e:	9d05      	ldr	r5, [sp, #20]
 2003a30:	6800      	ldr	r0, [r0, #0]
 2003a32:	3504      	adds	r5, #4
 2003a34:	9005      	str	r0, [sp, #20]
 2003a36:	e6ae      	b.n	2003796 <__ssvfiscanf_r+0x5e6>
 2003a38:	9a05      	ldr	r2, [sp, #20]
 2003a3a:	9d05      	ldr	r5, [sp, #20]
 2003a3c:	6812      	ldr	r2, [r2, #0]
 2003a3e:	3504      	adds	r5, #4
 2003a40:	9205      	str	r2, [sp, #20]
 2003a42:	e48e      	b.n	2003362 <__ssvfiscanf_r+0x1b2>
 2003a44:	9b0d      	ldr	r3, [sp, #52]	; 0x34
 2003a46:	2b00      	cmp	r3, #0
 2003a48:	d002      	beq.n	2003a50 <__ssvfiscanf_r+0x8a0>
 2003a4a:	3b01      	subs	r3, #1
 2003a4c:	930d      	str	r3, [sp, #52]	; 0x34
 2003a4e:	3701      	adds	r7, #1
 2003a50:	980c      	ldr	r0, [sp, #48]	; 0x30
 2003a52:	4b3a      	ldr	r3, [pc, #232]	; (2003b3c <__ssvfiscanf_r+0x98c>)
 2003a54:	3001      	adds	r0, #1
 2003a56:	401e      	ands	r6, r3
 2003a58:	900c      	str	r0, [sp, #48]	; 0x30
 2003a5a:	e64e      	b.n	20036fa <__ssvfiscanf_r+0x54a>
 2003a5c:	3002      	adds	r0, #2
 2003a5e:	d167      	bne.n	2003b30 <__ssvfiscanf_r+0x980>
 2003a60:	6863      	ldr	r3, [r4, #4]
 2003a62:	2b00      	cmp	r3, #0
 2003a64:	dd00      	ble.n	2003a68 <__ssvfiscanf_r+0x8b8>
 2003a66:	e69a      	b.n	200379e <__ssvfiscanf_r+0x5ee>
 2003a68:	9804      	ldr	r0, [sp, #16]
 2003a6a:	1c21      	adds	r1, r4, #0
 2003a6c:	f7ff faec 	bl	2003048 <__ssrefill_r>
 2003a70:	2800      	cmp	r0, #0
 2003a72:	d100      	bne.n	2003a76 <__ssvfiscanf_r+0x8c6>
 2003a74:	e693      	b.n	200379e <__ssvfiscanf_r+0x5ee>
 2003a76:	2f00      	cmp	r7, #0
 2003a78:	d000      	beq.n	2003a7c <__ssvfiscanf_r+0x8cc>
 2003a7a:	e4c4      	b.n	2003406 <__ssvfiscanf_r+0x256>
 2003a7c:	e6dd      	b.n	200383a <__ssvfiscanf_r+0x68a>
 2003a7e:	9a05      	ldr	r2, [sp, #20]
 2003a80:	6813      	ldr	r3, [r2, #0]
 2003a82:	9d05      	ldr	r5, [sp, #20]
 2003a84:	6018      	str	r0, [r3, #0]
 2003a86:	3504      	adds	r5, #4
 2003a88:	980a      	ldr	r0, [sp, #40]	; 0x28
 2003a8a:	3001      	adds	r0, #1
 2003a8c:	900a      	str	r0, [sp, #40]	; 0x28
 2003a8e:	e61c      	b.n	20036ca <__ssvfiscanf_r+0x51a>
 2003a90:	9805      	ldr	r0, [sp, #20]
 2003a92:	2201      	movs	r2, #1
 2003a94:	6801      	ldr	r1, [r0, #0]
 2003a96:	1c3b      	adds	r3, r7, #0
 2003a98:	9804      	ldr	r0, [sp, #16]
 2003a9a:	9400      	str	r4, [sp, #0]
 2003a9c:	f7ff faf6 	bl	200308c <_sfread_r>
 2003aa0:	2800      	cmp	r0, #0
 2003aa2:	d100      	bne.n	2003aa6 <__ssvfiscanf_r+0x8f6>
 2003aa4:	e4af      	b.n	2003406 <__ssvfiscanf_r+0x256>
 2003aa6:	9d05      	ldr	r5, [sp, #20]
 2003aa8:	1986      	adds	r6, r0, r6
 2003aaa:	3504      	adds	r5, #4
 2003aac:	e49b      	b.n	20033e6 <__ssvfiscanf_r+0x236>
 2003aae:	2701      	movs	r7, #1
 2003ab0:	427f      	negs	r7, r7
 2003ab2:	44b9      	add	r9, r7
 2003ab4:	4648      	mov	r0, r9
 2003ab6:	7801      	ldrb	r1, [r0, #0]
 2003ab8:	1c22      	adds	r2, r4, #0
 2003aba:	9804      	ldr	r0, [sp, #16]
 2003abc:	f7ff fb30 	bl	2003120 <_sungetc_r>
 2003ac0:	e5fa      	b.n	20036b8 <__ssvfiscanf_r+0x508>
 2003ac2:	9907      	ldr	r1, [sp, #28]
 2003ac4:	2201      	movs	r2, #1
 2003ac6:	4211      	tst	r1, r2
 2003ac8:	d019      	beq.n	2003afe <__ssvfiscanf_r+0x94e>
 2003aca:	9f05      	ldr	r7, [sp, #20]
 2003acc:	9d05      	ldr	r5, [sp, #20]
 2003ace:	683b      	ldr	r3, [r7, #0]
 2003ad0:	3504      	adds	r5, #4
 2003ad2:	601e      	str	r6, [r3, #0]
 2003ad4:	9505      	str	r5, [sp, #20]
 2003ad6:	f7ff fb90 	bl	20031fa <__ssvfiscanf_r+0x4a>
 2003ada:	2101      	movs	r1, #1
 2003adc:	9a07      	ldr	r2, [sp, #28]
 2003ade:	4249      	negs	r1, r1
 2003ae0:	19f6      	adds	r6, r6, r7
 2003ae2:	4489      	add	r9, r1
 2003ae4:	2a00      	cmp	r2, #0
 2003ae6:	d102      	bne.n	2003aee <__ssvfiscanf_r+0x93e>
 2003ae8:	9b05      	ldr	r3, [sp, #20]
 2003aea:	3304      	adds	r3, #4
 2003aec:	9305      	str	r3, [sp, #20]
 2003aee:	2700      	movs	r7, #0
 2003af0:	e7b6      	b.n	2003a60 <__ssvfiscanf_r+0x8b0>
 2003af2:	9f05      	ldr	r7, [sp, #20]
 2003af4:	9d05      	ldr	r5, [sp, #20]
 2003af6:	683b      	ldr	r3, [r7, #0]
 2003af8:	3504      	adds	r5, #4
 2003afa:	8018      	strh	r0, [r3, #0]
 2003afc:	e7c4      	b.n	2003a88 <__ssvfiscanf_r+0x8d8>
 2003afe:	9805      	ldr	r0, [sp, #20]
 2003b00:	9d05      	ldr	r5, [sp, #20]
 2003b02:	6803      	ldr	r3, [r0, #0]
 2003b04:	3504      	adds	r5, #4
 2003b06:	601e      	str	r6, [r3, #0]
 2003b08:	9505      	str	r5, [sp, #20]
 2003b0a:	f7ff fb76 	bl	20031fa <__ssvfiscanf_r+0x4a>
 2003b0e:	464b      	mov	r3, r9
 2003b10:	46b1      	mov	r9, r6
 2003b12:	1c1e      	adds	r6, r3, #0
 2003b14:	6823      	ldr	r3, [r4, #0]
 2003b16:	1bed      	subs	r5, r5, r7
 2003b18:	44b9      	add	r9, r7
 2003b1a:	19df      	adds	r7, r3, r7
 2003b1c:	6065      	str	r5, [r4, #4]
 2003b1e:	6027      	str	r7, [r4, #0]
 2003b20:	e727      	b.n	2003972 <__ssvfiscanf_r+0x7c2>
 2003b22:	1c2b      	adds	r3, r5, #0
 2003b24:	464d      	mov	r5, r9
 2003b26:	4699      	mov	r9, r3
 2003b28:	454d      	cmp	r5, r9
 2003b2a:	d000      	beq.n	2003b2e <__ssvfiscanf_r+0x97e>
 2003b2c:	e693      	b.n	2003856 <__ssvfiscanf_r+0x6a6>
 2003b2e:	e46a      	b.n	2003406 <__ssvfiscanf_r+0x256>
 2003b30:	9a05      	ldr	r2, [sp, #20]
 2003b32:	6810      	ldr	r0, [r2, #0]
 2003b34:	e661      	b.n	20037fa <__ssvfiscanf_r+0x64a>
 2003b36:	46c0      	nop			; (mov r8, r8)
 2003b38:	0200ed74 	.word	0x0200ed74
 2003b3c:	fffffc7f 	.word	0xfffffc7f
 2003b40:	4738      	bx	r7
 2003b42:	46c0      	nop			; (mov r8, r8)

02003b44 <time>:
 2003b44:	b530      	push	{r4, r5, lr}
 2003b46:	b083      	sub	sp, #12
 2003b48:	4b0a      	ldr	r3, [pc, #40]	; (2003b74 <time+0x30>)
 2003b4a:	1c05      	adds	r5, r0, #0
 2003b4c:	4669      	mov	r1, sp
 2003b4e:	6818      	ldr	r0, [r3, #0]
 2003b50:	2200      	movs	r2, #0
 2003b52:	f004 fb5b 	bl	200820c <_gettimeofday_r>
 2003b56:	2800      	cmp	r0, #0
 2003b58:	db08      	blt.n	2003b6c <time+0x28>
 2003b5a:	2d00      	cmp	r5, #0
 2003b5c:	d001      	beq.n	2003b62 <time+0x1e>
 2003b5e:	9b00      	ldr	r3, [sp, #0]
 2003b60:	602b      	str	r3, [r5, #0]
 2003b62:	9800      	ldr	r0, [sp, #0]
 2003b64:	b003      	add	sp, #12
 2003b66:	bc30      	pop	{r4, r5}
 2003b68:	bc02      	pop	{r1}
 2003b6a:	4708      	bx	r1
 2003b6c:	2001      	movs	r0, #1
 2003b6e:	4240      	negs	r0, r0
 2003b70:	e7f8      	b.n	2003b64 <time+0x20>
 2003b72:	46c0      	nop			; (mov r8, r8)
 2003b74:	0200e940 	.word	0x0200e940

02003b78 <__submore>:
 2003b78:	b5f0      	push	{r4, r5, r6, r7, lr}
 2003b7a:	4647      	mov	r7, r8
 2003b7c:	b480      	push	{r7}
 2003b7e:	1c0c      	adds	r4, r1, #0
 2003b80:	1c23      	adds	r3, r4, #0
 2003b82:	6b09      	ldr	r1, [r1, #48]	; 0x30
 2003b84:	3340      	adds	r3, #64	; 0x40
 2003b86:	4299      	cmp	r1, r3
 2003b88:	d01b      	beq.n	2003bc2 <__submore+0x4a>
 2003b8a:	6b67      	ldr	r7, [r4, #52]	; 0x34
 2003b8c:	007b      	lsls	r3, r7, #1
 2003b8e:	1c1a      	adds	r2, r3, #0
 2003b90:	4698      	mov	r8, r3
 2003b92:	f003 fae9 	bl	2007168 <_realloc_r>
 2003b96:	1c05      	adds	r5, r0, #0
 2003b98:	2800      	cmp	r0, #0
 2003b9a:	d00f      	beq.n	2003bbc <__submore+0x44>
 2003b9c:	19c6      	adds	r6, r0, r7
 2003b9e:	1c30      	adds	r0, r6, #0
 2003ba0:	1c29      	adds	r1, r5, #0
 2003ba2:	1c3a      	adds	r2, r7, #0
 2003ba4:	f7ff f892 	bl	2002ccc <memcpy>
 2003ba8:	4643      	mov	r3, r8
 2003baa:	6026      	str	r6, [r4, #0]
 2003bac:	6325      	str	r5, [r4, #48]	; 0x30
 2003bae:	6363      	str	r3, [r4, #52]	; 0x34
 2003bb0:	2000      	movs	r0, #0
 2003bb2:	bc04      	pop	{r2}
 2003bb4:	4690      	mov	r8, r2
 2003bb6:	bcf0      	pop	{r4, r5, r6, r7}
 2003bb8:	bc02      	pop	{r1}
 2003bba:	4708      	bx	r1
 2003bbc:	2001      	movs	r0, #1
 2003bbe:	4240      	negs	r0, r0
 2003bc0:	e7f7      	b.n	2003bb2 <__submore+0x3a>
 2003bc2:	2580      	movs	r5, #128	; 0x80
 2003bc4:	00ed      	lsls	r5, r5, #3
 2003bc6:	1c29      	adds	r1, r5, #0
 2003bc8:	f002 fcc6 	bl	2006558 <_malloc_r>
 2003bcc:	2800      	cmp	r0, #0
 2003bce:	d0f5      	beq.n	2003bbc <__submore+0x44>
 2003bd0:	4b07      	ldr	r3, [pc, #28]	; (2003bf0 <__submore+0x78>)
 2003bd2:	6320      	str	r0, [r4, #48]	; 0x30
 2003bd4:	6365      	str	r5, [r4, #52]	; 0x34
 2003bd6:	18c0      	adds	r0, r0, r3
 2003bd8:	2342      	movs	r3, #66	; 0x42
 2003bda:	5ce3      	ldrb	r3, [r4, r3]
 2003bdc:	7083      	strb	r3, [r0, #2]
 2003bde:	2341      	movs	r3, #65	; 0x41
 2003be0:	5ce3      	ldrb	r3, [r4, r3]
 2003be2:	7043      	strb	r3, [r0, #1]
 2003be4:	2340      	movs	r3, #64	; 0x40
 2003be6:	5ce3      	ldrb	r3, [r4, r3]
 2003be8:	7003      	strb	r3, [r0, #0]
 2003bea:	6020      	str	r0, [r4, #0]
 2003bec:	2000      	movs	r0, #0
 2003bee:	e7e0      	b.n	2003bb2 <__submore+0x3a>
 2003bf0:	000003fd 	.word	0x000003fd

02003bf4 <_ungetc_r>:
 2003bf4:	b5f8      	push	{r3, r4, r5, r6, r7, lr}
 2003bf6:	1c0d      	adds	r5, r1, #0
 2003bf8:	1c06      	adds	r6, r0, #0
 2003bfa:	1c14      	adds	r4, r2, #0
 2003bfc:	1c69      	adds	r1, r5, #1
 2003bfe:	d021      	beq.n	2003c44 <_ungetc_r+0x50>
 2003c00:	2800      	cmp	r0, #0
 2003c02:	d002      	beq.n	2003c0a <_ungetc_r+0x16>
 2003c04:	6b83      	ldr	r3, [r0, #56]	; 0x38
 2003c06:	2b00      	cmp	r3, #0
 2003c08:	d028      	beq.n	2003c5c <_ungetc_r+0x68>
 2003c0a:	89a3      	ldrh	r3, [r4, #12]
 2003c0c:	2280      	movs	r2, #128	; 0x80
 2003c0e:	0192      	lsls	r2, r2, #6
 2003c10:	0419      	lsls	r1, r3, #16
 2003c12:	4213      	tst	r3, r2
 2003c14:	d01a      	beq.n	2003c4c <_ungetc_r+0x58>
 2003c16:	4a36      	ldr	r2, [pc, #216]	; (2003cf0 <_ungetc_r+0xfc>)
 2003c18:	0c0b      	lsrs	r3, r1, #16
 2003c1a:	4013      	ands	r3, r2
 2003c1c:	81a3      	strh	r3, [r4, #12]
 2003c1e:	0759      	lsls	r1, r3, #29
 2003c20:	d545      	bpl.n	2003cae <_ungetc_r+0xba>
 2003c22:	6b23      	ldr	r3, [r4, #48]	; 0x30
 2003c24:	062d      	lsls	r5, r5, #24
 2003c26:	0e2f      	lsrs	r7, r5, #24
 2003c28:	2b00      	cmp	r3, #0
 2003c2a:	d020      	beq.n	2003c6e <_ungetc_r+0x7a>
 2003c2c:	6862      	ldr	r2, [r4, #4]
 2003c2e:	6b63      	ldr	r3, [r4, #52]	; 0x34
 2003c30:	429a      	cmp	r2, r3
 2003c32:	da44      	bge.n	2003cbe <_ungetc_r+0xca>
 2003c34:	6823      	ldr	r3, [r4, #0]
 2003c36:	3b01      	subs	r3, #1
 2003c38:	6023      	str	r3, [r4, #0]
 2003c3a:	701f      	strb	r7, [r3, #0]
 2003c3c:	6863      	ldr	r3, [r4, #4]
 2003c3e:	3301      	adds	r3, #1
 2003c40:	6063      	str	r3, [r4, #4]
 2003c42:	1c3d      	adds	r5, r7, #0
 2003c44:	1c28      	adds	r0, r5, #0
 2003c46:	bcf8      	pop	{r3, r4, r5, r6, r7}
 2003c48:	bc02      	pop	{r1}
 2003c4a:	4708      	bx	r1
 2003c4c:	4313      	orrs	r3, r2
 2003c4e:	6e61      	ldr	r1, [r4, #100]	; 0x64
 2003c50:	4a28      	ldr	r2, [pc, #160]	; (2003cf4 <_ungetc_r+0x100>)
 2003c52:	400a      	ands	r2, r1
 2003c54:	81a3      	strh	r3, [r4, #12]
 2003c56:	6662      	str	r2, [r4, #100]	; 0x64
 2003c58:	0419      	lsls	r1, r3, #16
 2003c5a:	e7dc      	b.n	2003c16 <_ungetc_r+0x22>
 2003c5c:	f001 fab0 	bl	20051c0 <__sinit>
 2003c60:	89a3      	ldrh	r3, [r4, #12]
 2003c62:	2280      	movs	r2, #128	; 0x80
 2003c64:	0192      	lsls	r2, r2, #6
 2003c66:	0419      	lsls	r1, r3, #16
 2003c68:	4213      	tst	r3, r2
 2003c6a:	d1d4      	bne.n	2003c16 <_ungetc_r+0x22>
 2003c6c:	e7ee      	b.n	2003c4c <_ungetc_r+0x58>
 2003c6e:	6922      	ldr	r2, [r4, #16]
 2003c70:	2a00      	cmp	r2, #0
 2003c72:	d02d      	beq.n	2003cd0 <_ungetc_r+0xdc>
 2003c74:	6823      	ldr	r3, [r4, #0]
 2003c76:	429a      	cmp	r2, r3
 2003c78:	d203      	bcs.n	2003c82 <_ungetc_r+0x8e>
 2003c7a:	1e5a      	subs	r2, r3, #1
 2003c7c:	7815      	ldrb	r5, [r2, #0]
 2003c7e:	42bd      	cmp	r5, r7
 2003c80:	d010      	beq.n	2003ca4 <_ungetc_r+0xb0>
 2003c82:	63a3      	str	r3, [r4, #56]	; 0x38
 2003c84:	1c23      	adds	r3, r4, #0
 2003c86:	3340      	adds	r3, #64	; 0x40
 2003c88:	6323      	str	r3, [r4, #48]	; 0x30
 2003c8a:	2303      	movs	r3, #3
 2003c8c:	6363      	str	r3, [r4, #52]	; 0x34
 2003c8e:	2342      	movs	r3, #66	; 0x42
 2003c90:	54e7      	strb	r7, [r4, r3]
 2003c92:	1c23      	adds	r3, r4, #0
 2003c94:	6862      	ldr	r2, [r4, #4]
 2003c96:	3342      	adds	r3, #66	; 0x42
 2003c98:	6023      	str	r3, [r4, #0]
 2003c9a:	2301      	movs	r3, #1
 2003c9c:	63e2      	str	r2, [r4, #60]	; 0x3c
 2003c9e:	6063      	str	r3, [r4, #4]
 2003ca0:	1c3d      	adds	r5, r7, #0
 2003ca2:	e7cf      	b.n	2003c44 <_ungetc_r+0x50>
 2003ca4:	6863      	ldr	r3, [r4, #4]
 2003ca6:	3301      	adds	r3, #1
 2003ca8:	6022      	str	r2, [r4, #0]
 2003caa:	6063      	str	r3, [r4, #4]
 2003cac:	e7ca      	b.n	2003c44 <_ungetc_r+0x50>
 2003cae:	06d9      	lsls	r1, r3, #27
 2003cb0:	d50b      	bpl.n	2003cca <_ungetc_r+0xd6>
 2003cb2:	0719      	lsls	r1, r3, #28
 2003cb4:	d40e      	bmi.n	2003cd4 <_ungetc_r+0xe0>
 2003cb6:	2204      	movs	r2, #4
 2003cb8:	4313      	orrs	r3, r2
 2003cba:	81a3      	strh	r3, [r4, #12]
 2003cbc:	e7b1      	b.n	2003c22 <_ungetc_r+0x2e>
 2003cbe:	1c30      	adds	r0, r6, #0
 2003cc0:	1c21      	adds	r1, r4, #0
 2003cc2:	f7ff ff59 	bl	2003b78 <__submore>
 2003cc6:	2800      	cmp	r0, #0
 2003cc8:	d0b4      	beq.n	2003c34 <_ungetc_r+0x40>
 2003cca:	2501      	movs	r5, #1
 2003ccc:	426d      	negs	r5, r5
 2003cce:	e7b9      	b.n	2003c44 <_ungetc_r+0x50>
 2003cd0:	6823      	ldr	r3, [r4, #0]
 2003cd2:	e7d6      	b.n	2003c82 <_ungetc_r+0x8e>
 2003cd4:	1c30      	adds	r0, r6, #0
 2003cd6:	1c21      	adds	r1, r4, #0
 2003cd8:	f001 f94e 	bl	2004f78 <_fflush_r>
 2003cdc:	2800      	cmp	r0, #0
 2003cde:	d1f4      	bne.n	2003cca <_ungetc_r+0xd6>
 2003ce0:	89a2      	ldrh	r2, [r4, #12]
 2003ce2:	4b05      	ldr	r3, [pc, #20]	; (2003cf8 <_ungetc_r+0x104>)
 2003ce4:	4013      	ands	r3, r2
 2003ce6:	81a3      	strh	r3, [r4, #12]
 2003ce8:	60a0      	str	r0, [r4, #8]
 2003cea:	61a0      	str	r0, [r4, #24]
 2003cec:	e7e3      	b.n	2003cb6 <_ungetc_r+0xc2>
 2003cee:	46c0      	nop			; (mov r8, r8)
 2003cf0:	0000ffdf 	.word	0x0000ffdf
 2003cf4:	ffffdfff 	.word	0xffffdfff
 2003cf8:	0000fff7 	.word	0x0000fff7

02003cfc <ungetc>:
 2003cfc:	b510      	push	{r4, lr}
 2003cfe:	1c0a      	adds	r2, r1, #0
 2003d00:	4904      	ldr	r1, [pc, #16]	; (2003d14 <ungetc+0x18>)
 2003d02:	1c03      	adds	r3, r0, #0
 2003d04:	6808      	ldr	r0, [r1, #0]
 2003d06:	1c19      	adds	r1, r3, #0
 2003d08:	f7ff ff74 	bl	2003bf4 <_ungetc_r>
 2003d0c:	bc10      	pop	{r4}
 2003d0e:	bc02      	pop	{r1}
 2003d10:	4708      	bx	r1
 2003d12:	46c0      	nop			; (mov r8, r8)
 2003d14:	0200e940 	.word	0x0200e940

02003d18 <__sprint_r>:
 2003d18:	b5f0      	push	{r4, r5, r6, r7, lr}
 2003d1a:	4657      	mov	r7, sl
 2003d1c:	464e      	mov	r6, r9
 2003d1e:	4645      	mov	r5, r8
 2003d20:	b4e0      	push	{r5, r6, r7}
 2003d22:	6893      	ldr	r3, [r2, #8]
 2003d24:	1c07      	adds	r7, r0, #0
 2003d26:	1c0d      	adds	r5, r1, #0
 2003d28:	4692      	mov	sl, r2
 2003d2a:	2b00      	cmp	r3, #0
 2003d2c:	d031      	beq.n	2003d92 <__sprint_r+0x7a>
 2003d2e:	6e4a      	ldr	r2, [r1, #100]	; 0x64
 2003d30:	0491      	lsls	r1, r2, #18
 2003d32:	d531      	bpl.n	2003d98 <__sprint_r+0x80>
 2003d34:	4652      	mov	r2, sl
 2003d36:	6812      	ldr	r2, [r2, #0]
 2003d38:	4691      	mov	r9, r2
 2003d3a:	464a      	mov	r2, r9
 2003d3c:	4649      	mov	r1, r9
 2003d3e:	6856      	ldr	r6, [r2, #4]
 2003d40:	6809      	ldr	r1, [r1, #0]
 2003d42:	08b6      	lsrs	r6, r6, #2
 2003d44:	4688      	mov	r8, r1
 2003d46:	2e00      	cmp	r6, #0
 2003d48:	dd1a      	ble.n	2003d80 <__sprint_r+0x68>
 2003d4a:	2400      	movs	r4, #0
 2003d4c:	e002      	b.n	2003d54 <__sprint_r+0x3c>
 2003d4e:	3401      	adds	r4, #1
 2003d50:	42a6      	cmp	r6, r4
 2003d52:	dd13      	ble.n	2003d7c <__sprint_r+0x64>
 2003d54:	00a3      	lsls	r3, r4, #2
 2003d56:	4642      	mov	r2, r8
 2003d58:	58d1      	ldr	r1, [r2, r3]
 2003d5a:	1c38      	adds	r0, r7, #0
 2003d5c:	1c2a      	adds	r2, r5, #0
 2003d5e:	f001 fabf 	bl	20052e0 <_fputwc_r>
 2003d62:	1c43      	adds	r3, r0, #1
 2003d64:	d1f3      	bne.n	2003d4e <__sprint_r+0x36>
 2003d66:	2300      	movs	r3, #0
 2003d68:	4652      	mov	r2, sl
 2003d6a:	6093      	str	r3, [r2, #8]
 2003d6c:	6053      	str	r3, [r2, #4]
 2003d6e:	bc1c      	pop	{r2, r3, r4}
 2003d70:	4690      	mov	r8, r2
 2003d72:	4699      	mov	r9, r3
 2003d74:	46a2      	mov	sl, r4
 2003d76:	bcf0      	pop	{r4, r5, r6, r7}
 2003d78:	bc02      	pop	{r1}
 2003d7a:	4708      	bx	r1
 2003d7c:	4651      	mov	r1, sl
 2003d7e:	688b      	ldr	r3, [r1, #8]
 2003d80:	00b6      	lsls	r6, r6, #2
 2003d82:	1b9b      	subs	r3, r3, r6
 2003d84:	4652      	mov	r2, sl
 2003d86:	6093      	str	r3, [r2, #8]
 2003d88:	2b00      	cmp	r3, #0
 2003d8a:	d00a      	beq.n	2003da2 <__sprint_r+0x8a>
 2003d8c:	2108      	movs	r1, #8
 2003d8e:	4489      	add	r9, r1
 2003d90:	e7d3      	b.n	2003d3a <__sprint_r+0x22>
 2003d92:	6053      	str	r3, [r2, #4]
 2003d94:	2000      	movs	r0, #0
 2003d96:	e7ea      	b.n	2003d6e <__sprint_r+0x56>
 2003d98:	1c29      	adds	r1, r5, #0
 2003d9a:	4652      	mov	r2, sl
 2003d9c:	f001 fc4e 	bl	200563c <__sfvwrite_r>
 2003da0:	e7e1      	b.n	2003d66 <__sprint_r+0x4e>
 2003da2:	2000      	movs	r0, #0
 2003da4:	e7df      	b.n	2003d66 <__sprint_r+0x4e>
 2003da6:	46c0      	nop			; (mov r8, r8)

02003da8 <_vfiprintf_r>:
 2003da8:	b5f0      	push	{r4, r5, r6, r7, lr}
 2003daa:	465f      	mov	r7, fp
 2003dac:	4656      	mov	r6, sl
 2003dae:	464d      	mov	r5, r9
 2003db0:	4644      	mov	r4, r8
 2003db2:	b4f0      	push	{r4, r5, r6, r7}
 2003db4:	4ce1      	ldr	r4, [pc, #900]	; (200413c <_vfiprintf_r+0x394>)
 2003db6:	4683      	mov	fp, r0
 2003db8:	48e1      	ldr	r0, [pc, #900]	; (2004140 <_vfiprintf_r+0x398>)
 2003dba:	44a5      	add	sp, r4
 2003dbc:	9103      	str	r1, [sp, #12]
 2003dbe:	1c15      	adds	r5, r2, #0
 2003dc0:	4468      	add	r0, sp
 2003dc2:	2100      	movs	r1, #0
 2003dc4:	2208      	movs	r2, #8
 2003dc6:	9302      	str	r3, [sp, #8]
 2003dc8:	f7fe ffc0 	bl	2002d4c <memset>
 2003dcc:	4658      	mov	r0, fp
 2003dce:	2800      	cmp	r0, #0
 2003dd0:	d004      	beq.n	2003ddc <_vfiprintf_r+0x34>
 2003dd2:	6b83      	ldr	r3, [r0, #56]	; 0x38
 2003dd4:	2b00      	cmp	r3, #0
 2003dd6:	d101      	bne.n	2003ddc <_vfiprintf_r+0x34>
 2003dd8:	f000 fc70 	bl	20046bc <_vfiprintf_r+0x914>
 2003ddc:	9a03      	ldr	r2, [sp, #12]
 2003dde:	8991      	ldrh	r1, [r2, #12]
 2003de0:	2280      	movs	r2, #128	; 0x80
 2003de2:	0192      	lsls	r2, r2, #6
 2003de4:	1c0b      	adds	r3, r1, #0
 2003de6:	4211      	tst	r1, r2
 2003de8:	d108      	bne.n	2003dfc <_vfiprintf_r+0x54>
 2003dea:	9b03      	ldr	r3, [sp, #12]
 2003dec:	4311      	orrs	r1, r2
 2003dee:	8199      	strh	r1, [r3, #12]
 2003df0:	6e5a      	ldr	r2, [r3, #100]	; 0x64
 2003df2:	4bd4      	ldr	r3, [pc, #848]	; (2004144 <_vfiprintf_r+0x39c>)
 2003df4:	9f03      	ldr	r7, [sp, #12]
 2003df6:	4013      	ands	r3, r2
 2003df8:	667b      	str	r3, [r7, #100]	; 0x64
 2003dfa:	1c0b      	adds	r3, r1, #0
 2003dfc:	0718      	lsls	r0, r3, #28
 2003dfe:	d401      	bmi.n	2003e04 <_vfiprintf_r+0x5c>
 2003e00:	f000 fde2 	bl	20049c8 <_vfiprintf_r+0xc20>
 2003e04:	9f03      	ldr	r7, [sp, #12]
 2003e06:	693a      	ldr	r2, [r7, #16]
 2003e08:	2a00      	cmp	r2, #0
 2003e0a:	d101      	bne.n	2003e10 <_vfiprintf_r+0x68>
 2003e0c:	f000 fddc 	bl	20049c8 <_vfiprintf_r+0xc20>
 2003e10:	221a      	movs	r2, #26
 2003e12:	4013      	ands	r3, r2
 2003e14:	2b0a      	cmp	r3, #10
 2003e16:	d101      	bne.n	2003e1c <_vfiprintf_r+0x74>
 2003e18:	f000 fc14 	bl	2004644 <_vfiprintf_r+0x89c>
 2003e1c:	24a2      	movs	r4, #162	; 0xa2
 2003e1e:	2095      	movs	r0, #149	; 0x95
 2003e20:	00e4      	lsls	r4, r4, #3
 2003e22:	00c0      	lsls	r0, r0, #3
 2003e24:	2300      	movs	r3, #0
 2003e26:	446c      	add	r4, sp
 2003e28:	4468      	add	r0, sp
 2003e2a:	49c7      	ldr	r1, [pc, #796]	; (2004148 <_vfiprintf_r+0x3a0>)
 2003e2c:	4ac7      	ldr	r2, [pc, #796]	; (200414c <_vfiprintf_r+0x3a4>)
 2003e2e:	6020      	str	r0, [r4, #0]
 2003e30:	60a3      	str	r3, [r4, #8]
 2003e32:	6063      	str	r3, [r4, #4]
 2003e34:	930f      	str	r3, [sp, #60]	; 0x3c
 2003e36:	9309      	str	r3, [sp, #36]	; 0x24
 2003e38:	9504      	str	r5, [sp, #16]
 2003e3a:	468a      	mov	sl, r1
 2003e3c:	1c05      	adds	r5, r0, #0
 2003e3e:	4691      	mov	r9, r2
 2003e40:	9f04      	ldr	r7, [sp, #16]
 2003e42:	46a8      	mov	r8, r5
 2003e44:	e006      	b.n	2003e54 <_vfiprintf_r+0xac>
 2003e46:	21a7      	movs	r1, #167	; 0xa7
 2003e48:	00c9      	lsls	r1, r1, #3
 2003e4a:	4469      	add	r1, sp
 2003e4c:	680b      	ldr	r3, [r1, #0]
 2003e4e:	2b25      	cmp	r3, #37	; 0x25
 2003e50:	d014      	beq.n	2003e7c <_vfiprintf_r+0xd4>
 2003e52:	183f      	adds	r7, r7, r0
 2003e54:	4652      	mov	r2, sl
 2003e56:	464b      	mov	r3, r9
 2003e58:	6816      	ldr	r6, [r2, #0]
 2003e5a:	681d      	ldr	r5, [r3, #0]
 2003e5c:	f001 ff06 	bl	2005c6c <__locale_charset>
 2003e60:	9000      	str	r0, [sp, #0]
 2003e62:	48b7      	ldr	r0, [pc, #732]	; (2004140 <_vfiprintf_r+0x398>)
 2003e64:	21a7      	movs	r1, #167	; 0xa7
 2003e66:	4468      	add	r0, sp
 2003e68:	00c9      	lsls	r1, r1, #3
 2003e6a:	9001      	str	r0, [sp, #4]
 2003e6c:	4469      	add	r1, sp
 2003e6e:	4658      	mov	r0, fp
 2003e70:	1c3a      	adds	r2, r7, #0
 2003e72:	1c2b      	adds	r3, r5, #0
 2003e74:	f000 fe2a 	bl	2004acc <vfiprintf+0x20>
 2003e78:	2800      	cmp	r0, #0
 2003e7a:	dce4      	bgt.n	2003e46 <_vfiprintf_r+0x9e>
 2003e7c:	9904      	ldr	r1, [sp, #16]
 2003e7e:	1a79      	subs	r1, r7, r1
 2003e80:	4645      	mov	r5, r8
 2003e82:	1c06      	adds	r6, r0, #0
 2003e84:	4688      	mov	r8, r1
 2003e86:	2900      	cmp	r1, #0
 2003e88:	d010      	beq.n	2003eac <_vfiprintf_r+0x104>
 2003e8a:	6069      	str	r1, [r5, #4]
 2003e8c:	68a3      	ldr	r3, [r4, #8]
 2003e8e:	4443      	add	r3, r8
 2003e90:	60a3      	str	r3, [r4, #8]
 2003e92:	6863      	ldr	r3, [r4, #4]
 2003e94:	9a04      	ldr	r2, [sp, #16]
 2003e96:	3301      	adds	r3, #1
 2003e98:	602a      	str	r2, [r5, #0]
 2003e9a:	6063      	str	r3, [r4, #4]
 2003e9c:	2b07      	cmp	r3, #7
 2003e9e:	dd00      	ble.n	2003ea2 <_vfiprintf_r+0xfa>
 2003ea0:	e393      	b.n	20045ca <_vfiprintf_r+0x822>
 2003ea2:	3508      	adds	r5, #8
 2003ea4:	9b09      	ldr	r3, [sp, #36]	; 0x24
 2003ea6:	1c18      	adds	r0, r3, #0
 2003ea8:	4440      	add	r0, r8
 2003eaa:	9009      	str	r0, [sp, #36]	; 0x24
 2003eac:	2e00      	cmp	r6, #0
 2003eae:	dc01      	bgt.n	2003eb4 <_vfiprintf_r+0x10c>
 2003eb0:	f000 fcb0 	bl	2004814 <_vfiprintf_r+0xa6c>
 2003eb4:	49a6      	ldr	r1, [pc, #664]	; (2004150 <_vfiprintf_r+0x3a8>)
 2003eb6:	3701      	adds	r7, #1
 2003eb8:	9b02      	ldr	r3, [sp, #8]
 2003eba:	9704      	str	r7, [sp, #16]
 2003ebc:	2200      	movs	r2, #0
 2003ebe:	4469      	add	r1, sp
 2003ec0:	2701      	movs	r7, #1
 2003ec2:	2000      	movs	r0, #0
 2003ec4:	700a      	strb	r2, [r1, #0]
 2003ec6:	427f      	negs	r7, r7
 2003ec8:	2180      	movs	r1, #128	; 0x80
 2003eca:	9305      	str	r3, [sp, #20]
 2003ecc:	9a04      	ldr	r2, [sp, #16]
 2003ece:	900a      	str	r0, [sp, #40]	; 0x28
 2003ed0:	9002      	str	r0, [sp, #8]
 2003ed2:	2640      	movs	r6, #64	; 0x40
 2003ed4:	2010      	movs	r0, #16
 2003ed6:	468c      	mov	ip, r1
 2003ed8:	46b8      	mov	r8, r7
 2003eda:	7813      	ldrb	r3, [r2, #0]
 2003edc:	3201      	adds	r2, #1
 2003ede:	1c19      	adds	r1, r3, #0
 2003ee0:	3920      	subs	r1, #32
 2003ee2:	2958      	cmp	r1, #88	; 0x58
 2003ee4:	d914      	bls.n	2003f10 <_vfiprintf_r+0x168>
 2003ee6:	9204      	str	r2, [sp, #16]
 2003ee8:	2b00      	cmp	r3, #0
 2003eea:	d101      	bne.n	2003ef0 <_vfiprintf_r+0x148>
 2003eec:	f000 fc92 	bl	2004814 <_vfiprintf_r+0xa6c>
 2003ef0:	229d      	movs	r2, #157	; 0x9d
 2003ef2:	4f97      	ldr	r7, [pc, #604]	; (2004150 <_vfiprintf_r+0x3a8>)
 2003ef4:	00d2      	lsls	r2, r2, #3
 2003ef6:	446a      	add	r2, sp
 2003ef8:	2101      	movs	r1, #1
 2003efa:	2000      	movs	r0, #0
 2003efc:	446f      	add	r7, sp
 2003efe:	7013      	strb	r3, [r2, #0]
 2003f00:	7038      	strb	r0, [r7, #0]
 2003f02:	9107      	str	r1, [sp, #28]
 2003f04:	9106      	str	r1, [sp, #24]
 2003f06:	920b      	str	r2, [sp, #44]	; 0x2c
 2003f08:	2200      	movs	r2, #0
 2003f0a:	9208      	str	r2, [sp, #32]
 2003f0c:	920e      	str	r2, [sp, #56]	; 0x38
 2003f0e:	e1d5      	b.n	20042bc <_vfiprintf_r+0x514>
 2003f10:	4f90      	ldr	r7, [pc, #576]	; (2004154 <_vfiprintf_r+0x3ac>)
 2003f12:	0089      	lsls	r1, r1, #2
 2003f14:	5879      	ldr	r1, [r7, r1]
 2003f16:	468f      	mov	pc, r1
 2003f18:	9204      	str	r2, [sp, #16]
 2003f1a:	498f      	ldr	r1, [pc, #572]	; (2004158 <_vfiprintf_r+0x3b0>)
 2003f1c:	9a02      	ldr	r2, [sp, #8]
 2003f1e:	4647      	mov	r7, r8
 2003f20:	910f      	str	r1, [sp, #60]	; 0x3c
 2003f22:	06d2      	lsls	r2, r2, #27
 2003f24:	d400      	bmi.n	2003f28 <_vfiprintf_r+0x180>
 2003f26:	e0ea      	b.n	20040fe <_vfiprintf_r+0x356>
 2003f28:	9805      	ldr	r0, [sp, #20]
 2003f2a:	9905      	ldr	r1, [sp, #20]
 2003f2c:	3004      	adds	r0, #4
 2003f2e:	9008      	str	r0, [sp, #32]
 2003f30:	680e      	ldr	r6, [r1, #0]
 2003f32:	1c32      	adds	r2, r6, #0
 2003f34:	1e51      	subs	r1, r2, #1
 2003f36:	418a      	sbcs	r2, r1
 2003f38:	2a00      	cmp	r2, #0
 2003f3a:	d002      	beq.n	2003f42 <_vfiprintf_r+0x19a>
 2003f3c:	9902      	ldr	r1, [sp, #8]
 2003f3e:	07c9      	lsls	r1, r1, #31
 2003f40:	d461      	bmi.n	2004006 <_vfiprintf_r+0x25e>
 2003f42:	2302      	movs	r3, #2
 2003f44:	4882      	ldr	r0, [pc, #520]	; (2004150 <_vfiprintf_r+0x3a8>)
 2003f46:	2100      	movs	r1, #0
 2003f48:	4468      	add	r0, sp
 2003f4a:	7001      	strb	r1, [r0, #0]
 2003f4c:	2f00      	cmp	r7, #0
 2003f4e:	db03      	blt.n	2003f58 <_vfiprintf_r+0x1b0>
 2003f50:	9802      	ldr	r0, [sp, #8]
 2003f52:	2180      	movs	r1, #128	; 0x80
 2003f54:	4388      	bics	r0, r1
 2003f56:	9002      	str	r0, [sp, #8]
 2003f58:	2f00      	cmp	r7, #0
 2003f5a:	d102      	bne.n	2003f62 <_vfiprintf_r+0x1ba>
 2003f5c:	2a00      	cmp	r2, #0
 2003f5e:	d100      	bne.n	2003f62 <_vfiprintf_r+0x1ba>
 2003f60:	e18c      	b.n	200427c <_vfiprintf_r+0x4d4>
 2003f62:	2b01      	cmp	r3, #1
 2003f64:	d100      	bne.n	2003f68 <_vfiprintf_r+0x1c0>
 2003f66:	e3bd      	b.n	20046e4 <_vfiprintf_r+0x93c>
 2003f68:	2b02      	cmp	r3, #2
 2003f6a:	d100      	bne.n	2003f6e <_vfiprintf_r+0x1c6>
 2003f6c:	e3aa      	b.n	20046c4 <_vfiprintf_r+0x91c>
 2003f6e:	940b      	str	r4, [sp, #44]	; 0x2c
 2003f70:	2207      	movs	r2, #7
 2003f72:	1c21      	adds	r1, r4, #0
 2003f74:	1c33      	adds	r3, r6, #0
 2003f76:	4013      	ands	r3, r2
 2003f78:	3901      	subs	r1, #1
 2003f7a:	3330      	adds	r3, #48	; 0x30
 2003f7c:	08f6      	lsrs	r6, r6, #3
 2003f7e:	700b      	strb	r3, [r1, #0]
 2003f80:	2e00      	cmp	r6, #0
 2003f82:	d1f7      	bne.n	2003f74 <_vfiprintf_r+0x1cc>
 2003f84:	910b      	str	r1, [sp, #44]	; 0x2c
 2003f86:	9902      	ldr	r1, [sp, #8]
 2003f88:	07c9      	lsls	r1, r1, #31
 2003f8a:	d401      	bmi.n	2003f90 <_vfiprintf_r+0x1e8>
 2003f8c:	f000 fbfa 	bl	2004784 <_vfiprintf_r+0x9dc>
 2003f90:	2b30      	cmp	r3, #48	; 0x30
 2003f92:	d101      	bne.n	2003f98 <_vfiprintf_r+0x1f0>
 2003f94:	f000 fd11 	bl	20049ba <_vfiprintf_r+0xc12>
 2003f98:	980b      	ldr	r0, [sp, #44]	; 0x2c
 2003f9a:	3801      	subs	r0, #1
 2003f9c:	2330      	movs	r3, #48	; 0x30
 2003f9e:	1a21      	subs	r1, r4, r0
 2003fa0:	900b      	str	r0, [sp, #44]	; 0x2c
 2003fa2:	7003      	strb	r3, [r0, #0]
 2003fa4:	9106      	str	r1, [sp, #24]
 2003fa6:	e177      	b.n	2004298 <_vfiprintf_r+0x4f0>
 2003fa8:	9204      	str	r2, [sp, #16]
 2003faa:	4a69      	ldr	r2, [pc, #420]	; (2004150 <_vfiprintf_r+0x3a8>)
 2003fac:	2000      	movs	r0, #0
 2003fae:	446a      	add	r2, sp
 2003fb0:	9b05      	ldr	r3, [sp, #20]
 2003fb2:	7010      	strb	r0, [r2, #0]
 2003fb4:	1c19      	adds	r1, r3, #0
 2003fb6:	681b      	ldr	r3, [r3, #0]
 2003fb8:	3104      	adds	r1, #4
 2003fba:	4647      	mov	r7, r8
 2003fbc:	9105      	str	r1, [sp, #20]
 2003fbe:	930b      	str	r3, [sp, #44]	; 0x2c
 2003fc0:	2b00      	cmp	r3, #0
 2003fc2:	d101      	bne.n	2003fc8 <_vfiprintf_r+0x220>
 2003fc4:	f000 fcc6 	bl	2004954 <_vfiprintf_r+0xbac>
 2003fc8:	9902      	ldr	r1, [sp, #8]
 2003fca:	06c9      	lsls	r1, r1, #27
 2003fcc:	d501      	bpl.n	2003fd2 <_vfiprintf_r+0x22a>
 2003fce:	f000 fc47 	bl	2004860 <_vfiprintf_r+0xab8>
 2003fd2:	2f00      	cmp	r7, #0
 2003fd4:	da01      	bge.n	2003fda <_vfiprintf_r+0x232>
 2003fd6:	f000 fd0b 	bl	20049f0 <_vfiprintf_r+0xc48>
 2003fda:	980b      	ldr	r0, [sp, #44]	; 0x2c
 2003fdc:	2100      	movs	r1, #0
 2003fde:	4642      	mov	r2, r8
 2003fe0:	f003 f82e 	bl	2007040 <memchr>
 2003fe4:	2800      	cmp	r0, #0
 2003fe6:	d101      	bne.n	2003fec <_vfiprintf_r+0x244>
 2003fe8:	f000 fcc7 	bl	200497a <_vfiprintf_r+0xbd2>
 2003fec:	990b      	ldr	r1, [sp, #44]	; 0x2c
 2003fee:	1a40      	subs	r0, r0, r1
 2003ff0:	9006      	str	r0, [sp, #24]
 2003ff2:	4540      	cmp	r0, r8
 2003ff4:	dc01      	bgt.n	2003ffa <_vfiprintf_r+0x252>
 2003ff6:	f000 fcf3 	bl	20049e0 <_vfiprintf_r+0xc38>
 2003ffa:	2200      	movs	r2, #0
 2003ffc:	9707      	str	r7, [sp, #28]
 2003ffe:	9706      	str	r7, [sp, #24]
 2004000:	9208      	str	r2, [sp, #32]
 2004002:	920e      	str	r2, [sp, #56]	; 0x38
 2004004:	e152      	b.n	20042ac <_vfiprintf_r+0x504>
 2004006:	4a55      	ldr	r2, [pc, #340]	; (200415c <_vfiprintf_r+0x3b4>)
 2004008:	2130      	movs	r1, #48	; 0x30
 200400a:	446a      	add	r2, sp
 200400c:	7053      	strb	r3, [r2, #1]
 200400e:	7011      	strb	r1, [r2, #0]
 2004010:	9a02      	ldr	r2, [sp, #8]
 2004012:	2302      	movs	r3, #2
 2004014:	431a      	orrs	r2, r3
 2004016:	9202      	str	r2, [sp, #8]
 2004018:	2201      	movs	r2, #1
 200401a:	e793      	b.n	2003f44 <_vfiprintf_r+0x19c>
 200401c:	9f02      	ldr	r7, [sp, #8]
 200401e:	4307      	orrs	r7, r0
 2004020:	9702      	str	r7, [sp, #8]
 2004022:	9b05      	ldr	r3, [sp, #20]
 2004024:	9305      	str	r3, [sp, #20]
 2004026:	e758      	b.n	2003eda <_vfiprintf_r+0x132>
 2004028:	9802      	ldr	r0, [sp, #8]
 200402a:	2302      	movs	r3, #2
 200402c:	4318      	orrs	r0, r3
 200402e:	9204      	str	r2, [sp, #16]
 2004030:	9905      	ldr	r1, [sp, #20]
 2004032:	9a05      	ldr	r2, [sp, #20]
 2004034:	4b49      	ldr	r3, [pc, #292]	; (200415c <_vfiprintf_r+0x3b4>)
 2004036:	6816      	ldr	r6, [r2, #0]
 2004038:	446b      	add	r3, sp
 200403a:	3104      	adds	r1, #4
 200403c:	2230      	movs	r2, #48	; 0x30
 200403e:	701a      	strb	r2, [r3, #0]
 2004040:	9108      	str	r1, [sp, #32]
 2004042:	2278      	movs	r2, #120	; 0x78
 2004044:	4944      	ldr	r1, [pc, #272]	; (2004158 <_vfiprintf_r+0x3b0>)
 2004046:	705a      	strb	r2, [r3, #1]
 2004048:	1c32      	adds	r2, r6, #0
 200404a:	1e53      	subs	r3, r2, #1
 200404c:	419a      	sbcs	r2, r3
 200404e:	4647      	mov	r7, r8
 2004050:	9002      	str	r0, [sp, #8]
 2004052:	910f      	str	r1, [sp, #60]	; 0x3c
 2004054:	2302      	movs	r3, #2
 2004056:	e775      	b.n	2003f44 <_vfiprintf_r+0x19c>
 2004058:	9b02      	ldr	r3, [sp, #8]
 200405a:	9204      	str	r2, [sp, #16]
 200405c:	06db      	lsls	r3, r3, #27
 200405e:	d500      	bpl.n	2004062 <_vfiprintf_r+0x2ba>
 2004060:	e394      	b.n	200478c <_vfiprintf_r+0x9e4>
 2004062:	9a02      	ldr	r2, [sp, #8]
 2004064:	0652      	lsls	r2, r2, #25
 2004066:	d401      	bmi.n	200406c <_vfiprintf_r+0x2c4>
 2004068:	f000 fc61 	bl	200492e <_vfiprintf_r+0xb86>
 200406c:	9b05      	ldr	r3, [sp, #20]
 200406e:	9f05      	ldr	r7, [sp, #20]
 2004070:	3304      	adds	r3, #4
 2004072:	4668      	mov	r0, sp
 2004074:	2124      	movs	r1, #36	; 0x24
 2004076:	9302      	str	r3, [sp, #8]
 2004078:	5a08      	ldrh	r0, [r1, r0]
 200407a:	683b      	ldr	r3, [r7, #0]
 200407c:	8018      	strh	r0, [r3, #0]
 200407e:	e6df      	b.n	2003e40 <_vfiprintf_r+0x98>
 2004080:	9b02      	ldr	r3, [sp, #8]
 2004082:	4303      	orrs	r3, r0
 2004084:	9302      	str	r3, [sp, #8]
 2004086:	9b05      	ldr	r3, [sp, #20]
 2004088:	9305      	str	r3, [sp, #20]
 200408a:	e726      	b.n	2003eda <_vfiprintf_r+0x132>
 200408c:	9902      	ldr	r1, [sp, #8]
 200408e:	9b05      	ldr	r3, [sp, #20]
 2004090:	4331      	orrs	r1, r6
 2004092:	9102      	str	r1, [sp, #8]
 2004094:	9305      	str	r3, [sp, #20]
 2004096:	e720      	b.n	2003eda <_vfiprintf_r+0x132>
 2004098:	9802      	ldr	r0, [sp, #8]
 200409a:	9204      	str	r2, [sp, #16]
 200409c:	9b05      	ldr	r3, [sp, #20]
 200409e:	06c0      	lsls	r0, r0, #27
 20040a0:	d400      	bmi.n	20040a4 <_vfiprintf_r+0x2fc>
 20040a2:	e3ac      	b.n	20047fe <_vfiprintf_r+0xa56>
 20040a4:	4f2e      	ldr	r7, [pc, #184]	; (2004160 <_vfiprintf_r+0x3b8>)
 20040a6:	446f      	add	r7, sp
 20040a8:	2100      	movs	r1, #0
 20040aa:	2208      	movs	r2, #8
 20040ac:	1c38      	adds	r0, r7, #0
 20040ae:	269d      	movs	r6, #157	; 0x9d
 20040b0:	f7fe fe4c 	bl	2002d4c <memset>
 20040b4:	00f6      	lsls	r6, r6, #3
 20040b6:	9905      	ldr	r1, [sp, #20]
 20040b8:	446e      	add	r6, sp
 20040ba:	680a      	ldr	r2, [r1, #0]
 20040bc:	4658      	mov	r0, fp
 20040be:	1c31      	adds	r1, r6, #0
 20040c0:	1c3b      	adds	r3, r7, #0
 20040c2:	f000 fd43 	bl	2004b4c <_wcrtomb_r>
 20040c6:	9006      	str	r0, [sp, #24]
 20040c8:	3001      	adds	r0, #1
 20040ca:	d101      	bne.n	20040d0 <_vfiprintf_r+0x328>
 20040cc:	f000 fcc4 	bl	2004a58 <_vfiprintf_r+0xcb0>
 20040d0:	9a05      	ldr	r2, [sp, #20]
 20040d2:	3204      	adds	r2, #4
 20040d4:	9205      	str	r2, [sp, #20]
 20040d6:	4a1e      	ldr	r2, [pc, #120]	; (2004150 <_vfiprintf_r+0x3a8>)
 20040d8:	9f06      	ldr	r7, [sp, #24]
 20040da:	2300      	movs	r3, #0
 20040dc:	446a      	add	r2, sp
 20040de:	7013      	strb	r3, [r2, #0]
 20040e0:	9707      	str	r7, [sp, #28]
 20040e2:	2f00      	cmp	r7, #0
 20040e4:	da01      	bge.n	20040ea <_vfiprintf_r+0x342>
 20040e6:	f000 fc30 	bl	200494a <_vfiprintf_r+0xba2>
 20040ea:	960b      	str	r6, [sp, #44]	; 0x2c
 20040ec:	e70c      	b.n	2003f08 <_vfiprintf_r+0x160>
 20040ee:	9204      	str	r2, [sp, #16]
 20040f0:	481c      	ldr	r0, [pc, #112]	; (2004164 <_vfiprintf_r+0x3bc>)
 20040f2:	9a02      	ldr	r2, [sp, #8]
 20040f4:	4647      	mov	r7, r8
 20040f6:	900f      	str	r0, [sp, #60]	; 0x3c
 20040f8:	06d2      	lsls	r2, r2, #27
 20040fa:	d500      	bpl.n	20040fe <_vfiprintf_r+0x356>
 20040fc:	e714      	b.n	2003f28 <_vfiprintf_r+0x180>
 20040fe:	9a02      	ldr	r2, [sp, #8]
 2004100:	0652      	lsls	r2, r2, #25
 2004102:	d400      	bmi.n	2004106 <_vfiprintf_r+0x35e>
 2004104:	e34b      	b.n	200479e <_vfiprintf_r+0x9f6>
 2004106:	9805      	ldr	r0, [sp, #20]
 2004108:	9905      	ldr	r1, [sp, #20]
 200410a:	3004      	adds	r0, #4
 200410c:	9008      	str	r0, [sp, #32]
 200410e:	880e      	ldrh	r6, [r1, #0]
 2004110:	e70f      	b.n	2003f32 <_vfiprintf_r+0x18a>
 2004112:	9802      	ldr	r0, [sp, #8]
 2004114:	2310      	movs	r3, #16
 2004116:	4318      	orrs	r0, r3
 2004118:	9204      	str	r2, [sp, #16]
 200411a:	9002      	str	r0, [sp, #8]
 200411c:	4647      	mov	r7, r8
 200411e:	9902      	ldr	r1, [sp, #8]
 2004120:	06c9      	lsls	r1, r1, #27
 2004122:	d400      	bmi.n	2004126 <_vfiprintf_r+0x37e>
 2004124:	e312      	b.n	200474c <_vfiprintf_r+0x9a4>
 2004126:	9b05      	ldr	r3, [sp, #20]
 2004128:	9a05      	ldr	r2, [sp, #20]
 200412a:	681e      	ldr	r6, [r3, #0]
 200412c:	3204      	adds	r2, #4
 200412e:	9208      	str	r2, [sp, #32]
 2004130:	1c32      	adds	r2, r6, #0
 2004132:	1e53      	subs	r3, r2, #1
 2004134:	419a      	sbcs	r2, r3
 2004136:	2301      	movs	r3, #1
 2004138:	e704      	b.n	2003f44 <_vfiprintf_r+0x19c>
 200413a:	46c0      	nop			; (mov r8, r8)
 200413c:	fffffabc 	.word	0xfffffabc
 2004140:	0000052c 	.word	0x0000052c
 2004144:	ffffdfff 	.word	0xffffdfff
 2004148:	0200f2cc 	.word	0x0200f2cc
 200414c:	0200edd8 	.word	0x0200edd8
 2004150:	0000053f 	.word	0x0000053f
 2004154:	0200a950 	.word	0x0200a950
 2004158:	0200e43c 	.word	0x0200e43c
 200415c:	0000053c 	.word	0x0000053c
 2004160:	00000524 	.word	0x00000524
 2004164:	0200e428 	.word	0x0200e428
 2004168:	9802      	ldr	r0, [sp, #8]
 200416a:	2310      	movs	r3, #16
 200416c:	4318      	orrs	r0, r3
 200416e:	9204      	str	r2, [sp, #16]
 2004170:	9002      	str	r0, [sp, #8]
 2004172:	4647      	mov	r7, r8
 2004174:	9902      	ldr	r1, [sp, #8]
 2004176:	06c9      	lsls	r1, r1, #27
 2004178:	d400      	bmi.n	200417c <_vfiprintf_r+0x3d4>
 200417a:	e2f5      	b.n	2004768 <_vfiprintf_r+0x9c0>
 200417c:	9b05      	ldr	r3, [sp, #20]
 200417e:	9a05      	ldr	r2, [sp, #20]
 2004180:	681e      	ldr	r6, [r3, #0]
 2004182:	3204      	adds	r2, #4
 2004184:	9208      	str	r2, [sp, #32]
 2004186:	1c32      	adds	r2, r6, #0
 2004188:	1e53      	subs	r3, r2, #1
 200418a:	419a      	sbcs	r2, r3
 200418c:	2300      	movs	r3, #0
 200418e:	e6d9      	b.n	2003f44 <_vfiprintf_r+0x19c>
 2004190:	9902      	ldr	r1, [sp, #8]
 2004192:	2310      	movs	r3, #16
 2004194:	4319      	orrs	r1, r3
 2004196:	9204      	str	r2, [sp, #16]
 2004198:	9102      	str	r1, [sp, #8]
 200419a:	4647      	mov	r7, r8
 200419c:	9a02      	ldr	r2, [sp, #8]
 200419e:	06d2      	lsls	r2, r2, #27
 20041a0:	d400      	bmi.n	20041a4 <_vfiprintf_r+0x3fc>
 20041a2:	e2c0      	b.n	2004726 <_vfiprintf_r+0x97e>
 20041a4:	9b05      	ldr	r3, [sp, #20]
 20041a6:	9805      	ldr	r0, [sp, #20]
 20041a8:	3304      	adds	r3, #4
 20041aa:	9308      	str	r3, [sp, #32]
 20041ac:	6806      	ldr	r6, [r0, #0]
 20041ae:	2e00      	cmp	r6, #0
 20041b0:	da00      	bge.n	20041b4 <_vfiprintf_r+0x40c>
 20041b2:	e2c5      	b.n	2004740 <_vfiprintf_r+0x998>
 20041b4:	1c32      	adds	r2, r6, #0
 20041b6:	1e53      	subs	r3, r2, #1
 20041b8:	419a      	sbcs	r2, r3
 20041ba:	2301      	movs	r3, #1
 20041bc:	e6c6      	b.n	2003f4c <_vfiprintf_r+0x1a4>
 20041be:	1c19      	adds	r1, r3, #0
 20041c0:	2700      	movs	r7, #0
 20041c2:	3930      	subs	r1, #48	; 0x30
 20041c4:	00bb      	lsls	r3, r7, #2
 20041c6:	19df      	adds	r7, r3, r7
 20041c8:	7813      	ldrb	r3, [r2, #0]
 20041ca:	007f      	lsls	r7, r7, #1
 20041cc:	19cf      	adds	r7, r1, r7
 20041ce:	1c19      	adds	r1, r3, #0
 20041d0:	3930      	subs	r1, #48	; 0x30
 20041d2:	3201      	adds	r2, #1
 20041d4:	2909      	cmp	r1, #9
 20041d6:	d9f5      	bls.n	20041c4 <_vfiprintf_r+0x41c>
 20041d8:	970a      	str	r7, [sp, #40]	; 0x28
 20041da:	e680      	b.n	2003ede <_vfiprintf_r+0x136>
 20041dc:	49cc      	ldr	r1, [pc, #816]	; (2004510 <_vfiprintf_r+0x768>)
 20041de:	232b      	movs	r3, #43	; 0x2b
 20041e0:	4469      	add	r1, sp
 20041e2:	700b      	strb	r3, [r1, #0]
 20041e4:	9b05      	ldr	r3, [sp, #20]
 20041e6:	9305      	str	r3, [sp, #20]
 20041e8:	e677      	b.n	2003eda <_vfiprintf_r+0x132>
 20041ea:	9905      	ldr	r1, [sp, #20]
 20041ec:	9b05      	ldr	r3, [sp, #20]
 20041ee:	6809      	ldr	r1, [r1, #0]
 20041f0:	3304      	adds	r3, #4
 20041f2:	910a      	str	r1, [sp, #40]	; 0x28
 20041f4:	2900      	cmp	r1, #0
 20041f6:	db00      	blt.n	20041fa <_vfiprintf_r+0x452>
 20041f8:	e714      	b.n	2004024 <_vfiprintf_r+0x27c>
 20041fa:	4249      	negs	r1, r1
 20041fc:	910a      	str	r1, [sp, #40]	; 0x28
 20041fe:	e030      	b.n	2004262 <_vfiprintf_r+0x4ba>
 2004200:	9f02      	ldr	r7, [sp, #8]
 2004202:	2301      	movs	r3, #1
 2004204:	431f      	orrs	r7, r3
 2004206:	9b05      	ldr	r3, [sp, #20]
 2004208:	9702      	str	r7, [sp, #8]
 200420a:	9305      	str	r3, [sp, #20]
 200420c:	e665      	b.n	2003eda <_vfiprintf_r+0x132>
 200420e:	49c0      	ldr	r1, [pc, #768]	; (2004510 <_vfiprintf_r+0x768>)
 2004210:	4469      	add	r1, sp
 2004212:	780b      	ldrb	r3, [r1, #0]
 2004214:	2b00      	cmp	r3, #0
 2004216:	d000      	beq.n	200421a <_vfiprintf_r+0x472>
 2004218:	e2c8      	b.n	20047ac <_vfiprintf_r+0xa04>
 200421a:	2320      	movs	r3, #32
 200421c:	700b      	strb	r3, [r1, #0]
 200421e:	9b05      	ldr	r3, [sp, #20]
 2004220:	9305      	str	r3, [sp, #20]
 2004222:	e65a      	b.n	2003eda <_vfiprintf_r+0x132>
 2004224:	7813      	ldrb	r3, [r2, #0]
 2004226:	3201      	adds	r2, #1
 2004228:	2b2a      	cmp	r3, #42	; 0x2a
 200422a:	d100      	bne.n	200422e <_vfiprintf_r+0x486>
 200422c:	e3ab      	b.n	2004986 <_vfiprintf_r+0xbde>
 200422e:	1c19      	adds	r1, r3, #0
 2004230:	3930      	subs	r1, #48	; 0x30
 2004232:	2909      	cmp	r1, #9
 2004234:	d901      	bls.n	200423a <_vfiprintf_r+0x492>
 2004236:	f000 fbf6 	bl	2004a26 <_vfiprintf_r+0xc7e>
 200423a:	2700      	movs	r7, #0
 200423c:	00bb      	lsls	r3, r7, #2
 200423e:	19df      	adds	r7, r3, r7
 2004240:	7813      	ldrb	r3, [r2, #0]
 2004242:	007f      	lsls	r7, r7, #1
 2004244:	187f      	adds	r7, r7, r1
 2004246:	1c19      	adds	r1, r3, #0
 2004248:	3930      	subs	r1, #48	; 0x30
 200424a:	3201      	adds	r2, #1
 200424c:	2909      	cmp	r1, #9
 200424e:	d9f5      	bls.n	200423c <_vfiprintf_r+0x494>
 2004250:	2f00      	cmp	r7, #0
 2004252:	46b8      	mov	r8, r7
 2004254:	db00      	blt.n	2004258 <_vfiprintf_r+0x4b0>
 2004256:	e642      	b.n	2003ede <_vfiprintf_r+0x136>
 2004258:	2701      	movs	r7, #1
 200425a:	4279      	negs	r1, r7
 200425c:	4688      	mov	r8, r1
 200425e:	e63e      	b.n	2003ede <_vfiprintf_r+0x136>
 2004260:	9b05      	ldr	r3, [sp, #20]
 2004262:	9f02      	ldr	r7, [sp, #8]
 2004264:	2104      	movs	r1, #4
 2004266:	430f      	orrs	r7, r1
 2004268:	9702      	str	r7, [sp, #8]
 200426a:	9305      	str	r3, [sp, #20]
 200426c:	e635      	b.n	2003eda <_vfiprintf_r+0x132>
 200426e:	9b02      	ldr	r3, [sp, #8]
 2004270:	4667      	mov	r7, ip
 2004272:	433b      	orrs	r3, r7
 2004274:	9302      	str	r3, [sp, #8]
 2004276:	9b05      	ldr	r3, [sp, #20]
 2004278:	9305      	str	r3, [sp, #20]
 200427a:	e62e      	b.n	2003eda <_vfiprintf_r+0x132>
 200427c:	2b00      	cmp	r3, #0
 200427e:	d000      	beq.n	2004282 <_vfiprintf_r+0x4da>
 2004280:	e141      	b.n	2004506 <_vfiprintf_r+0x75e>
 2004282:	9902      	ldr	r1, [sp, #8]
 2004284:	07c9      	lsls	r1, r1, #31
 2004286:	d400      	bmi.n	200428a <_vfiprintf_r+0x4e2>
 2004288:	e13d      	b.n	2004506 <_vfiprintf_r+0x75e>
 200428a:	4aa2      	ldr	r2, [pc, #648]	; (2004514 <_vfiprintf_r+0x76c>)
 200428c:	2330      	movs	r3, #48	; 0x30
 200428e:	446a      	add	r2, sp
 2004290:	920b      	str	r2, [sp, #44]	; 0x2c
 2004292:	7013      	strb	r3, [r2, #0]
 2004294:	2301      	movs	r3, #1
 2004296:	9306      	str	r3, [sp, #24]
 2004298:	9906      	ldr	r1, [sp, #24]
 200429a:	9107      	str	r1, [sp, #28]
 200429c:	42b9      	cmp	r1, r7
 200429e:	da00      	bge.n	20042a2 <_vfiprintf_r+0x4fa>
 20042a0:	9707      	str	r7, [sp, #28]
 20042a2:	9a08      	ldr	r2, [sp, #32]
 20042a4:	2300      	movs	r3, #0
 20042a6:	9205      	str	r2, [sp, #20]
 20042a8:	970e      	str	r7, [sp, #56]	; 0x38
 20042aa:	9308      	str	r3, [sp, #32]
 20042ac:	4f98      	ldr	r7, [pc, #608]	; (2004510 <_vfiprintf_r+0x768>)
 20042ae:	446f      	add	r7, sp
 20042b0:	783b      	ldrb	r3, [r7, #0]
 20042b2:	2b00      	cmp	r3, #0
 20042b4:	d002      	beq.n	20042bc <_vfiprintf_r+0x514>
 20042b6:	9807      	ldr	r0, [sp, #28]
 20042b8:	3001      	adds	r0, #1
 20042ba:	9007      	str	r0, [sp, #28]
 20042bc:	9902      	ldr	r1, [sp, #8]
 20042be:	2302      	movs	r3, #2
 20042c0:	4019      	ands	r1, r3
 20042c2:	910d      	str	r1, [sp, #52]	; 0x34
 20042c4:	d002      	beq.n	20042cc <_vfiprintf_r+0x524>
 20042c6:	9a07      	ldr	r2, [sp, #28]
 20042c8:	3202      	adds	r2, #2
 20042ca:	9207      	str	r2, [sp, #28]
 20042cc:	9f02      	ldr	r7, [sp, #8]
 20042ce:	2384      	movs	r3, #132	; 0x84
 20042d0:	401f      	ands	r7, r3
 20042d2:	970c      	str	r7, [sp, #48]	; 0x30
 20042d4:	d139      	bne.n	200434a <_vfiprintf_r+0x5a2>
 20042d6:	980a      	ldr	r0, [sp, #40]	; 0x28
 20042d8:	9907      	ldr	r1, [sp, #28]
 20042da:	1a46      	subs	r6, r0, r1
 20042dc:	2e00      	cmp	r6, #0
 20042de:	dd34      	ble.n	200434a <_vfiprintf_r+0x5a2>
 20042e0:	2e10      	cmp	r6, #16
 20042e2:	dc00      	bgt.n	20042e6 <_vfiprintf_r+0x53e>
 20042e4:	e35e      	b.n	20049a4 <_vfiprintf_r+0xbfc>
 20042e6:	4f8c      	ldr	r7, [pc, #560]	; (2004518 <_vfiprintf_r+0x770>)
 20042e8:	46b8      	mov	r8, r7
 20042ea:	1c2a      	adds	r2, r5, #0
 20042ec:	68a3      	ldr	r3, [r4, #8]
 20042ee:	2710      	movs	r7, #16
 20042f0:	4645      	mov	r5, r8
 20042f2:	e003      	b.n	20042fc <_vfiprintf_r+0x554>
 20042f4:	3e10      	subs	r6, #16
 20042f6:	3208      	adds	r2, #8
 20042f8:	2e10      	cmp	r6, #16
 20042fa:	dd17      	ble.n	200432c <_vfiprintf_r+0x584>
 20042fc:	6057      	str	r7, [r2, #4]
 20042fe:	6861      	ldr	r1, [r4, #4]
 2004300:	3310      	adds	r3, #16
 2004302:	3101      	adds	r1, #1
 2004304:	6015      	str	r5, [r2, #0]
 2004306:	60a3      	str	r3, [r4, #8]
 2004308:	6061      	str	r1, [r4, #4]
 200430a:	2907      	cmp	r1, #7
 200430c:	ddf2      	ble.n	20042f4 <_vfiprintf_r+0x54c>
 200430e:	4658      	mov	r0, fp
 2004310:	9903      	ldr	r1, [sp, #12]
 2004312:	1c22      	adds	r2, r4, #0
 2004314:	f7ff fd00 	bl	2003d18 <__sprint_r>
 2004318:	2800      	cmp	r0, #0
 200431a:	d000      	beq.n	200431e <_vfiprintf_r+0x576>
 200431c:	e0d9      	b.n	20044d2 <_vfiprintf_r+0x72a>
 200431e:	2295      	movs	r2, #149	; 0x95
 2004320:	00d2      	lsls	r2, r2, #3
 2004322:	3e10      	subs	r6, #16
 2004324:	68a3      	ldr	r3, [r4, #8]
 2004326:	446a      	add	r2, sp
 2004328:	2e10      	cmp	r6, #16
 200432a:	dce7      	bgt.n	20042fc <_vfiprintf_r+0x554>
 200432c:	46a8      	mov	r8, r5
 200432e:	1c15      	adds	r5, r2, #0
 2004330:	606e      	str	r6, [r5, #4]
 2004332:	6862      	ldr	r2, [r4, #4]
 2004334:	4640      	mov	r0, r8
 2004336:	199b      	adds	r3, r3, r6
 2004338:	3201      	adds	r2, #1
 200433a:	6028      	str	r0, [r5, #0]
 200433c:	60a3      	str	r3, [r4, #8]
 200433e:	6062      	str	r2, [r4, #4]
 2004340:	2a07      	cmp	r2, #7
 2004342:	dd00      	ble.n	2004346 <_vfiprintf_r+0x59e>
 2004344:	e26d      	b.n	2004822 <_vfiprintf_r+0xa7a>
 2004346:	3508      	adds	r5, #8
 2004348:	e000      	b.n	200434c <_vfiprintf_r+0x5a4>
 200434a:	68a3      	ldr	r3, [r4, #8]
 200434c:	4970      	ldr	r1, [pc, #448]	; (2004510 <_vfiprintf_r+0x768>)
 200434e:	4469      	add	r1, sp
 2004350:	780a      	ldrb	r2, [r1, #0]
 2004352:	2a00      	cmp	r2, #0
 2004354:	d00b      	beq.n	200436e <_vfiprintf_r+0x5c6>
 2004356:	2201      	movs	r2, #1
 2004358:	606a      	str	r2, [r5, #4]
 200435a:	6862      	ldr	r2, [r4, #4]
 200435c:	3301      	adds	r3, #1
 200435e:	3201      	adds	r2, #1
 2004360:	6029      	str	r1, [r5, #0]
 2004362:	60a3      	str	r3, [r4, #8]
 2004364:	6062      	str	r2, [r4, #4]
 2004366:	2a07      	cmp	r2, #7
 2004368:	dd00      	ble.n	200436c <_vfiprintf_r+0x5c4>
 200436a:	e151      	b.n	2004610 <_vfiprintf_r+0x868>
 200436c:	3508      	adds	r5, #8
 200436e:	9a0d      	ldr	r2, [sp, #52]	; 0x34
 2004370:	2a00      	cmp	r2, #0
 2004372:	d00d      	beq.n	2004390 <_vfiprintf_r+0x5e8>
 2004374:	4a69      	ldr	r2, [pc, #420]	; (200451c <_vfiprintf_r+0x774>)
 2004376:	446a      	add	r2, sp
 2004378:	602a      	str	r2, [r5, #0]
 200437a:	2202      	movs	r2, #2
 200437c:	606a      	str	r2, [r5, #4]
 200437e:	6862      	ldr	r2, [r4, #4]
 2004380:	3302      	adds	r3, #2
 2004382:	3201      	adds	r2, #1
 2004384:	60a3      	str	r3, [r4, #8]
 2004386:	6062      	str	r2, [r4, #4]
 2004388:	2a07      	cmp	r2, #7
 200438a:	dd00      	ble.n	200438e <_vfiprintf_r+0x5e6>
 200438c:	e14d      	b.n	200462a <_vfiprintf_r+0x882>
 200438e:	3508      	adds	r5, #8
 2004390:	9f0c      	ldr	r7, [sp, #48]	; 0x30
 2004392:	2f80      	cmp	r7, #128	; 0x80
 2004394:	d100      	bne.n	2004398 <_vfiprintf_r+0x5f0>
 2004396:	e0c5      	b.n	2004524 <_vfiprintf_r+0x77c>
 2004398:	9a0e      	ldr	r2, [sp, #56]	; 0x38
 200439a:	9f06      	ldr	r7, [sp, #24]
 200439c:	1bd6      	subs	r6, r2, r7
 200439e:	2e00      	cmp	r6, #0
 20043a0:	dd35      	ble.n	200440e <_vfiprintf_r+0x666>
 20043a2:	2e10      	cmp	r6, #16
 20043a4:	dc00      	bgt.n	20043a8 <_vfiprintf_r+0x600>
 20043a6:	e2bf      	b.n	2004928 <_vfiprintf_r+0xb80>
 20043a8:	495b      	ldr	r1, [pc, #364]	; (2004518 <_vfiprintf_r+0x770>)
 20043aa:	1c0f      	adds	r7, r1, #0
 20043ac:	1c2a      	adds	r2, r5, #0
 20043ae:	4688      	mov	r8, r1
 20043b0:	3710      	adds	r7, #16
 20043b2:	465d      	mov	r5, fp
 20043b4:	e004      	b.n	20043c0 <_vfiprintf_r+0x618>
 20043b6:	3e10      	subs	r6, #16
 20043b8:	3208      	adds	r2, #8
 20043ba:	2e10      	cmp	r6, #16
 20043bc:	dd18      	ble.n	20043f0 <_vfiprintf_r+0x648>
 20043be:	68a3      	ldr	r3, [r4, #8]
 20043c0:	2010      	movs	r0, #16
 20043c2:	6050      	str	r0, [r2, #4]
 20043c4:	6861      	ldr	r1, [r4, #4]
 20043c6:	3310      	adds	r3, #16
 20043c8:	3101      	adds	r1, #1
 20043ca:	6017      	str	r7, [r2, #0]
 20043cc:	60a3      	str	r3, [r4, #8]
 20043ce:	6061      	str	r1, [r4, #4]
 20043d0:	2907      	cmp	r1, #7
 20043d2:	ddf0      	ble.n	20043b6 <_vfiprintf_r+0x60e>
 20043d4:	1c28      	adds	r0, r5, #0
 20043d6:	9903      	ldr	r1, [sp, #12]
 20043d8:	1c22      	adds	r2, r4, #0
 20043da:	f7ff fc9d 	bl	2003d18 <__sprint_r>
 20043de:	2800      	cmp	r0, #0
 20043e0:	d176      	bne.n	20044d0 <_vfiprintf_r+0x728>
 20043e2:	2295      	movs	r2, #149	; 0x95
 20043e4:	00d2      	lsls	r2, r2, #3
 20043e6:	3e10      	subs	r6, #16
 20043e8:	68a3      	ldr	r3, [r4, #8]
 20043ea:	446a      	add	r2, sp
 20043ec:	2e10      	cmp	r6, #16
 20043ee:	dce6      	bgt.n	20043be <_vfiprintf_r+0x616>
 20043f0:	46ab      	mov	fp, r5
 20043f2:	1c15      	adds	r5, r2, #0
 20043f4:	606e      	str	r6, [r5, #4]
 20043f6:	4642      	mov	r2, r8
 20043f8:	3210      	adds	r2, #16
 20043fa:	602a      	str	r2, [r5, #0]
 20043fc:	6862      	ldr	r2, [r4, #4]
 20043fe:	199b      	adds	r3, r3, r6
 2004400:	3201      	adds	r2, #1
 2004402:	60a3      	str	r3, [r4, #8]
 2004404:	6062      	str	r2, [r4, #4]
 2004406:	2a07      	cmp	r2, #7
 2004408:	dd00      	ble.n	200440c <_vfiprintf_r+0x664>
 200440a:	e0f4      	b.n	20045f6 <_vfiprintf_r+0x84e>
 200440c:	3508      	adds	r5, #8
 200440e:	9a06      	ldr	r2, [sp, #24]
 2004410:	606a      	str	r2, [r5, #4]
 2004412:	189b      	adds	r3, r3, r2
 2004414:	6862      	ldr	r2, [r4, #4]
 2004416:	990b      	ldr	r1, [sp, #44]	; 0x2c
 2004418:	3201      	adds	r2, #1
 200441a:	6029      	str	r1, [r5, #0]
 200441c:	60a3      	str	r3, [r4, #8]
 200441e:	6062      	str	r2, [r4, #4]
 2004420:	2a07      	cmp	r2, #7
 2004422:	dd00      	ble.n	2004426 <_vfiprintf_r+0x67e>
 2004424:	e0bb      	b.n	200459e <_vfiprintf_r+0x7f6>
 2004426:	3508      	adds	r5, #8
 2004428:	9f02      	ldr	r7, [sp, #8]
 200442a:	077f      	lsls	r7, r7, #29
 200442c:	d536      	bpl.n	200449c <_vfiprintf_r+0x6f4>
 200442e:	980a      	ldr	r0, [sp, #40]	; 0x28
 2004430:	9907      	ldr	r1, [sp, #28]
 2004432:	1a47      	subs	r7, r0, r1
 2004434:	2f00      	cmp	r7, #0
 2004436:	dc00      	bgt.n	200443a <_vfiprintf_r+0x692>
 2004438:	e0db      	b.n	20045f2 <_vfiprintf_r+0x84a>
 200443a:	2f10      	cmp	r7, #16
 200443c:	dc00      	bgt.n	2004440 <_vfiprintf_r+0x698>
 200443e:	e2c0      	b.n	20049c2 <_vfiprintf_r+0xc1a>
 2004440:	4835      	ldr	r0, [pc, #212]	; (2004518 <_vfiprintf_r+0x770>)
 2004442:	1c2a      	adds	r2, r5, #0
 2004444:	2610      	movs	r6, #16
 2004446:	1c05      	adds	r5, r0, #0
 2004448:	e004      	b.n	2004454 <_vfiprintf_r+0x6ac>
 200444a:	3f10      	subs	r7, #16
 200444c:	3208      	adds	r2, #8
 200444e:	2f10      	cmp	r7, #16
 2004450:	dd17      	ble.n	2004482 <_vfiprintf_r+0x6da>
 2004452:	68a3      	ldr	r3, [r4, #8]
 2004454:	6056      	str	r6, [r2, #4]
 2004456:	6861      	ldr	r1, [r4, #4]
 2004458:	3310      	adds	r3, #16
 200445a:	3101      	adds	r1, #1
 200445c:	6015      	str	r5, [r2, #0]
 200445e:	60a3      	str	r3, [r4, #8]
 2004460:	6061      	str	r1, [r4, #4]
 2004462:	2907      	cmp	r1, #7
 2004464:	ddf1      	ble.n	200444a <_vfiprintf_r+0x6a2>
 2004466:	4658      	mov	r0, fp
 2004468:	9903      	ldr	r1, [sp, #12]
 200446a:	1c22      	adds	r2, r4, #0
 200446c:	f7ff fc54 	bl	2003d18 <__sprint_r>
 2004470:	2800      	cmp	r0, #0
 2004472:	d12e      	bne.n	20044d2 <_vfiprintf_r+0x72a>
 2004474:	2295      	movs	r2, #149	; 0x95
 2004476:	00d2      	lsls	r2, r2, #3
 2004478:	3f10      	subs	r7, #16
 200447a:	68a3      	ldr	r3, [r4, #8]
 200447c:	446a      	add	r2, sp
 200447e:	2f10      	cmp	r7, #16
 2004480:	dce7      	bgt.n	2004452 <_vfiprintf_r+0x6aa>
 2004482:	46a8      	mov	r8, r5
 2004484:	1c15      	adds	r5, r2, #0
 2004486:	606f      	str	r7, [r5, #4]
 2004488:	6862      	ldr	r2, [r4, #4]
 200448a:	4641      	mov	r1, r8
 200448c:	19db      	adds	r3, r3, r7
 200448e:	3201      	adds	r2, #1
 2004490:	6029      	str	r1, [r5, #0]
 2004492:	60a3      	str	r3, [r4, #8]
 2004494:	6062      	str	r2, [r4, #4]
 2004496:	2a07      	cmp	r2, #7
 2004498:	dd00      	ble.n	200449c <_vfiprintf_r+0x6f4>
 200449a:	e0a2      	b.n	20045e2 <_vfiprintf_r+0x83a>
 200449c:	9a07      	ldr	r2, [sp, #28]
 200449e:	9f0a      	ldr	r7, [sp, #40]	; 0x28
 20044a0:	42ba      	cmp	r2, r7
 20044a2:	da00      	bge.n	20044a6 <_vfiprintf_r+0x6fe>
 20044a4:	1c3a      	adds	r2, r7, #0
 20044a6:	9809      	ldr	r0, [sp, #36]	; 0x24
 20044a8:	1880      	adds	r0, r0, r2
 20044aa:	9009      	str	r0, [sp, #36]	; 0x24
 20044ac:	2b00      	cmp	r3, #0
 20044ae:	d000      	beq.n	20044b2 <_vfiprintf_r+0x70a>
 20044b0:	e082      	b.n	20045b8 <_vfiprintf_r+0x810>
 20044b2:	9a08      	ldr	r2, [sp, #32]
 20044b4:	2100      	movs	r1, #0
 20044b6:	6061      	str	r1, [r4, #4]
 20044b8:	2a00      	cmp	r2, #0
 20044ba:	d003      	beq.n	20044c4 <_vfiprintf_r+0x71c>
 20044bc:	4658      	mov	r0, fp
 20044be:	1c11      	adds	r1, r2, #0
 20044c0:	f000 ffe6 	bl	2005490 <_free_r>
 20044c4:	9b05      	ldr	r3, [sp, #20]
 20044c6:	2595      	movs	r5, #149	; 0x95
 20044c8:	00ed      	lsls	r5, r5, #3
 20044ca:	9302      	str	r3, [sp, #8]
 20044cc:	446d      	add	r5, sp
 20044ce:	e4b7      	b.n	2003e40 <_vfiprintf_r+0x98>
 20044d0:	46ab      	mov	fp, r5
 20044d2:	9908      	ldr	r1, [sp, #32]
 20044d4:	2900      	cmp	r1, #0
 20044d6:	d100      	bne.n	20044da <_vfiprintf_r+0x732>
 20044d8:	e1b0      	b.n	200483c <_vfiprintf_r+0xa94>
 20044da:	4658      	mov	r0, fp
 20044dc:	9908      	ldr	r1, [sp, #32]
 20044de:	f000 ffd7 	bl	2005490 <_free_r>
 20044e2:	9f03      	ldr	r7, [sp, #12]
 20044e4:	89bb      	ldrh	r3, [r7, #12]
 20044e6:	0658      	lsls	r0, r3, #25
 20044e8:	d502      	bpl.n	20044f0 <_vfiprintf_r+0x748>
 20044ea:	2101      	movs	r1, #1
 20044ec:	4249      	negs	r1, r1
 20044ee:	9109      	str	r1, [sp, #36]	; 0x24
 20044f0:	4b0b      	ldr	r3, [pc, #44]	; (2004520 <_vfiprintf_r+0x778>)
 20044f2:	9809      	ldr	r0, [sp, #36]	; 0x24
 20044f4:	449d      	add	sp, r3
 20044f6:	bc3c      	pop	{r2, r3, r4, r5}
 20044f8:	4690      	mov	r8, r2
 20044fa:	4699      	mov	r9, r3
 20044fc:	46a2      	mov	sl, r4
 20044fe:	46ab      	mov	fp, r5
 2004500:	bcf0      	pop	{r4, r5, r6, r7}
 2004502:	bc02      	pop	{r1}
 2004504:	4708      	bx	r1
 2004506:	2000      	movs	r0, #0
 2004508:	940b      	str	r4, [sp, #44]	; 0x2c
 200450a:	9006      	str	r0, [sp, #24]
 200450c:	e6c4      	b.n	2004298 <_vfiprintf_r+0x4f0>
 200450e:	46c0      	nop			; (mov r8, r8)
 2004510:	0000053f 	.word	0x0000053f
 2004514:	0000050f 	.word	0x0000050f
 2004518:	0200aab4 	.word	0x0200aab4
 200451c:	0000053c 	.word	0x0000053c
 2004520:	00000544 	.word	0x00000544
 2004524:	980a      	ldr	r0, [sp, #40]	; 0x28
 2004526:	9907      	ldr	r1, [sp, #28]
 2004528:	1a47      	subs	r7, r0, r1
 200452a:	2f00      	cmp	r7, #0
 200452c:	dc00      	bgt.n	2004530 <_vfiprintf_r+0x788>
 200452e:	e188      	b.n	2004842 <_vfiprintf_r+0xa9a>
 2004530:	2f10      	cmp	r7, #16
 2004532:	dc00      	bgt.n	2004536 <_vfiprintf_r+0x78e>
 2004534:	e274      	b.n	2004a20 <_vfiprintf_r+0xc78>
 2004536:	48d4      	ldr	r0, [pc, #848]	; (2004888 <_vfiprintf_r+0xae0>)
 2004538:	1c06      	adds	r6, r0, #0
 200453a:	1c2a      	adds	r2, r5, #0
 200453c:	4680      	mov	r8, r0
 200453e:	3610      	adds	r6, #16
 2004540:	465d      	mov	r5, fp
 2004542:	e004      	b.n	200454e <_vfiprintf_r+0x7a6>
 2004544:	3f10      	subs	r7, #16
 2004546:	3208      	adds	r2, #8
 2004548:	2f10      	cmp	r7, #16
 200454a:	dd18      	ble.n	200457e <_vfiprintf_r+0x7d6>
 200454c:	68a3      	ldr	r3, [r4, #8]
 200454e:	2110      	movs	r1, #16
 2004550:	6051      	str	r1, [r2, #4]
 2004552:	6861      	ldr	r1, [r4, #4]
 2004554:	3310      	adds	r3, #16
 2004556:	3101      	adds	r1, #1
 2004558:	6016      	str	r6, [r2, #0]
 200455a:	60a3      	str	r3, [r4, #8]
 200455c:	6061      	str	r1, [r4, #4]
 200455e:	2907      	cmp	r1, #7
 2004560:	ddf0      	ble.n	2004544 <_vfiprintf_r+0x79c>
 2004562:	1c28      	adds	r0, r5, #0
 2004564:	9903      	ldr	r1, [sp, #12]
 2004566:	1c22      	adds	r2, r4, #0
 2004568:	f7ff fbd6 	bl	2003d18 <__sprint_r>
 200456c:	2800      	cmp	r0, #0
 200456e:	d1af      	bne.n	20044d0 <_vfiprintf_r+0x728>
 2004570:	2295      	movs	r2, #149	; 0x95
 2004572:	00d2      	lsls	r2, r2, #3
 2004574:	3f10      	subs	r7, #16
 2004576:	68a3      	ldr	r3, [r4, #8]
 2004578:	446a      	add	r2, sp
 200457a:	2f10      	cmp	r7, #16
 200457c:	dce6      	bgt.n	200454c <_vfiprintf_r+0x7a4>
 200457e:	46ab      	mov	fp, r5
 2004580:	1c15      	adds	r5, r2, #0
 2004582:	606f      	str	r7, [r5, #4]
 2004584:	4642      	mov	r2, r8
 2004586:	3210      	adds	r2, #16
 2004588:	602a      	str	r2, [r5, #0]
 200458a:	6862      	ldr	r2, [r4, #4]
 200458c:	19db      	adds	r3, r3, r7
 200458e:	3201      	adds	r2, #1
 2004590:	60a3      	str	r3, [r4, #8]
 2004592:	6062      	str	r2, [r4, #4]
 2004594:	2a07      	cmp	r2, #7
 2004596:	dd00      	ble.n	200459a <_vfiprintf_r+0x7f2>
 2004598:	e155      	b.n	2004846 <_vfiprintf_r+0xa9e>
 200459a:	3508      	adds	r5, #8
 200459c:	e6fc      	b.n	2004398 <_vfiprintf_r+0x5f0>
 200459e:	4658      	mov	r0, fp
 20045a0:	9903      	ldr	r1, [sp, #12]
 20045a2:	1c22      	adds	r2, r4, #0
 20045a4:	f7ff fbb8 	bl	2003d18 <__sprint_r>
 20045a8:	2800      	cmp	r0, #0
 20045aa:	d000      	beq.n	20045ae <_vfiprintf_r+0x806>
 20045ac:	e791      	b.n	20044d2 <_vfiprintf_r+0x72a>
 20045ae:	2595      	movs	r5, #149	; 0x95
 20045b0:	00ed      	lsls	r5, r5, #3
 20045b2:	68a3      	ldr	r3, [r4, #8]
 20045b4:	446d      	add	r5, sp
 20045b6:	e737      	b.n	2004428 <_vfiprintf_r+0x680>
 20045b8:	4658      	mov	r0, fp
 20045ba:	9903      	ldr	r1, [sp, #12]
 20045bc:	1c22      	adds	r2, r4, #0
 20045be:	f7ff fbab 	bl	2003d18 <__sprint_r>
 20045c2:	2800      	cmp	r0, #0
 20045c4:	d100      	bne.n	20045c8 <_vfiprintf_r+0x820>
 20045c6:	e774      	b.n	20044b2 <_vfiprintf_r+0x70a>
 20045c8:	e783      	b.n	20044d2 <_vfiprintf_r+0x72a>
 20045ca:	4658      	mov	r0, fp
 20045cc:	9903      	ldr	r1, [sp, #12]
 20045ce:	1c22      	adds	r2, r4, #0
 20045d0:	f7ff fba2 	bl	2003d18 <__sprint_r>
 20045d4:	2800      	cmp	r0, #0
 20045d6:	d000      	beq.n	20045da <_vfiprintf_r+0x832>
 20045d8:	e783      	b.n	20044e2 <_vfiprintf_r+0x73a>
 20045da:	2595      	movs	r5, #149	; 0x95
 20045dc:	00ed      	lsls	r5, r5, #3
 20045de:	446d      	add	r5, sp
 20045e0:	e460      	b.n	2003ea4 <_vfiprintf_r+0xfc>
 20045e2:	4658      	mov	r0, fp
 20045e4:	9903      	ldr	r1, [sp, #12]
 20045e6:	1c22      	adds	r2, r4, #0
 20045e8:	f7ff fb96 	bl	2003d18 <__sprint_r>
 20045ec:	2800      	cmp	r0, #0
 20045ee:	d000      	beq.n	20045f2 <_vfiprintf_r+0x84a>
 20045f0:	e76f      	b.n	20044d2 <_vfiprintf_r+0x72a>
 20045f2:	68a3      	ldr	r3, [r4, #8]
 20045f4:	e752      	b.n	200449c <_vfiprintf_r+0x6f4>
 20045f6:	4658      	mov	r0, fp
 20045f8:	9903      	ldr	r1, [sp, #12]
 20045fa:	1c22      	adds	r2, r4, #0
 20045fc:	f7ff fb8c 	bl	2003d18 <__sprint_r>
 2004600:	2800      	cmp	r0, #0
 2004602:	d000      	beq.n	2004606 <_vfiprintf_r+0x85e>
 2004604:	e765      	b.n	20044d2 <_vfiprintf_r+0x72a>
 2004606:	2595      	movs	r5, #149	; 0x95
 2004608:	00ed      	lsls	r5, r5, #3
 200460a:	68a3      	ldr	r3, [r4, #8]
 200460c:	446d      	add	r5, sp
 200460e:	e6fe      	b.n	200440e <_vfiprintf_r+0x666>
 2004610:	4658      	mov	r0, fp
 2004612:	9903      	ldr	r1, [sp, #12]
 2004614:	1c22      	adds	r2, r4, #0
 2004616:	f7ff fb7f 	bl	2003d18 <__sprint_r>
 200461a:	2800      	cmp	r0, #0
 200461c:	d000      	beq.n	2004620 <_vfiprintf_r+0x878>
 200461e:	e758      	b.n	20044d2 <_vfiprintf_r+0x72a>
 2004620:	2595      	movs	r5, #149	; 0x95
 2004622:	00ed      	lsls	r5, r5, #3
 2004624:	68a3      	ldr	r3, [r4, #8]
 2004626:	446d      	add	r5, sp
 2004628:	e6a1      	b.n	200436e <_vfiprintf_r+0x5c6>
 200462a:	4658      	mov	r0, fp
 200462c:	9903      	ldr	r1, [sp, #12]
 200462e:	1c22      	adds	r2, r4, #0
 2004630:	f7ff fb72 	bl	2003d18 <__sprint_r>
 2004634:	2800      	cmp	r0, #0
 2004636:	d000      	beq.n	200463a <_vfiprintf_r+0x892>
 2004638:	e74b      	b.n	20044d2 <_vfiprintf_r+0x72a>
 200463a:	2595      	movs	r5, #149	; 0x95
 200463c:	00ed      	lsls	r5, r5, #3
 200463e:	68a3      	ldr	r3, [r4, #8]
 2004640:	446d      	add	r5, sp
 2004642:	e6a5      	b.n	2004390 <_vfiprintf_r+0x5e8>
 2004644:	9a03      	ldr	r2, [sp, #12]
 2004646:	270e      	movs	r7, #14
 2004648:	5fd3      	ldrsh	r3, [r2, r7]
 200464a:	2b00      	cmp	r3, #0
 200464c:	da01      	bge.n	2004652 <_vfiprintf_r+0x8aa>
 200464e:	f7ff fbe5 	bl	2003e1c <_vfiprintf_r+0x74>
 2004652:	2302      	movs	r3, #2
 2004654:	2488      	movs	r4, #136	; 0x88
 2004656:	4399      	bics	r1, r3
 2004658:	00e4      	lsls	r4, r4, #3
 200465a:	6e53      	ldr	r3, [r2, #100]	; 0x64
 200465c:	446c      	add	r4, sp
 200465e:	81a1      	strh	r1, [r4, #12]
 2004660:	6663      	str	r3, [r4, #100]	; 0x64
 2004662:	89d3      	ldrh	r3, [r2, #14]
 2004664:	81e3      	strh	r3, [r4, #14]
 2004666:	69d3      	ldr	r3, [r2, #28]
 2004668:	61e3      	str	r3, [r4, #28]
 200466a:	6a53      	ldr	r3, [r2, #36]	; 0x24
 200466c:	6263      	str	r3, [r4, #36]	; 0x24
 200466e:	2488      	movs	r4, #136	; 0x88
 2004670:	00e4      	lsls	r4, r4, #3
 2004672:	446c      	add	r4, sp
 2004674:	ab10      	add	r3, sp, #64	; 0x40
 2004676:	6023      	str	r3, [r4, #0]
 2004678:	6123      	str	r3, [r4, #16]
 200467a:	2380      	movs	r3, #128	; 0x80
 200467c:	00db      	lsls	r3, r3, #3
 200467e:	60a3      	str	r3, [r4, #8]
 2004680:	6163      	str	r3, [r4, #20]
 2004682:	2300      	movs	r3, #0
 2004684:	61a3      	str	r3, [r4, #24]
 2004686:	4658      	mov	r0, fp
 2004688:	1c21      	adds	r1, r4, #0
 200468a:	1c2a      	adds	r2, r5, #0
 200468c:	9b02      	ldr	r3, [sp, #8]
 200468e:	f7ff fb8b 	bl	2003da8 <_vfiprintf_r>
 2004692:	9009      	str	r0, [sp, #36]	; 0x24
 2004694:	2800      	cmp	r0, #0
 2004696:	db06      	blt.n	20046a6 <_vfiprintf_r+0x8fe>
 2004698:	4658      	mov	r0, fp
 200469a:	1c21      	adds	r1, r4, #0
 200469c:	f000 fc6c 	bl	2004f78 <_fflush_r>
 20046a0:	2800      	cmp	r0, #0
 20046a2:	d000      	beq.n	20046a6 <_vfiprintf_r+0x8fe>
 20046a4:	e1e7      	b.n	2004a76 <_vfiprintf_r+0xcce>
 20046a6:	89a3      	ldrh	r3, [r4, #12]
 20046a8:	0659      	lsls	r1, r3, #25
 20046aa:	d400      	bmi.n	20046ae <_vfiprintf_r+0x906>
 20046ac:	e720      	b.n	20044f0 <_vfiprintf_r+0x748>
 20046ae:	9b03      	ldr	r3, [sp, #12]
 20046b0:	899a      	ldrh	r2, [r3, #12]
 20046b2:	9f03      	ldr	r7, [sp, #12]
 20046b4:	2340      	movs	r3, #64	; 0x40
 20046b6:	4313      	orrs	r3, r2
 20046b8:	81bb      	strh	r3, [r7, #12]
 20046ba:	e719      	b.n	20044f0 <_vfiprintf_r+0x748>
 20046bc:	f000 fd80 	bl	20051c0 <__sinit>
 20046c0:	f7ff fb8c 	bl	2003ddc <_vfiprintf_r+0x34>
 20046c4:	940b      	str	r4, [sp, #44]	; 0x2c
 20046c6:	980f      	ldr	r0, [sp, #60]	; 0x3c
 20046c8:	220f      	movs	r2, #15
 20046ca:	1c23      	adds	r3, r4, #0
 20046cc:	1c31      	adds	r1, r6, #0
 20046ce:	4011      	ands	r1, r2
 20046d0:	5c41      	ldrb	r1, [r0, r1]
 20046d2:	3b01      	subs	r3, #1
 20046d4:	0936      	lsrs	r6, r6, #4
 20046d6:	7019      	strb	r1, [r3, #0]
 20046d8:	2e00      	cmp	r6, #0
 20046da:	d1f7      	bne.n	20046cc <_vfiprintf_r+0x924>
 20046dc:	1ae0      	subs	r0, r4, r3
 20046de:	930b      	str	r3, [sp, #44]	; 0x2c
 20046e0:	9006      	str	r0, [sp, #24]
 20046e2:	e5d9      	b.n	2004298 <_vfiprintf_r+0x4f0>
 20046e4:	2e09      	cmp	r6, #9
 20046e6:	d800      	bhi.n	20046ea <_vfiprintf_r+0x942>
 20046e8:	e198      	b.n	2004a1c <_vfiprintf_r+0xc74>
 20046ea:	1c2b      	adds	r3, r5, #0
 20046ec:	46b8      	mov	r8, r7
 20046ee:	1c25      	adds	r5, r4, #0
 20046f0:	1c1f      	adds	r7, r3, #0
 20046f2:	1c30      	adds	r0, r6, #0
 20046f4:	210a      	movs	r1, #10
 20046f6:	f003 fe7d 	bl	20083f4 <__aeabi_uidivmod>
 20046fa:	3d01      	subs	r5, #1
 20046fc:	3130      	adds	r1, #48	; 0x30
 20046fe:	7029      	strb	r1, [r5, #0]
 2004700:	1c30      	adds	r0, r6, #0
 2004702:	210a      	movs	r1, #10
 2004704:	f003 fe38 	bl	2008378 <__aeabi_uidiv>
 2004708:	1c06      	adds	r6, r0, #0
 200470a:	2809      	cmp	r0, #9
 200470c:	d8f1      	bhi.n	20046f2 <_vfiprintf_r+0x94a>
 200470e:	1c3b      	adds	r3, r7, #0
 2004710:	4647      	mov	r7, r8
 2004712:	46a8      	mov	r8, r5
 2004714:	1c1d      	adds	r5, r3, #0
 2004716:	4642      	mov	r2, r8
 2004718:	3a01      	subs	r2, #1
 200471a:	3630      	adds	r6, #48	; 0x30
 200471c:	1aa3      	subs	r3, r4, r2
 200471e:	920b      	str	r2, [sp, #44]	; 0x2c
 2004720:	7016      	strb	r6, [r2, #0]
 2004722:	9306      	str	r3, [sp, #24]
 2004724:	e5b8      	b.n	2004298 <_vfiprintf_r+0x4f0>
 2004726:	9902      	ldr	r1, [sp, #8]
 2004728:	0649      	lsls	r1, r1, #25
 200472a:	d559      	bpl.n	20047e0 <_vfiprintf_r+0xa38>
 200472c:	9b05      	ldr	r3, [sp, #20]
 200472e:	681e      	ldr	r6, [r3, #0]
 2004730:	9a05      	ldr	r2, [sp, #20]
 2004732:	0436      	lsls	r6, r6, #16
 2004734:	3204      	adds	r2, #4
 2004736:	1436      	asrs	r6, r6, #16
 2004738:	9208      	str	r2, [sp, #32]
 200473a:	2e00      	cmp	r6, #0
 200473c:	db00      	blt.n	2004740 <_vfiprintf_r+0x998>
 200473e:	e539      	b.n	20041b4 <_vfiprintf_r+0x40c>
 2004740:	4a52      	ldr	r2, [pc, #328]	; (200488c <_vfiprintf_r+0xae4>)
 2004742:	232d      	movs	r3, #45	; 0x2d
 2004744:	446a      	add	r2, sp
 2004746:	4276      	negs	r6, r6
 2004748:	7013      	strb	r3, [r2, #0]
 200474a:	e533      	b.n	20041b4 <_vfiprintf_r+0x40c>
 200474c:	9802      	ldr	r0, [sp, #8]
 200474e:	0640      	lsls	r0, r0, #25
 2004750:	d53b      	bpl.n	20047ca <_vfiprintf_r+0xa22>
 2004752:	9a05      	ldr	r2, [sp, #20]
 2004754:	9905      	ldr	r1, [sp, #20]
 2004756:	8816      	ldrh	r6, [r2, #0]
 2004758:	3104      	adds	r1, #4
 200475a:	1c32      	adds	r2, r6, #0
 200475c:	1e53      	subs	r3, r2, #1
 200475e:	419a      	sbcs	r2, r3
 2004760:	9108      	str	r1, [sp, #32]
 2004762:	2301      	movs	r3, #1
 2004764:	f7ff fbee 	bl	2003f44 <_vfiprintf_r+0x19c>
 2004768:	9802      	ldr	r0, [sp, #8]
 200476a:	0640      	lsls	r0, r0, #25
 200476c:	d522      	bpl.n	20047b4 <_vfiprintf_r+0xa0c>
 200476e:	9a05      	ldr	r2, [sp, #20]
 2004770:	9905      	ldr	r1, [sp, #20]
 2004772:	8816      	ldrh	r6, [r2, #0]
 2004774:	3104      	adds	r1, #4
 2004776:	1c32      	adds	r2, r6, #0
 2004778:	1e53      	subs	r3, r2, #1
 200477a:	419a      	sbcs	r2, r3
 200477c:	9108      	str	r1, [sp, #32]
 200477e:	2300      	movs	r3, #0
 2004780:	f7ff fbe0 	bl	2003f44 <_vfiprintf_r+0x19c>
 2004784:	9a0b      	ldr	r2, [sp, #44]	; 0x2c
 2004786:	1aa2      	subs	r2, r4, r2
 2004788:	9206      	str	r2, [sp, #24]
 200478a:	e585      	b.n	2004298 <_vfiprintf_r+0x4f0>
 200478c:	9805      	ldr	r0, [sp, #20]
 200478e:	9f05      	ldr	r7, [sp, #20]
 2004790:	6803      	ldr	r3, [r0, #0]
 2004792:	9909      	ldr	r1, [sp, #36]	; 0x24
 2004794:	3704      	adds	r7, #4
 2004796:	9702      	str	r7, [sp, #8]
 2004798:	6019      	str	r1, [r3, #0]
 200479a:	f7ff fb51 	bl	2003e40 <_vfiprintf_r+0x98>
 200479e:	9a05      	ldr	r2, [sp, #20]
 20047a0:	9805      	ldr	r0, [sp, #20]
 20047a2:	3204      	adds	r2, #4
 20047a4:	9208      	str	r2, [sp, #32]
 20047a6:	6806      	ldr	r6, [r0, #0]
 20047a8:	f7ff fbc3 	bl	2003f32 <_vfiprintf_r+0x18a>
 20047ac:	9b05      	ldr	r3, [sp, #20]
 20047ae:	9305      	str	r3, [sp, #20]
 20047b0:	f7ff fb93 	bl	2003eda <_vfiprintf_r+0x132>
 20047b4:	9805      	ldr	r0, [sp, #20]
 20047b6:	9b05      	ldr	r3, [sp, #20]
 20047b8:	6806      	ldr	r6, [r0, #0]
 20047ba:	3304      	adds	r3, #4
 20047bc:	1c32      	adds	r2, r6, #0
 20047be:	9308      	str	r3, [sp, #32]
 20047c0:	1e53      	subs	r3, r2, #1
 20047c2:	419a      	sbcs	r2, r3
 20047c4:	2300      	movs	r3, #0
 20047c6:	f7ff fbbd 	bl	2003f44 <_vfiprintf_r+0x19c>
 20047ca:	9805      	ldr	r0, [sp, #20]
 20047cc:	9b05      	ldr	r3, [sp, #20]
 20047ce:	6806      	ldr	r6, [r0, #0]
 20047d0:	3304      	adds	r3, #4
 20047d2:	1c32      	adds	r2, r6, #0
 20047d4:	9308      	str	r3, [sp, #32]
 20047d6:	1e53      	subs	r3, r2, #1
 20047d8:	419a      	sbcs	r2, r3
 20047da:	2301      	movs	r3, #1
 20047dc:	f7ff fbb2 	bl	2003f44 <_vfiprintf_r+0x19c>
 20047e0:	9805      	ldr	r0, [sp, #20]
 20047e2:	9905      	ldr	r1, [sp, #20]
 20047e4:	3004      	adds	r0, #4
 20047e6:	9008      	str	r0, [sp, #32]
 20047e8:	680e      	ldr	r6, [r1, #0]
 20047ea:	e4e0      	b.n	20041ae <_vfiprintf_r+0x406>
 20047ec:	9204      	str	r2, [sp, #16]
 20047ee:	4647      	mov	r7, r8
 20047f0:	e495      	b.n	200411e <_vfiprintf_r+0x376>
 20047f2:	9204      	str	r2, [sp, #16]
 20047f4:	4647      	mov	r7, r8
 20047f6:	e4d1      	b.n	200419c <_vfiprintf_r+0x3f4>
 20047f8:	9204      	str	r2, [sp, #16]
 20047fa:	4647      	mov	r7, r8
 20047fc:	e4ba      	b.n	2004174 <_vfiprintf_r+0x3cc>
 20047fe:	9805      	ldr	r0, [sp, #20]
 2004800:	269d      	movs	r6, #157	; 0x9d
 2004802:	00f6      	lsls	r6, r6, #3
 2004804:	681b      	ldr	r3, [r3, #0]
 2004806:	3004      	adds	r0, #4
 2004808:	446e      	add	r6, sp
 200480a:	2101      	movs	r1, #1
 200480c:	9005      	str	r0, [sp, #20]
 200480e:	7033      	strb	r3, [r6, #0]
 2004810:	9106      	str	r1, [sp, #24]
 2004812:	e460      	b.n	20040d6 <_vfiprintf_r+0x32e>
 2004814:	68a3      	ldr	r3, [r4, #8]
 2004816:	2b00      	cmp	r3, #0
 2004818:	d000      	beq.n	200481c <_vfiprintf_r+0xa74>
 200481a:	e0a5      	b.n	2004968 <_vfiprintf_r+0xbc0>
 200481c:	9803      	ldr	r0, [sp, #12]
 200481e:	8983      	ldrh	r3, [r0, #12]
 2004820:	e661      	b.n	20044e6 <_vfiprintf_r+0x73e>
 2004822:	4658      	mov	r0, fp
 2004824:	9903      	ldr	r1, [sp, #12]
 2004826:	1c22      	adds	r2, r4, #0
 2004828:	f7ff fa76 	bl	2003d18 <__sprint_r>
 200482c:	2800      	cmp	r0, #0
 200482e:	d000      	beq.n	2004832 <_vfiprintf_r+0xa8a>
 2004830:	e64f      	b.n	20044d2 <_vfiprintf_r+0x72a>
 2004832:	2595      	movs	r5, #149	; 0x95
 2004834:	00ed      	lsls	r5, r5, #3
 2004836:	68a3      	ldr	r3, [r4, #8]
 2004838:	446d      	add	r5, sp
 200483a:	e587      	b.n	200434c <_vfiprintf_r+0x5a4>
 200483c:	9a03      	ldr	r2, [sp, #12]
 200483e:	8993      	ldrh	r3, [r2, #12]
 2004840:	e651      	b.n	20044e6 <_vfiprintf_r+0x73e>
 2004842:	68a3      	ldr	r3, [r4, #8]
 2004844:	e5a8      	b.n	2004398 <_vfiprintf_r+0x5f0>
 2004846:	4658      	mov	r0, fp
 2004848:	9903      	ldr	r1, [sp, #12]
 200484a:	1c22      	adds	r2, r4, #0
 200484c:	f7ff fa64 	bl	2003d18 <__sprint_r>
 2004850:	2800      	cmp	r0, #0
 2004852:	d000      	beq.n	2004856 <_vfiprintf_r+0xaae>
 2004854:	e63d      	b.n	20044d2 <_vfiprintf_r+0x72a>
 2004856:	2595      	movs	r5, #149	; 0x95
 2004858:	00ed      	lsls	r5, r5, #3
 200485a:	68a3      	ldr	r3, [r4, #8]
 200485c:	446d      	add	r5, sp
 200485e:	e59b      	b.n	2004398 <_vfiprintf_r+0x5f0>
 2004860:	4b0b      	ldr	r3, [pc, #44]	; (2004890 <_vfiprintf_r+0xae8>)
 2004862:	9a0b      	ldr	r2, [sp, #44]	; 0x2c
 2004864:	480b      	ldr	r0, [pc, #44]	; (2004894 <_vfiprintf_r+0xaec>)
 2004866:	446b      	add	r3, sp
 2004868:	601a      	str	r2, [r3, #0]
 200486a:	4468      	add	r0, sp
 200486c:	2100      	movs	r1, #0
 200486e:	2208      	movs	r2, #8
 2004870:	4680      	mov	r8, r0
 2004872:	f7fe fa6b 	bl	2002d4c <memset>
 2004876:	2f00      	cmp	r7, #0
 2004878:	da00      	bge.n	200487c <_vfiprintf_r+0xad4>
 200487a:	e0dc      	b.n	2004a36 <_vfiprintf_r+0xc8e>
 200487c:	465b      	mov	r3, fp
 200487e:	2600      	movs	r6, #0
 2004880:	46ab      	mov	fp, r5
 2004882:	9606      	str	r6, [sp, #24]
 2004884:	1c1d      	adds	r5, r3, #0
 2004886:	e008      	b.n	200489a <_vfiprintf_r+0xaf2>
 2004888:	0200aab4 	.word	0x0200aab4
 200488c:	0000053f 	.word	0x0000053f
 2004890:	00000534 	.word	0x00000534
 2004894:	0000051c 	.word	0x0000051c
 2004898:	9306      	str	r3, [sp, #24]
 200489a:	4981      	ldr	r1, [pc, #516]	; (2004aa0 <_vfiprintf_r+0xcf8>)
 200489c:	4469      	add	r1, sp
 200489e:	680b      	ldr	r3, [r1, #0]
 20048a0:	599a      	ldr	r2, [r3, r6]
 20048a2:	2a00      	cmp	r2, #0
 20048a4:	d100      	bne.n	20048a8 <_vfiprintf_r+0xb00>
 20048a6:	e0c2      	b.n	2004a2e <_vfiprintf_r+0xc86>
 20048a8:	219d      	movs	r1, #157	; 0x9d
 20048aa:	00c9      	lsls	r1, r1, #3
 20048ac:	1c28      	adds	r0, r5, #0
 20048ae:	4469      	add	r1, sp
 20048b0:	4643      	mov	r3, r8
 20048b2:	f000 f94b 	bl	2004b4c <_wcrtomb_r>
 20048b6:	1c42      	adds	r2, r0, #1
 20048b8:	d100      	bne.n	20048bc <_vfiprintf_r+0xb14>
 20048ba:	e0cd      	b.n	2004a58 <_vfiprintf_r+0xcb0>
 20048bc:	9906      	ldr	r1, [sp, #24]
 20048be:	1843      	adds	r3, r0, r1
 20048c0:	42bb      	cmp	r3, r7
 20048c2:	dd00      	ble.n	20048c6 <_vfiprintf_r+0xb1e>
 20048c4:	e0b3      	b.n	2004a2e <_vfiprintf_r+0xc86>
 20048c6:	3604      	adds	r6, #4
 20048c8:	429f      	cmp	r7, r3
 20048ca:	d1e5      	bne.n	2004898 <_vfiprintf_r+0xaf0>
 20048cc:	1c2b      	adds	r3, r5, #0
 20048ce:	9706      	str	r7, [sp, #24]
 20048d0:	465d      	mov	r5, fp
 20048d2:	469b      	mov	fp, r3
 20048d4:	9a06      	ldr	r2, [sp, #24]
 20048d6:	2a00      	cmp	r2, #0
 20048d8:	d032      	beq.n	2004940 <_vfiprintf_r+0xb98>
 20048da:	2a27      	cmp	r2, #39	; 0x27
 20048dc:	dd00      	ble.n	20048e0 <_vfiprintf_r+0xb38>
 20048de:	e092      	b.n	2004a06 <_vfiprintf_r+0xc5e>
 20048e0:	279d      	movs	r7, #157	; 0x9d
 20048e2:	00ff      	lsls	r7, r7, #3
 20048e4:	2300      	movs	r3, #0
 20048e6:	446f      	add	r7, sp
 20048e8:	9308      	str	r3, [sp, #32]
 20048ea:	970b      	str	r7, [sp, #44]	; 0x2c
 20048ec:	2100      	movs	r1, #0
 20048ee:	2208      	movs	r2, #8
 20048f0:	4640      	mov	r0, r8
 20048f2:	f7fe fa2b 	bl	2002d4c <memset>
 20048f6:	4a6a      	ldr	r2, [pc, #424]	; (2004aa0 <_vfiprintf_r+0xcf8>)
 20048f8:	4643      	mov	r3, r8
 20048fa:	9300      	str	r3, [sp, #0]
 20048fc:	4658      	mov	r0, fp
 20048fe:	990b      	ldr	r1, [sp, #44]	; 0x2c
 2004900:	446a      	add	r2, sp
 2004902:	9b06      	ldr	r3, [sp, #24]
 2004904:	f000 f972 	bl	2004bec <_wcsrtombs_r>
 2004908:	9f06      	ldr	r7, [sp, #24]
 200490a:	4287      	cmp	r7, r0
 200490c:	d000      	beq.n	2004910 <_vfiprintf_r+0xb68>
 200490e:	e0c1      	b.n	2004a94 <_vfiprintf_r+0xcec>
 2004910:	9b06      	ldr	r3, [sp, #24]
 2004912:	9a0b      	ldr	r2, [sp, #44]	; 0x2c
 2004914:	2700      	movs	r7, #0
 2004916:	54d7      	strb	r7, [r2, r3]
 2004918:	9806      	ldr	r0, [sp, #24]
 200491a:	9307      	str	r3, [sp, #28]
 200491c:	2800      	cmp	r0, #0
 200491e:	da00      	bge.n	2004922 <_vfiprintf_r+0xb7a>
 2004920:	e0a3      	b.n	2004a6a <_vfiprintf_r+0xcc2>
 2004922:	2200      	movs	r2, #0
 2004924:	920e      	str	r2, [sp, #56]	; 0x38
 2004926:	e4c1      	b.n	20042ac <_vfiprintf_r+0x504>
 2004928:	485e      	ldr	r0, [pc, #376]	; (2004aa4 <_vfiprintf_r+0xcfc>)
 200492a:	4680      	mov	r8, r0
 200492c:	e562      	b.n	20043f4 <_vfiprintf_r+0x64c>
 200492e:	9a05      	ldr	r2, [sp, #20]
 2004930:	9905      	ldr	r1, [sp, #20]
 2004932:	6813      	ldr	r3, [r2, #0]
 2004934:	9f09      	ldr	r7, [sp, #36]	; 0x24
 2004936:	3104      	adds	r1, #4
 2004938:	9102      	str	r1, [sp, #8]
 200493a:	601f      	str	r7, [r3, #0]
 200493c:	f7ff fa80 	bl	2003e40 <_vfiprintf_r+0x98>
 2004940:	2200      	movs	r2, #0
 2004942:	9207      	str	r2, [sp, #28]
 2004944:	9208      	str	r2, [sp, #32]
 2004946:	920e      	str	r2, [sp, #56]	; 0x38
 2004948:	e4b0      	b.n	20042ac <_vfiprintf_r+0x504>
 200494a:	2000      	movs	r0, #0
 200494c:	9007      	str	r0, [sp, #28]
 200494e:	960b      	str	r6, [sp, #44]	; 0x2c
 2004950:	f7ff fada 	bl	2003f08 <_vfiprintf_r+0x160>
 2004954:	9706      	str	r7, [sp, #24]
 2004956:	2f06      	cmp	r7, #6
 2004958:	d928      	bls.n	20049ac <_vfiprintf_r+0xc04>
 200495a:	2206      	movs	r2, #6
 200495c:	9206      	str	r2, [sp, #24]
 200495e:	9207      	str	r2, [sp, #28]
 2004960:	4851      	ldr	r0, [pc, #324]	; (2004aa8 <_vfiprintf_r+0xd00>)
 2004962:	900b      	str	r0, [sp, #44]	; 0x2c
 2004964:	f7ff fad0 	bl	2003f08 <_vfiprintf_r+0x160>
 2004968:	4658      	mov	r0, fp
 200496a:	9903      	ldr	r1, [sp, #12]
 200496c:	1c22      	adds	r2, r4, #0
 200496e:	f7ff f9d3 	bl	2003d18 <__sprint_r>
 2004972:	2800      	cmp	r0, #0
 2004974:	d100      	bne.n	2004978 <_vfiprintf_r+0xbd0>
 2004976:	e751      	b.n	200481c <_vfiprintf_r+0xa74>
 2004978:	e5b3      	b.n	20044e2 <_vfiprintf_r+0x73a>
 200497a:	2300      	movs	r3, #0
 200497c:	9707      	str	r7, [sp, #28]
 200497e:	9706      	str	r7, [sp, #24]
 2004980:	9308      	str	r3, [sp, #32]
 2004982:	930e      	str	r3, [sp, #56]	; 0x38
 2004984:	e492      	b.n	20042ac <_vfiprintf_r+0x504>
 2004986:	9905      	ldr	r1, [sp, #20]
 2004988:	9b05      	ldr	r3, [sp, #20]
 200498a:	6809      	ldr	r1, [r1, #0]
 200498c:	3304      	adds	r3, #4
 200498e:	4688      	mov	r8, r1
 2004990:	2900      	cmp	r1, #0
 2004992:	db01      	blt.n	2004998 <_vfiprintf_r+0xbf0>
 2004994:	f7ff fb46 	bl	2004024 <_vfiprintf_r+0x27c>
 2004998:	2701      	movs	r7, #1
 200499a:	4279      	negs	r1, r7
 200499c:	4688      	mov	r8, r1
 200499e:	9305      	str	r3, [sp, #20]
 20049a0:	f7ff fa9b 	bl	2003eda <_vfiprintf_r+0x132>
 20049a4:	4a3f      	ldr	r2, [pc, #252]	; (2004aa4 <_vfiprintf_r+0xcfc>)
 20049a6:	68a3      	ldr	r3, [r4, #8]
 20049a8:	4690      	mov	r8, r2
 20049aa:	e4c1      	b.n	2004330 <_vfiprintf_r+0x588>
 20049ac:	9b06      	ldr	r3, [sp, #24]
 20049ae:	9307      	str	r3, [sp, #28]
 20049b0:	2b00      	cmp	r3, #0
 20049b2:	dad5      	bge.n	2004960 <_vfiprintf_r+0xbb8>
 20049b4:	2700      	movs	r7, #0
 20049b6:	9707      	str	r7, [sp, #28]
 20049b8:	e7d2      	b.n	2004960 <_vfiprintf_r+0xbb8>
 20049ba:	9b0b      	ldr	r3, [sp, #44]	; 0x2c
 20049bc:	1ae3      	subs	r3, r4, r3
 20049be:	9306      	str	r3, [sp, #24]
 20049c0:	e46a      	b.n	2004298 <_vfiprintf_r+0x4f0>
 20049c2:	4a38      	ldr	r2, [pc, #224]	; (2004aa4 <_vfiprintf_r+0xcfc>)
 20049c4:	4690      	mov	r8, r2
 20049c6:	e55e      	b.n	2004486 <_vfiprintf_r+0x6de>
 20049c8:	4658      	mov	r0, fp
 20049ca:	9903      	ldr	r1, [sp, #12]
 20049cc:	f000 fa64 	bl	2004e98 <__swsetup_r>
 20049d0:	2800      	cmp	r0, #0
 20049d2:	d000      	beq.n	20049d6 <_vfiprintf_r+0xc2e>
 20049d4:	e589      	b.n	20044ea <_vfiprintf_r+0x742>
 20049d6:	9803      	ldr	r0, [sp, #12]
 20049d8:	8981      	ldrh	r1, [r0, #12]
 20049da:	1c0b      	adds	r3, r1, #0
 20049dc:	f7ff fa18 	bl	2003e10 <_vfiprintf_r+0x68>
 20049e0:	9b06      	ldr	r3, [sp, #24]
 20049e2:	9307      	str	r3, [sp, #28]
 20049e4:	2b00      	cmp	r3, #0
 20049e6:	db43      	blt.n	2004a70 <_vfiprintf_r+0xcc8>
 20049e8:	2000      	movs	r0, #0
 20049ea:	9008      	str	r0, [sp, #32]
 20049ec:	900e      	str	r0, [sp, #56]	; 0x38
 20049ee:	e45d      	b.n	20042ac <_vfiprintf_r+0x504>
 20049f0:	980b      	ldr	r0, [sp, #44]	; 0x2c
 20049f2:	f7fe fb21 	bl	2003038 <strlen>
 20049f6:	9006      	str	r0, [sp, #24]
 20049f8:	9007      	str	r0, [sp, #28]
 20049fa:	2800      	cmp	r0, #0
 20049fc:	db3f      	blt.n	2004a7e <_vfiprintf_r+0xcd6>
 20049fe:	2200      	movs	r2, #0
 2004a00:	9208      	str	r2, [sp, #32]
 2004a02:	920e      	str	r2, [sp, #56]	; 0x38
 2004a04:	e452      	b.n	20042ac <_vfiprintf_r+0x504>
 2004a06:	9906      	ldr	r1, [sp, #24]
 2004a08:	4658      	mov	r0, fp
 2004a0a:	3101      	adds	r1, #1
 2004a0c:	f001 fda4 	bl	2006558 <_malloc_r>
 2004a10:	9008      	str	r0, [sp, #32]
 2004a12:	2800      	cmp	r0, #0
 2004a14:	d036      	beq.n	2004a84 <_vfiprintf_r+0xcdc>
 2004a16:	9a08      	ldr	r2, [sp, #32]
 2004a18:	920b      	str	r2, [sp, #44]	; 0x2c
 2004a1a:	e767      	b.n	20048ec <_vfiprintf_r+0xb44>
 2004a1c:	46a0      	mov	r8, r4
 2004a1e:	e67a      	b.n	2004716 <_vfiprintf_r+0x96e>
 2004a20:	4a20      	ldr	r2, [pc, #128]	; (2004aa4 <_vfiprintf_r+0xcfc>)
 2004a22:	4690      	mov	r8, r2
 2004a24:	e5ad      	b.n	2004582 <_vfiprintf_r+0x7da>
 2004a26:	2700      	movs	r7, #0
 2004a28:	46b8      	mov	r8, r7
 2004a2a:	f7ff fa58 	bl	2003ede <_vfiprintf_r+0x136>
 2004a2e:	1c2b      	adds	r3, r5, #0
 2004a30:	465d      	mov	r5, fp
 2004a32:	469b      	mov	fp, r3
 2004a34:	e74e      	b.n	20048d4 <_vfiprintf_r+0xb2c>
 2004a36:	4642      	mov	r2, r8
 2004a38:	9200      	str	r2, [sp, #0]
 2004a3a:	4a19      	ldr	r2, [pc, #100]	; (2004aa0 <_vfiprintf_r+0xcf8>)
 2004a3c:	4658      	mov	r0, fp
 2004a3e:	2100      	movs	r1, #0
 2004a40:	446a      	add	r2, sp
 2004a42:	2300      	movs	r3, #0
 2004a44:	f000 f8d2 	bl	2004bec <_wcsrtombs_r>
 2004a48:	9006      	str	r0, [sp, #24]
 2004a4a:	3001      	adds	r0, #1
 2004a4c:	d004      	beq.n	2004a58 <_vfiprintf_r+0xcb0>
 2004a4e:	4914      	ldr	r1, [pc, #80]	; (2004aa0 <_vfiprintf_r+0xcf8>)
 2004a50:	980b      	ldr	r0, [sp, #44]	; 0x2c
 2004a52:	4469      	add	r1, sp
 2004a54:	6008      	str	r0, [r1, #0]
 2004a56:	e73d      	b.n	20048d4 <_vfiprintf_r+0xb2c>
 2004a58:	9b03      	ldr	r3, [sp, #12]
 2004a5a:	899a      	ldrh	r2, [r3, #12]
 2004a5c:	2340      	movs	r3, #64	; 0x40
 2004a5e:	4313      	orrs	r3, r2
 2004a60:	041b      	lsls	r3, r3, #16
 2004a62:	9f03      	ldr	r7, [sp, #12]
 2004a64:	0c1b      	lsrs	r3, r3, #16
 2004a66:	81bb      	strh	r3, [r7, #12]
 2004a68:	e53d      	b.n	20044e6 <_vfiprintf_r+0x73e>
 2004a6a:	2100      	movs	r1, #0
 2004a6c:	9107      	str	r1, [sp, #28]
 2004a6e:	e758      	b.n	2004922 <_vfiprintf_r+0xb7a>
 2004a70:	2700      	movs	r7, #0
 2004a72:	9707      	str	r7, [sp, #28]
 2004a74:	e7b8      	b.n	20049e8 <_vfiprintf_r+0xc40>
 2004a76:	2001      	movs	r0, #1
 2004a78:	4240      	negs	r0, r0
 2004a7a:	9009      	str	r0, [sp, #36]	; 0x24
 2004a7c:	e613      	b.n	20046a6 <_vfiprintf_r+0x8fe>
 2004a7e:	2100      	movs	r1, #0
 2004a80:	9107      	str	r1, [sp, #28]
 2004a82:	e7bc      	b.n	20049fe <_vfiprintf_r+0xc56>
 2004a84:	9803      	ldr	r0, [sp, #12]
 2004a86:	8982      	ldrh	r2, [r0, #12]
 2004a88:	2340      	movs	r3, #64	; 0x40
 2004a8a:	4313      	orrs	r3, r2
 2004a8c:	041b      	lsls	r3, r3, #16
 2004a8e:	0c1b      	lsrs	r3, r3, #16
 2004a90:	8183      	strh	r3, [r0, #12]
 2004a92:	e528      	b.n	20044e6 <_vfiprintf_r+0x73e>
 2004a94:	9803      	ldr	r0, [sp, #12]
 2004a96:	8982      	ldrh	r2, [r0, #12]
 2004a98:	2340      	movs	r3, #64	; 0x40
 2004a9a:	4313      	orrs	r3, r2
 2004a9c:	8183      	strh	r3, [r0, #12]
 2004a9e:	e518      	b.n	20044d2 <_vfiprintf_r+0x72a>
 2004aa0:	00000534 	.word	0x00000534
 2004aa4:	0200aab4 	.word	0x0200aab4
 2004aa8:	0200e450 	.word	0x0200e450

02004aac <vfiprintf>:
 2004aac:	b570      	push	{r4, r5, r6, lr}
 2004aae:	1c13      	adds	r3, r2, #0
 2004ab0:	4a05      	ldr	r2, [pc, #20]	; (2004ac8 <vfiprintf+0x1c>)
 2004ab2:	1c05      	adds	r5, r0, #0
 2004ab4:	1c0c      	adds	r4, r1, #0
 2004ab6:	6810      	ldr	r0, [r2, #0]
 2004ab8:	1c29      	adds	r1, r5, #0
 2004aba:	1c22      	adds	r2, r4, #0
 2004abc:	f7ff f974 	bl	2003da8 <_vfiprintf_r>
 2004ac0:	bc70      	pop	{r4, r5, r6}
 2004ac2:	bc02      	pop	{r1}
 2004ac4:	4708      	bx	r1
 2004ac6:	46c0      	nop			; (mov r8, r8)
 2004ac8:	0200e940 	.word	0x0200e940
 2004acc:	4730      	bx	r6
 2004ace:	46c0      	nop			; (mov r8, r8)

02004ad0 <wcrtomb>:
 2004ad0:	b5f0      	push	{r4, r5, r6, r7, lr}
 2004ad2:	4657      	mov	r7, sl
 2004ad4:	4646      	mov	r6, r8
 2004ad6:	b4c0      	push	{r6, r7}
 2004ad8:	b087      	sub	sp, #28
 2004ada:	1c05      	adds	r5, r0, #0
 2004adc:	4688      	mov	r8, r1
 2004ade:	1c14      	adds	r4, r2, #0
 2004ae0:	2a00      	cmp	r2, #0
 2004ae2:	d029      	beq.n	2004b38 <wcrtomb+0x68>
 2004ae4:	4e17      	ldr	r6, [pc, #92]	; (2004b44 <wcrtomb+0x74>)
 2004ae6:	6837      	ldr	r7, [r6, #0]
 2004ae8:	2d00      	cmp	r5, #0
 2004aea:	d019      	beq.n	2004b20 <wcrtomb+0x50>
 2004aec:	4b16      	ldr	r3, [pc, #88]	; (2004b48 <wcrtomb+0x78>)
 2004aee:	681b      	ldr	r3, [r3, #0]
 2004af0:	469a      	mov	sl, r3
 2004af2:	f001 f8bb 	bl	2005c6c <__locale_charset>
 2004af6:	9400      	str	r4, [sp, #0]
 2004af8:	1c03      	adds	r3, r0, #0
 2004afa:	1c29      	adds	r1, r5, #0
 2004afc:	1c38      	adds	r0, r7, #0
 2004afe:	4642      	mov	r2, r8
 2004b00:	f000 f85c 	bl	2004bbc <_wcrtomb_r+0x70>
 2004b04:	1c43      	adds	r3, r0, #1
 2004b06:	d104      	bne.n	2004b12 <wcrtomb+0x42>
 2004b08:	2300      	movs	r3, #0
 2004b0a:	6023      	str	r3, [r4, #0]
 2004b0c:	6833      	ldr	r3, [r6, #0]
 2004b0e:	228a      	movs	r2, #138	; 0x8a
 2004b10:	601a      	str	r2, [r3, #0]
 2004b12:	b007      	add	sp, #28
 2004b14:	bc0c      	pop	{r2, r3}
 2004b16:	4690      	mov	r8, r2
 2004b18:	469a      	mov	sl, r3
 2004b1a:	bcf0      	pop	{r4, r5, r6, r7}
 2004b1c:	bc02      	pop	{r1}
 2004b1e:	4708      	bx	r1
 2004b20:	4b09      	ldr	r3, [pc, #36]	; (2004b48 <wcrtomb+0x78>)
 2004b22:	681d      	ldr	r5, [r3, #0]
 2004b24:	f001 f8a2 	bl	2005c6c <__locale_charset>
 2004b28:	9400      	str	r4, [sp, #0]
 2004b2a:	1c03      	adds	r3, r0, #0
 2004b2c:	a903      	add	r1, sp, #12
 2004b2e:	1c38      	adds	r0, r7, #0
 2004b30:	2200      	movs	r2, #0
 2004b32:	f000 f841 	bl	2004bb8 <_wcrtomb_r+0x6c>
 2004b36:	e7e5      	b.n	2004b04 <wcrtomb+0x34>
 2004b38:	4e02      	ldr	r6, [pc, #8]	; (2004b44 <wcrtomb+0x74>)
 2004b3a:	238a      	movs	r3, #138	; 0x8a
 2004b3c:	6837      	ldr	r7, [r6, #0]
 2004b3e:	005b      	lsls	r3, r3, #1
 2004b40:	18fc      	adds	r4, r7, r3
 2004b42:	e7d1      	b.n	2004ae8 <wcrtomb+0x18>
 2004b44:	0200e940 	.word	0x0200e940
 2004b48:	0200ed70 	.word	0x0200ed70

02004b4c <_wcrtomb_r>:
 2004b4c:	b5f0      	push	{r4, r5, r6, r7, lr}
 2004b4e:	4647      	mov	r7, r8
 2004b50:	b480      	push	{r7}
 2004b52:	b086      	sub	sp, #24
 2004b54:	1c06      	adds	r6, r0, #0
 2004b56:	1c0d      	adds	r5, r1, #0
 2004b58:	1c17      	adds	r7, r2, #0
 2004b5a:	1c1c      	adds	r4, r3, #0
 2004b5c:	2b00      	cmp	r3, #0
 2004b5e:	d025      	beq.n	2004bac <_wcrtomb_r+0x60>
 2004b60:	2d00      	cmp	r5, #0
 2004b62:	d017      	beq.n	2004b94 <_wcrtomb_r+0x48>
 2004b64:	4b13      	ldr	r3, [pc, #76]	; (2004bb4 <_wcrtomb_r+0x68>)
 2004b66:	681b      	ldr	r3, [r3, #0]
 2004b68:	4698      	mov	r8, r3
 2004b6a:	f001 f87f 	bl	2005c6c <__locale_charset>
 2004b6e:	9400      	str	r4, [sp, #0]
 2004b70:	1c03      	adds	r3, r0, #0
 2004b72:	1c29      	adds	r1, r5, #0
 2004b74:	1c30      	adds	r0, r6, #0
 2004b76:	1c3a      	adds	r2, r7, #0
 2004b78:	f000 f81f 	bl	2004bba <_wcrtomb_r+0x6e>
 2004b7c:	1c43      	adds	r3, r0, #1
 2004b7e:	d103      	bne.n	2004b88 <_wcrtomb_r+0x3c>
 2004b80:	2300      	movs	r3, #0
 2004b82:	6023      	str	r3, [r4, #0]
 2004b84:	238a      	movs	r3, #138	; 0x8a
 2004b86:	6033      	str	r3, [r6, #0]
 2004b88:	b006      	add	sp, #24
 2004b8a:	bc04      	pop	{r2}
 2004b8c:	4690      	mov	r8, r2
 2004b8e:	bcf0      	pop	{r4, r5, r6, r7}
 2004b90:	bc02      	pop	{r1}
 2004b92:	4708      	bx	r1
 2004b94:	4b07      	ldr	r3, [pc, #28]	; (2004bb4 <_wcrtomb_r+0x68>)
 2004b96:	681d      	ldr	r5, [r3, #0]
 2004b98:	f001 f868 	bl	2005c6c <__locale_charset>
 2004b9c:	9400      	str	r4, [sp, #0]
 2004b9e:	1c03      	adds	r3, r0, #0
 2004ba0:	a903      	add	r1, sp, #12
 2004ba2:	1c30      	adds	r0, r6, #0
 2004ba4:	2200      	movs	r2, #0
 2004ba6:	f000 f807 	bl	2004bb8 <_wcrtomb_r+0x6c>
 2004baa:	e7e7      	b.n	2004b7c <_wcrtomb_r+0x30>
 2004bac:	238a      	movs	r3, #138	; 0x8a
 2004bae:	005b      	lsls	r3, r3, #1
 2004bb0:	18c4      	adds	r4, r0, r3
 2004bb2:	e7d5      	b.n	2004b60 <_wcrtomb_r+0x14>
 2004bb4:	0200ed70 	.word	0x0200ed70
 2004bb8:	4728      	bx	r5
 2004bba:	4740      	bx	r8
 2004bbc:	4750      	bx	sl
 2004bbe:	46c0      	nop			; (mov r8, r8)

02004bc0 <wcsrtombs>:
 2004bc0:	b530      	push	{r4, r5, lr}
 2004bc2:	b083      	sub	sp, #12
 2004bc4:	1c0c      	adds	r4, r1, #0
 2004bc6:	1c19      	adds	r1, r3, #0
 2004bc8:	4b07      	ldr	r3, [pc, #28]	; (2004be8 <wcsrtombs+0x28>)
 2004bca:	1c05      	adds	r5, r0, #0
 2004bcc:	6818      	ldr	r0, [r3, #0]
 2004bce:	2301      	movs	r3, #1
 2004bd0:	9200      	str	r2, [sp, #0]
 2004bd2:	9101      	str	r1, [sp, #4]
 2004bd4:	425b      	negs	r3, r3
 2004bd6:	1c29      	adds	r1, r5, #0
 2004bd8:	1c22      	adds	r2, r4, #0
 2004bda:	f003 f84b 	bl	2007c74 <_wcsnrtombs_r>
 2004bde:	b003      	add	sp, #12
 2004be0:	bc30      	pop	{r4, r5}
 2004be2:	bc02      	pop	{r1}
 2004be4:	4708      	bx	r1
 2004be6:	46c0      	nop			; (mov r8, r8)
 2004be8:	0200e940 	.word	0x0200e940

02004bec <_wcsrtombs_r>:
 2004bec:	b510      	push	{r4, lr}
 2004bee:	b082      	sub	sp, #8
 2004bf0:	1c1c      	adds	r4, r3, #0
 2004bf2:	9400      	str	r4, [sp, #0]
 2004bf4:	2301      	movs	r3, #1
 2004bf6:	9c04      	ldr	r4, [sp, #16]
 2004bf8:	425b      	negs	r3, r3
 2004bfa:	9401      	str	r4, [sp, #4]
 2004bfc:	f003 f83a 	bl	2007c74 <_wcsnrtombs_r>
 2004c00:	b002      	add	sp, #8
 2004c02:	bc10      	pop	{r4}
 2004c04:	bc02      	pop	{r1}
 2004c06:	4708      	bx	r1

02004c08 <__ascii_wctomb>:
 2004c08:	b500      	push	{lr}
 2004c0a:	2900      	cmp	r1, #0
 2004c0c:	d005      	beq.n	2004c1a <__ascii_wctomb+0x12>
 2004c0e:	2aff      	cmp	r2, #255	; 0xff
 2004c10:	d805      	bhi.n	2004c1e <__ascii_wctomb+0x16>
 2004c12:	700a      	strb	r2, [r1, #0]
 2004c14:	2001      	movs	r0, #1
 2004c16:	bc02      	pop	{r1}
 2004c18:	4708      	bx	r1
 2004c1a:	2000      	movs	r0, #0
 2004c1c:	e7fb      	b.n	2004c16 <__ascii_wctomb+0xe>
 2004c1e:	238a      	movs	r3, #138	; 0x8a
 2004c20:	6003      	str	r3, [r0, #0]
 2004c22:	2001      	movs	r0, #1
 2004c24:	4240      	negs	r0, r0
 2004c26:	e7f6      	b.n	2004c16 <__ascii_wctomb+0xe>

02004c28 <__utf8_wctomb>:
 2004c28:	b510      	push	{r4, lr}
 2004c2a:	2900      	cmp	r1, #0
 2004c2c:	d030      	beq.n	2004c90 <__utf8_wctomb+0x68>
 2004c2e:	2a7f      	cmp	r2, #127	; 0x7f
 2004c30:	d914      	bls.n	2004c5c <__utf8_wctomb+0x34>
 2004c32:	1c14      	adds	r4, r2, #0
 2004c34:	4b28      	ldr	r3, [pc, #160]	; (2004cd8 <__utf8_wctomb+0xb0>)
 2004c36:	3c80      	subs	r4, #128	; 0x80
 2004c38:	429c      	cmp	r4, r3
 2004c3a:	d812      	bhi.n	2004c62 <__utf8_wctomb+0x3a>
 2004c3c:	0550      	lsls	r0, r2, #21
 2004c3e:	2340      	movs	r3, #64	; 0x40
 2004c40:	0ec0      	lsrs	r0, r0, #27
 2004c42:	425b      	negs	r3, r3
 2004c44:	4303      	orrs	r3, r0
 2004c46:	700b      	strb	r3, [r1, #0]
 2004c48:	233f      	movs	r3, #63	; 0x3f
 2004c4a:	401a      	ands	r2, r3
 2004c4c:	2380      	movs	r3, #128	; 0x80
 2004c4e:	425b      	negs	r3, r3
 2004c50:	4313      	orrs	r3, r2
 2004c52:	704b      	strb	r3, [r1, #1]
 2004c54:	2002      	movs	r0, #2
 2004c56:	bc10      	pop	{r4}
 2004c58:	bc02      	pop	{r1}
 2004c5a:	4708      	bx	r1
 2004c5c:	700a      	strb	r2, [r1, #0]
 2004c5e:	2001      	movs	r0, #1
 2004c60:	e7f9      	b.n	2004c56 <__utf8_wctomb+0x2e>
 2004c62:	4b1e      	ldr	r3, [pc, #120]	; (2004cdc <__utf8_wctomb+0xb4>)
 2004c64:	18d4      	adds	r4, r2, r3
 2004c66:	4b1e      	ldr	r3, [pc, #120]	; (2004ce0 <__utf8_wctomb+0xb8>)
 2004c68:	429c      	cmp	r4, r3
 2004c6a:	d813      	bhi.n	2004c94 <__utf8_wctomb+0x6c>
 2004c6c:	0410      	lsls	r0, r2, #16
 2004c6e:	2320      	movs	r3, #32
 2004c70:	0f00      	lsrs	r0, r0, #28
 2004c72:	425b      	negs	r3, r3
 2004c74:	4303      	orrs	r3, r0
 2004c76:	700b      	strb	r3, [r1, #0]
 2004c78:	0510      	lsls	r0, r2, #20
 2004c7a:	2380      	movs	r3, #128	; 0x80
 2004c7c:	425b      	negs	r3, r3
 2004c7e:	0e80      	lsrs	r0, r0, #26
 2004c80:	4318      	orrs	r0, r3
 2004c82:	7048      	strb	r0, [r1, #1]
 2004c84:	203f      	movs	r0, #63	; 0x3f
 2004c86:	4002      	ands	r2, r0
 2004c88:	4313      	orrs	r3, r2
 2004c8a:	708b      	strb	r3, [r1, #2]
 2004c8c:	2003      	movs	r0, #3
 2004c8e:	e7e2      	b.n	2004c56 <__utf8_wctomb+0x2e>
 2004c90:	2000      	movs	r0, #0
 2004c92:	e7e0      	b.n	2004c56 <__utf8_wctomb+0x2e>
 2004c94:	4b13      	ldr	r3, [pc, #76]	; (2004ce4 <__utf8_wctomb+0xbc>)
 2004c96:	18d4      	adds	r4, r2, r3
 2004c98:	4b13      	ldr	r3, [pc, #76]	; (2004ce8 <__utf8_wctomb+0xc0>)
 2004c9a:	429c      	cmp	r4, r3
 2004c9c:	d816      	bhi.n	2004ccc <__utf8_wctomb+0xa4>
 2004c9e:	02d0      	lsls	r0, r2, #11
 2004ca0:	2310      	movs	r3, #16
 2004ca2:	0f40      	lsrs	r0, r0, #29
 2004ca4:	425b      	negs	r3, r3
 2004ca6:	4303      	orrs	r3, r0
 2004ca8:	700b      	strb	r3, [r1, #0]
 2004caa:	0394      	lsls	r4, r2, #14
 2004cac:	2380      	movs	r3, #128	; 0x80
 2004cae:	425b      	negs	r3, r3
 2004cb0:	0ea4      	lsrs	r4, r4, #26
 2004cb2:	431c      	orrs	r4, r3
 2004cb4:	1c48      	adds	r0, r1, #1
 2004cb6:	704c      	strb	r4, [r1, #1]
 2004cb8:	0511      	lsls	r1, r2, #20
 2004cba:	0e89      	lsrs	r1, r1, #26
 2004cbc:	4319      	orrs	r1, r3
 2004cbe:	7041      	strb	r1, [r0, #1]
 2004cc0:	213f      	movs	r1, #63	; 0x3f
 2004cc2:	400a      	ands	r2, r1
 2004cc4:	4313      	orrs	r3, r2
 2004cc6:	7083      	strb	r3, [r0, #2]
 2004cc8:	2004      	movs	r0, #4
 2004cca:	e7c4      	b.n	2004c56 <__utf8_wctomb+0x2e>
 2004ccc:	238a      	movs	r3, #138	; 0x8a
 2004cce:	6003      	str	r3, [r0, #0]
 2004cd0:	2001      	movs	r0, #1
 2004cd2:	4240      	negs	r0, r0
 2004cd4:	e7bf      	b.n	2004c56 <__utf8_wctomb+0x2e>
 2004cd6:	46c0      	nop			; (mov r8, r8)
 2004cd8:	0000077f 	.word	0x0000077f
 2004cdc:	fffff800 	.word	0xfffff800
 2004ce0:	0000f7ff 	.word	0x0000f7ff
 2004ce4:	ffff0000 	.word	0xffff0000
 2004ce8:	000fffff 	.word	0x000fffff

02004cec <__sjis_wctomb>:
 2004cec:	b510      	push	{r4, lr}
 2004cee:	2900      	cmp	r1, #0
 2004cf0:	d029      	beq.n	2004d46 <__sjis_wctomb+0x5a>
 2004cf2:	0613      	lsls	r3, r2, #24
 2004cf4:	0412      	lsls	r2, r2, #16
 2004cf6:	0e12      	lsrs	r2, r2, #24
 2004cf8:	0e1b      	lsrs	r3, r3, #24
 2004cfa:	2a00      	cmp	r2, #0
 2004cfc:	d01a      	beq.n	2004d34 <__sjis_wctomb+0x48>
 2004cfe:	1c14      	adds	r4, r2, #0
 2004d00:	3420      	adds	r4, #32
 2004d02:	0624      	lsls	r4, r4, #24
 2004d04:	0e24      	lsrs	r4, r4, #24
 2004d06:	2c0f      	cmp	r4, #15
 2004d08:	d905      	bls.n	2004d16 <__sjis_wctomb+0x2a>
 2004d0a:	1c14      	adds	r4, r2, #0
 2004d0c:	347f      	adds	r4, #127	; 0x7f
 2004d0e:	0624      	lsls	r4, r4, #24
 2004d10:	0e24      	lsrs	r4, r4, #24
 2004d12:	2c1e      	cmp	r4, #30
 2004d14:	d809      	bhi.n	2004d2a <__sjis_wctomb+0x3e>
 2004d16:	2480      	movs	r4, #128	; 0x80
 2004d18:	405c      	eors	r4, r3
 2004d1a:	2c7c      	cmp	r4, #124	; 0x7c
 2004d1c:	d90f      	bls.n	2004d3e <__sjis_wctomb+0x52>
 2004d1e:	1c1c      	adds	r4, r3, #0
 2004d20:	3c40      	subs	r4, #64	; 0x40
 2004d22:	0624      	lsls	r4, r4, #24
 2004d24:	0e24      	lsrs	r4, r4, #24
 2004d26:	2c3e      	cmp	r4, #62	; 0x3e
 2004d28:	d909      	bls.n	2004d3e <__sjis_wctomb+0x52>
 2004d2a:	238a      	movs	r3, #138	; 0x8a
 2004d2c:	6003      	str	r3, [r0, #0]
 2004d2e:	2001      	movs	r0, #1
 2004d30:	4240      	negs	r0, r0
 2004d32:	e001      	b.n	2004d38 <__sjis_wctomb+0x4c>
 2004d34:	700b      	strb	r3, [r1, #0]
 2004d36:	2001      	movs	r0, #1
 2004d38:	bc10      	pop	{r4}
 2004d3a:	bc02      	pop	{r1}
 2004d3c:	4708      	bx	r1
 2004d3e:	700a      	strb	r2, [r1, #0]
 2004d40:	704b      	strb	r3, [r1, #1]
 2004d42:	2002      	movs	r0, #2
 2004d44:	e7f8      	b.n	2004d38 <__sjis_wctomb+0x4c>
 2004d46:	2000      	movs	r0, #0
 2004d48:	e7f6      	b.n	2004d38 <__sjis_wctomb+0x4c>
 2004d4a:	46c0      	nop			; (mov r8, r8)

02004d4c <__eucjp_wctomb>:
 2004d4c:	b570      	push	{r4, r5, r6, lr}
 2004d4e:	2900      	cmp	r1, #0
 2004d50:	d03d      	beq.n	2004dce <__eucjp_wctomb+0x82>
 2004d52:	0613      	lsls	r3, r2, #24
 2004d54:	0412      	lsls	r2, r2, #16
 2004d56:	0e12      	lsrs	r2, r2, #24
 2004d58:	0e1b      	lsrs	r3, r3, #24
 2004d5a:	2a00      	cmp	r2, #0
 2004d5c:	d014      	beq.n	2004d88 <__eucjp_wctomb+0x3c>
 2004d5e:	1c15      	adds	r5, r2, #0
 2004d60:	355f      	adds	r5, #95	; 0x5f
 2004d62:	062d      	lsls	r5, r5, #24
 2004d64:	0e2d      	lsrs	r5, r5, #24
 2004d66:	2400      	movs	r4, #0
 2004d68:	265d      	movs	r6, #93	; 0x5d
 2004d6a:	42ae      	cmp	r6, r5
 2004d6c:	4164      	adcs	r4, r4
 2004d6e:	2c00      	cmp	r4, #0
 2004d70:	d10f      	bne.n	2004d92 <__eucjp_wctomb+0x46>
 2004d72:	1c15      	adds	r5, r2, #0
 2004d74:	3572      	adds	r5, #114	; 0x72
 2004d76:	062d      	lsls	r5, r5, #24
 2004d78:	0e2d      	lsrs	r5, r5, #24
 2004d7a:	2d01      	cmp	r5, #1
 2004d7c:	d909      	bls.n	2004d92 <__eucjp_wctomb+0x46>
 2004d7e:	238a      	movs	r3, #138	; 0x8a
 2004d80:	6003      	str	r3, [r0, #0]
 2004d82:	2001      	movs	r0, #1
 2004d84:	4240      	negs	r0, r0
 2004d86:	e001      	b.n	2004d8c <__eucjp_wctomb+0x40>
 2004d88:	700b      	strb	r3, [r1, #0]
 2004d8a:	2001      	movs	r0, #1
 2004d8c:	bc70      	pop	{r4, r5, r6}
 2004d8e:	bc02      	pop	{r1}
 2004d90:	4708      	bx	r1
 2004d92:	1c1d      	adds	r5, r3, #0
 2004d94:	355f      	adds	r5, #95	; 0x5f
 2004d96:	062d      	lsls	r5, r5, #24
 2004d98:	0e2d      	lsrs	r5, r5, #24
 2004d9a:	2d5d      	cmp	r5, #93	; 0x5d
 2004d9c:	d803      	bhi.n	2004da6 <__eucjp_wctomb+0x5a>
 2004d9e:	700a      	strb	r2, [r1, #0]
 2004da0:	704b      	strb	r3, [r1, #1]
 2004da2:	2002      	movs	r0, #2
 2004da4:	e7f2      	b.n	2004d8c <__eucjp_wctomb+0x40>
 2004da6:	2c00      	cmp	r4, #0
 2004da8:	d0e9      	beq.n	2004d7e <__eucjp_wctomb+0x32>
 2004daa:	2480      	movs	r4, #128	; 0x80
 2004dac:	4264      	negs	r4, r4
 2004dae:	4323      	orrs	r3, r4
 2004db0:	25be      	movs	r5, #190	; 0xbe
 2004db2:	061b      	lsls	r3, r3, #24
 2004db4:	05ed      	lsls	r5, r5, #23
 2004db6:	0e1c      	lsrs	r4, r3, #24
 2004db8:	195b      	adds	r3, r3, r5
 2004dba:	0e1b      	lsrs	r3, r3, #24
 2004dbc:	2b5d      	cmp	r3, #93	; 0x5d
 2004dbe:	d8de      	bhi.n	2004d7e <__eucjp_wctomb+0x32>
 2004dc0:	2371      	movs	r3, #113	; 0x71
 2004dc2:	425b      	negs	r3, r3
 2004dc4:	700b      	strb	r3, [r1, #0]
 2004dc6:	704a      	strb	r2, [r1, #1]
 2004dc8:	708c      	strb	r4, [r1, #2]
 2004dca:	2003      	movs	r0, #3
 2004dcc:	e7de      	b.n	2004d8c <__eucjp_wctomb+0x40>
 2004dce:	2000      	movs	r0, #0
 2004dd0:	e7dc      	b.n	2004d8c <__eucjp_wctomb+0x40>
 2004dd2:	46c0      	nop			; (mov r8, r8)

02004dd4 <__jis_wctomb>:
 2004dd4:	b530      	push	{r4, r5, lr}
 2004dd6:	9b03      	ldr	r3, [sp, #12]
 2004dd8:	2900      	cmp	r1, #0
 2004dda:	d038      	beq.n	2004e4e <__jis_wctomb+0x7a>
 2004ddc:	0614      	lsls	r4, r2, #24
 2004dde:	0412      	lsls	r2, r2, #16
 2004de0:	0e12      	lsrs	r2, r2, #24
 2004de2:	0e24      	lsrs	r4, r4, #24
 2004de4:	2a00      	cmp	r2, #0
 2004de6:	d01e      	beq.n	2004e26 <__jis_wctomb+0x52>
 2004de8:	1c15      	adds	r5, r2, #0
 2004dea:	3d21      	subs	r5, #33	; 0x21
 2004dec:	062d      	lsls	r5, r5, #24
 2004dee:	0e2d      	lsrs	r5, r5, #24
 2004df0:	2d5d      	cmp	r5, #93	; 0x5d
 2004df2:	d82e      	bhi.n	2004e52 <__jis_wctomb+0x7e>
 2004df4:	1c25      	adds	r5, r4, #0
 2004df6:	3d21      	subs	r5, #33	; 0x21
 2004df8:	062d      	lsls	r5, r5, #24
 2004dfa:	0e2d      	lsrs	r5, r5, #24
 2004dfc:	2d5d      	cmp	r5, #93	; 0x5d
 2004dfe:	d828      	bhi.n	2004e52 <__jis_wctomb+0x7e>
 2004e00:	6818      	ldr	r0, [r3, #0]
 2004e02:	2800      	cmp	r0, #0
 2004e04:	d121      	bne.n	2004e4a <__jis_wctomb+0x76>
 2004e06:	2001      	movs	r0, #1
 2004e08:	6018      	str	r0, [r3, #0]
 2004e0a:	231b      	movs	r3, #27
 2004e0c:	2024      	movs	r0, #36	; 0x24
 2004e0e:	700b      	strb	r3, [r1, #0]
 2004e10:	7048      	strb	r0, [r1, #1]
 2004e12:	1c4b      	adds	r3, r1, #1
 2004e14:	2142      	movs	r1, #66	; 0x42
 2004e16:	7059      	strb	r1, [r3, #1]
 2004e18:	2005      	movs	r0, #5
 2004e1a:	1c99      	adds	r1, r3, #2
 2004e1c:	700a      	strb	r2, [r1, #0]
 2004e1e:	704c      	strb	r4, [r1, #1]
 2004e20:	bc30      	pop	{r4, r5}
 2004e22:	bc02      	pop	{r1}
 2004e24:	4708      	bx	r1
 2004e26:	6818      	ldr	r0, [r3, #0]
 2004e28:	2800      	cmp	r0, #0
 2004e2a:	d102      	bne.n	2004e32 <__jis_wctomb+0x5e>
 2004e2c:	2001      	movs	r0, #1
 2004e2e:	700c      	strb	r4, [r1, #0]
 2004e30:	e7f6      	b.n	2004e20 <__jis_wctomb+0x4c>
 2004e32:	601a      	str	r2, [r3, #0]
 2004e34:	231b      	movs	r3, #27
 2004e36:	700b      	strb	r3, [r1, #0]
 2004e38:	2228      	movs	r2, #40	; 0x28
 2004e3a:	1c4b      	adds	r3, r1, #1
 2004e3c:	704a      	strb	r2, [r1, #1]
 2004e3e:	2242      	movs	r2, #66	; 0x42
 2004e40:	1c99      	adds	r1, r3, #2
 2004e42:	705a      	strb	r2, [r3, #1]
 2004e44:	2004      	movs	r0, #4
 2004e46:	700c      	strb	r4, [r1, #0]
 2004e48:	e7ea      	b.n	2004e20 <__jis_wctomb+0x4c>
 2004e4a:	2002      	movs	r0, #2
 2004e4c:	e7e6      	b.n	2004e1c <__jis_wctomb+0x48>
 2004e4e:	2001      	movs	r0, #1
 2004e50:	e7e6      	b.n	2004e20 <__jis_wctomb+0x4c>
 2004e52:	238a      	movs	r3, #138	; 0x8a
 2004e54:	6003      	str	r3, [r0, #0]
 2004e56:	2001      	movs	r0, #1
 2004e58:	4240      	negs	r0, r0
 2004e5a:	e7e1      	b.n	2004e20 <__jis_wctomb+0x4c>

02004e5c <_wctomb_r>:
 2004e5c:	b5f0      	push	{r4, r5, r6, r7, lr}
 2004e5e:	4647      	mov	r7, r8
 2004e60:	b480      	push	{r7}
 2004e62:	b082      	sub	sp, #8
 2004e64:	1c1e      	adds	r6, r3, #0
 2004e66:	4b0a      	ldr	r3, [pc, #40]	; (2004e90 <_wctomb_r+0x34>)
 2004e68:	681b      	ldr	r3, [r3, #0]
 2004e6a:	1c05      	adds	r5, r0, #0
 2004e6c:	4698      	mov	r8, r3
 2004e6e:	1c17      	adds	r7, r2, #0
 2004e70:	1c0c      	adds	r4, r1, #0
 2004e72:	f000 fefb 	bl	2005c6c <__locale_charset>
 2004e76:	9600      	str	r6, [sp, #0]
 2004e78:	1c03      	adds	r3, r0, #0
 2004e7a:	1c3a      	adds	r2, r7, #0
 2004e7c:	1c28      	adds	r0, r5, #0
 2004e7e:	1c21      	adds	r1, r4, #0
 2004e80:	f000 f808 	bl	2004e94 <_wctomb_r+0x38>
 2004e84:	b002      	add	sp, #8
 2004e86:	bc04      	pop	{r2}
 2004e88:	4690      	mov	r8, r2
 2004e8a:	bcf0      	pop	{r4, r5, r6, r7}
 2004e8c:	bc02      	pop	{r1}
 2004e8e:	4708      	bx	r1
 2004e90:	0200ed70 	.word	0x0200ed70
 2004e94:	4740      	bx	r8
 2004e96:	46c0      	nop			; (mov r8, r8)

02004e98 <__swsetup_r>:
 2004e98:	b570      	push	{r4, r5, r6, lr}
 2004e9a:	4b31      	ldr	r3, [pc, #196]	; (2004f60 <__swsetup_r+0xc8>)
 2004e9c:	1c05      	adds	r5, r0, #0
 2004e9e:	6818      	ldr	r0, [r3, #0]
 2004ea0:	1c0c      	adds	r4, r1, #0
 2004ea2:	2800      	cmp	r0, #0
 2004ea4:	d002      	beq.n	2004eac <__swsetup_r+0x14>
 2004ea6:	6b83      	ldr	r3, [r0, #56]	; 0x38
 2004ea8:	2b00      	cmp	r3, #0
 2004eaa:	d021      	beq.n	2004ef0 <__swsetup_r+0x58>
 2004eac:	89a2      	ldrh	r2, [r4, #12]
 2004eae:	0410      	lsls	r0, r2, #16
 2004eb0:	0c03      	lsrs	r3, r0, #16
 2004eb2:	1c11      	adds	r1, r2, #0
 2004eb4:	071e      	lsls	r6, r3, #28
 2004eb6:	d530      	bpl.n	2004f1a <__swsetup_r+0x82>
 2004eb8:	6922      	ldr	r2, [r4, #16]
 2004eba:	2a00      	cmp	r2, #0
 2004ebc:	d01e      	beq.n	2004efc <__swsetup_r+0x64>
 2004ebe:	07d9      	lsls	r1, r3, #31
 2004ec0:	d50a      	bpl.n	2004ed8 <__swsetup_r+0x40>
 2004ec2:	2300      	movs	r3, #0
 2004ec4:	60a3      	str	r3, [r4, #8]
 2004ec6:	6963      	ldr	r3, [r4, #20]
 2004ec8:	425b      	negs	r3, r3
 2004eca:	61a3      	str	r3, [r4, #24]
 2004ecc:	2a00      	cmp	r2, #0
 2004ece:	d009      	beq.n	2004ee4 <__swsetup_r+0x4c>
 2004ed0:	2000      	movs	r0, #0
 2004ed2:	bc70      	pop	{r4, r5, r6}
 2004ed4:	bc02      	pop	{r1}
 2004ed6:	4708      	bx	r1
 2004ed8:	079e      	lsls	r6, r3, #30
 2004eda:	d50c      	bpl.n	2004ef6 <__swsetup_r+0x5e>
 2004edc:	2300      	movs	r3, #0
 2004ede:	60a3      	str	r3, [r4, #8]
 2004ee0:	2a00      	cmp	r2, #0
 2004ee2:	d1f5      	bne.n	2004ed0 <__swsetup_r+0x38>
 2004ee4:	89a3      	ldrh	r3, [r4, #12]
 2004ee6:	0619      	lsls	r1, r3, #24
 2004ee8:	d5f2      	bpl.n	2004ed0 <__swsetup_r+0x38>
 2004eea:	2001      	movs	r0, #1
 2004eec:	4240      	negs	r0, r0
 2004eee:	e7f0      	b.n	2004ed2 <__swsetup_r+0x3a>
 2004ef0:	f000 f966 	bl	20051c0 <__sinit>
 2004ef4:	e7da      	b.n	2004eac <__swsetup_r+0x14>
 2004ef6:	6963      	ldr	r3, [r4, #20]
 2004ef8:	60a3      	str	r3, [r4, #8]
 2004efa:	e7f1      	b.n	2004ee0 <__swsetup_r+0x48>
 2004efc:	21a0      	movs	r1, #160	; 0xa0
 2004efe:	0089      	lsls	r1, r1, #2
 2004f00:	1c18      	adds	r0, r3, #0
 2004f02:	4008      	ands	r0, r1
 2004f04:	2180      	movs	r1, #128	; 0x80
 2004f06:	0089      	lsls	r1, r1, #2
 2004f08:	4288      	cmp	r0, r1
 2004f0a:	d0d8      	beq.n	2004ebe <__swsetup_r+0x26>
 2004f0c:	1c28      	adds	r0, r5, #0
 2004f0e:	1c21      	adds	r1, r4, #0
 2004f10:	f001 fa96 	bl	2006440 <__smakebuf_r>
 2004f14:	89a3      	ldrh	r3, [r4, #12]
 2004f16:	6922      	ldr	r2, [r4, #16]
 2004f18:	e7d1      	b.n	2004ebe <__swsetup_r+0x26>
 2004f1a:	06de      	lsls	r6, r3, #27
 2004f1c:	d5e5      	bpl.n	2004eea <__swsetup_r+0x52>
 2004f1e:	075e      	lsls	r6, r3, #29
 2004f20:	d406      	bmi.n	2004f30 <__swsetup_r+0x98>
 2004f22:	6922      	ldr	r2, [r4, #16]
 2004f24:	2308      	movs	r3, #8
 2004f26:	4319      	orrs	r1, r3
 2004f28:	040b      	lsls	r3, r1, #16
 2004f2a:	0c1b      	lsrs	r3, r3, #16
 2004f2c:	81a3      	strh	r3, [r4, #12]
 2004f2e:	e7c4      	b.n	2004eba <__swsetup_r+0x22>
 2004f30:	6b21      	ldr	r1, [r4, #48]	; 0x30
 2004f32:	2900      	cmp	r1, #0
 2004f34:	d00a      	beq.n	2004f4c <__swsetup_r+0xb4>
 2004f36:	1c23      	adds	r3, r4, #0
 2004f38:	3340      	adds	r3, #64	; 0x40
 2004f3a:	4299      	cmp	r1, r3
 2004f3c:	d003      	beq.n	2004f46 <__swsetup_r+0xae>
 2004f3e:	1c28      	adds	r0, r5, #0
 2004f40:	f000 faa6 	bl	2005490 <_free_r>
 2004f44:	89a2      	ldrh	r2, [r4, #12]
 2004f46:	2300      	movs	r3, #0
 2004f48:	6323      	str	r3, [r4, #48]	; 0x30
 2004f4a:	0410      	lsls	r0, r2, #16
 2004f4c:	4b05      	ldr	r3, [pc, #20]	; (2004f64 <__swsetup_r+0xcc>)
 2004f4e:	0c01      	lsrs	r1, r0, #16
 2004f50:	6922      	ldr	r2, [r4, #16]
 2004f52:	4019      	ands	r1, r3
 2004f54:	2300      	movs	r3, #0
 2004f56:	81a1      	strh	r1, [r4, #12]
 2004f58:	6063      	str	r3, [r4, #4]
 2004f5a:	6022      	str	r2, [r4, #0]
 2004f5c:	e7e2      	b.n	2004f24 <__swsetup_r+0x8c>
 2004f5e:	46c0      	nop			; (mov r8, r8)
 2004f60:	0200e940 	.word	0x0200e940
 2004f64:	0000ffdb 	.word	0x0000ffdb

02004f68 <__set_ctype>:
 2004f68:	4a01      	ldr	r2, [pc, #4]	; (2004f70 <__set_ctype+0x8>)
 2004f6a:	4b02      	ldr	r3, [pc, #8]	; (2004f74 <__set_ctype+0xc>)
 2004f6c:	601a      	str	r2, [r3, #0]
 2004f6e:	4770      	bx	lr
 2004f70:	0200aad4 	.word	0x0200aad4
 2004f74:	0200ed74 	.word	0x0200ed74

02004f78 <_fflush_r>:
 2004f78:	b5f8      	push	{r3, r4, r5, r6, r7, lr}
 2004f7a:	1c06      	adds	r6, r0, #0
 2004f7c:	1c0c      	adds	r4, r1, #0
 2004f7e:	2800      	cmp	r0, #0
 2004f80:	d003      	beq.n	2004f8a <_fflush_r+0x12>
 2004f82:	6b83      	ldr	r3, [r0, #56]	; 0x38
 2004f84:	2b00      	cmp	r3, #0
 2004f86:	d100      	bne.n	2004f8a <_fflush_r+0x12>
 2004f88:	e06c      	b.n	2005064 <_fflush_r+0xec>
 2004f8a:	89a3      	ldrh	r3, [r4, #12]
 2004f8c:	2b00      	cmp	r3, #0
 2004f8e:	d043      	beq.n	2005018 <_fflush_r+0xa0>
 2004f90:	041a      	lsls	r2, r3, #16
 2004f92:	1412      	asrs	r2, r2, #16
 2004f94:	0711      	lsls	r1, r2, #28
 2004f96:	d443      	bmi.n	2005020 <_fflush_r+0xa8>
 2004f98:	2280      	movs	r2, #128	; 0x80
 2004f9a:	0112      	lsls	r2, r2, #4
 2004f9c:	4313      	orrs	r3, r2
 2004f9e:	81a3      	strh	r3, [r4, #12]
 2004fa0:	6863      	ldr	r3, [r4, #4]
 2004fa2:	2b00      	cmp	r3, #0
 2004fa4:	dd35      	ble.n	2005012 <_fflush_r+0x9a>
 2004fa6:	6aa7      	ldr	r7, [r4, #40]	; 0x28
 2004fa8:	2f00      	cmp	r7, #0
 2004faa:	d035      	beq.n	2005018 <_fflush_r+0xa0>
 2004fac:	2300      	movs	r3, #0
 2004fae:	6835      	ldr	r5, [r6, #0]
 2004fb0:	6033      	str	r3, [r6, #0]
 2004fb2:	89a3      	ldrh	r3, [r4, #12]
 2004fb4:	04da      	lsls	r2, r3, #19
 2004fb6:	d55a      	bpl.n	200506e <_fflush_r+0xf6>
 2004fb8:	6d22      	ldr	r2, [r4, #80]	; 0x50
 2004fba:	0759      	lsls	r1, r3, #29
 2004fbc:	d506      	bpl.n	2004fcc <_fflush_r+0x54>
 2004fbe:	6863      	ldr	r3, [r4, #4]
 2004fc0:	1ad2      	subs	r2, r2, r3
 2004fc2:	6b23      	ldr	r3, [r4, #48]	; 0x30
 2004fc4:	2b00      	cmp	r3, #0
 2004fc6:	d001      	beq.n	2004fcc <_fflush_r+0x54>
 2004fc8:	6be3      	ldr	r3, [r4, #60]	; 0x3c
 2004fca:	1ad2      	subs	r2, r2, r3
 2004fcc:	69e1      	ldr	r1, [r4, #28]
 2004fce:	1c30      	adds	r0, r6, #0
 2004fd0:	2300      	movs	r3, #0
 2004fd2:	f000 f891 	bl	20050f8 <fflush+0x30>
 2004fd6:	1c42      	adds	r2, r0, #1
 2004fd8:	d055      	beq.n	2005086 <_fflush_r+0x10e>
 2004fda:	89a2      	ldrh	r2, [r4, #12]
 2004fdc:	4b39      	ldr	r3, [pc, #228]	; (20050c4 <_fflush_r+0x14c>)
 2004fde:	4013      	ands	r3, r2
 2004fe0:	2200      	movs	r2, #0
 2004fe2:	6062      	str	r2, [r4, #4]
 2004fe4:	6922      	ldr	r2, [r4, #16]
 2004fe6:	81a3      	strh	r3, [r4, #12]
 2004fe8:	6022      	str	r2, [r4, #0]
 2004fea:	04d9      	lsls	r1, r3, #19
 2004fec:	d502      	bpl.n	2004ff4 <_fflush_r+0x7c>
 2004fee:	1c42      	adds	r2, r0, #1
 2004ff0:	d055      	beq.n	200509e <_fflush_r+0x126>
 2004ff2:	6520      	str	r0, [r4, #80]	; 0x50
 2004ff4:	6b21      	ldr	r1, [r4, #48]	; 0x30
 2004ff6:	6035      	str	r5, [r6, #0]
 2004ff8:	2900      	cmp	r1, #0
 2004ffa:	d00d      	beq.n	2005018 <_fflush_r+0xa0>
 2004ffc:	1c23      	adds	r3, r4, #0
 2004ffe:	3340      	adds	r3, #64	; 0x40
 2005000:	4299      	cmp	r1, r3
 2005002:	d002      	beq.n	200500a <_fflush_r+0x92>
 2005004:	1c30      	adds	r0, r6, #0
 2005006:	f000 fa43 	bl	2005490 <_free_r>
 200500a:	2300      	movs	r3, #0
 200500c:	6323      	str	r3, [r4, #48]	; 0x30
 200500e:	2000      	movs	r0, #0
 2005010:	e003      	b.n	200501a <_fflush_r+0xa2>
 2005012:	6be3      	ldr	r3, [r4, #60]	; 0x3c
 2005014:	2b00      	cmp	r3, #0
 2005016:	dcc6      	bgt.n	2004fa6 <_fflush_r+0x2e>
 2005018:	2000      	movs	r0, #0
 200501a:	bcf8      	pop	{r3, r4, r5, r6, r7}
 200501c:	bc02      	pop	{r1}
 200501e:	4708      	bx	r1
 2005020:	6927      	ldr	r7, [r4, #16]
 2005022:	2f00      	cmp	r7, #0
 2005024:	d0f8      	beq.n	2005018 <_fflush_r+0xa0>
 2005026:	6825      	ldr	r5, [r4, #0]
 2005028:	6027      	str	r7, [r4, #0]
 200502a:	1bed      	subs	r5, r5, r7
 200502c:	0793      	lsls	r3, r2, #30
 200502e:	d01c      	beq.n	200506a <_fflush_r+0xf2>
 2005030:	2300      	movs	r3, #0
 2005032:	60a3      	str	r3, [r4, #8]
 2005034:	2d00      	cmp	r5, #0
 2005036:	dc04      	bgt.n	2005042 <_fflush_r+0xca>
 2005038:	e7ee      	b.n	2005018 <_fflush_r+0xa0>
 200503a:	1a2d      	subs	r5, r5, r0
 200503c:	2d00      	cmp	r5, #0
 200503e:	ddeb      	ble.n	2005018 <_fflush_r+0xa0>
 2005040:	183f      	adds	r7, r7, r0
 2005042:	6a62      	ldr	r2, [r4, #36]	; 0x24
 2005044:	69e1      	ldr	r1, [r4, #28]
 2005046:	4694      	mov	ip, r2
 2005048:	1c30      	adds	r0, r6, #0
 200504a:	1c3a      	adds	r2, r7, #0
 200504c:	1c2b      	adds	r3, r5, #0
 200504e:	f000 f854 	bl	20050fa <fflush+0x32>
 2005052:	2800      	cmp	r0, #0
 2005054:	dcf1      	bgt.n	200503a <_fflush_r+0xc2>
 2005056:	89a2      	ldrh	r2, [r4, #12]
 2005058:	2340      	movs	r3, #64	; 0x40
 200505a:	4313      	orrs	r3, r2
 200505c:	2001      	movs	r0, #1
 200505e:	81a3      	strh	r3, [r4, #12]
 2005060:	4240      	negs	r0, r0
 2005062:	e7da      	b.n	200501a <_fflush_r+0xa2>
 2005064:	f000 f8ac 	bl	20051c0 <__sinit>
 2005068:	e78f      	b.n	2004f8a <_fflush_r+0x12>
 200506a:	6963      	ldr	r3, [r4, #20]
 200506c:	e7e1      	b.n	2005032 <_fflush_r+0xba>
 200506e:	2200      	movs	r2, #0
 2005070:	69e1      	ldr	r1, [r4, #28]
 2005072:	1c30      	adds	r0, r6, #0
 2005074:	2301      	movs	r3, #1
 2005076:	f000 f83f 	bl	20050f8 <fflush+0x30>
 200507a:	1c02      	adds	r2, r0, #0
 200507c:	1c43      	adds	r3, r0, #1
 200507e:	d012      	beq.n	20050a6 <_fflush_r+0x12e>
 2005080:	89a3      	ldrh	r3, [r4, #12]
 2005082:	6aa7      	ldr	r7, [r4, #40]	; 0x28
 2005084:	e799      	b.n	2004fba <_fflush_r+0x42>
 2005086:	6833      	ldr	r3, [r6, #0]
 2005088:	2b00      	cmp	r3, #0
 200508a:	d0a6      	beq.n	2004fda <_fflush_r+0x62>
 200508c:	2b1d      	cmp	r3, #29
 200508e:	d0a4      	beq.n	2004fda <_fflush_r+0x62>
 2005090:	2b16      	cmp	r3, #22
 2005092:	d0a2      	beq.n	2004fda <_fflush_r+0x62>
 2005094:	89a2      	ldrh	r2, [r4, #12]
 2005096:	2340      	movs	r3, #64	; 0x40
 2005098:	4313      	orrs	r3, r2
 200509a:	81a3      	strh	r3, [r4, #12]
 200509c:	e7bd      	b.n	200501a <_fflush_r+0xa2>
 200509e:	6833      	ldr	r3, [r6, #0]
 20050a0:	2b00      	cmp	r3, #0
 20050a2:	d1a7      	bne.n	2004ff4 <_fflush_r+0x7c>
 20050a4:	e7a5      	b.n	2004ff2 <_fflush_r+0x7a>
 20050a6:	6833      	ldr	r3, [r6, #0]
 20050a8:	2b00      	cmp	r3, #0
 20050aa:	d0e9      	beq.n	2005080 <_fflush_r+0x108>
 20050ac:	2b16      	cmp	r3, #22
 20050ae:	d006      	beq.n	20050be <_fflush_r+0x146>
 20050b0:	2b1d      	cmp	r3, #29
 20050b2:	d004      	beq.n	20050be <_fflush_r+0x146>
 20050b4:	89a1      	ldrh	r1, [r4, #12]
 20050b6:	2340      	movs	r3, #64	; 0x40
 20050b8:	430b      	orrs	r3, r1
 20050ba:	81a3      	strh	r3, [r4, #12]
 20050bc:	e7ad      	b.n	200501a <_fflush_r+0xa2>
 20050be:	6035      	str	r5, [r6, #0]
 20050c0:	2000      	movs	r0, #0
 20050c2:	e7aa      	b.n	200501a <_fflush_r+0xa2>
 20050c4:	0000f7ff 	.word	0x0000f7ff

020050c8 <fflush>:
 20050c8:	b510      	push	{r4, lr}
 20050ca:	1c01      	adds	r1, r0, #0
 20050cc:	2800      	cmp	r0, #0
 20050ce:	d006      	beq.n	20050de <fflush+0x16>
 20050d0:	4b06      	ldr	r3, [pc, #24]	; (20050ec <fflush+0x24>)
 20050d2:	6818      	ldr	r0, [r3, #0]
 20050d4:	f7ff ff50 	bl	2004f78 <_fflush_r>
 20050d8:	bc10      	pop	{r4}
 20050da:	bc02      	pop	{r1}
 20050dc:	4708      	bx	r1
 20050de:	4b04      	ldr	r3, [pc, #16]	; (20050f0 <fflush+0x28>)
 20050e0:	4904      	ldr	r1, [pc, #16]	; (20050f4 <fflush+0x2c>)
 20050e2:	6818      	ldr	r0, [r3, #0]
 20050e4:	f000 fc36 	bl	2005954 <_fwalk_reent>
 20050e8:	e7f6      	b.n	20050d8 <fflush+0x10>
 20050ea:	46c0      	nop			; (mov r8, r8)
 20050ec:	0200e940 	.word	0x0200e940
 20050f0:	0200a60c 	.word	0x0200a60c
 20050f4:	02004f79 	.word	0x02004f79
 20050f8:	4738      	bx	r7
 20050fa:	4760      	bx	ip

020050fc <__sfp_lock_acquire>:
 20050fc:	4770      	bx	lr
 20050fe:	46c0      	nop			; (mov r8, r8)

02005100 <__sfp_lock_release>:
 2005100:	4770      	bx	lr
 2005102:	46c0      	nop			; (mov r8, r8)

02005104 <__sinit_lock_acquire>:
 2005104:	4770      	bx	lr
 2005106:	46c0      	nop			; (mov r8, r8)

02005108 <__sinit_lock_release>:
 2005108:	4770      	bx	lr
 200510a:	46c0      	nop			; (mov r8, r8)

0200510c <__fp_lock>:
 200510c:	2000      	movs	r0, #0
 200510e:	4770      	bx	lr

02005110 <__fp_unlock>:
 2005110:	2000      	movs	r0, #0
 2005112:	4770      	bx	lr

02005114 <__fp_unlock_all>:
 2005114:	b510      	push	{r4, lr}
 2005116:	4b04      	ldr	r3, [pc, #16]	; (2005128 <__fp_unlock_all+0x14>)
 2005118:	4904      	ldr	r1, [pc, #16]	; (200512c <__fp_unlock_all+0x18>)
 200511a:	6818      	ldr	r0, [r3, #0]
 200511c:	f000 fc4c 	bl	20059b8 <_fwalk>
 2005120:	bc10      	pop	{r4}
 2005122:	bc01      	pop	{r0}
 2005124:	4700      	bx	r0
 2005126:	46c0      	nop			; (mov r8, r8)
 2005128:	0200e940 	.word	0x0200e940
 200512c:	02005111 	.word	0x02005111

02005130 <__fp_lock_all>:
 2005130:	b510      	push	{r4, lr}
 2005132:	4b04      	ldr	r3, [pc, #16]	; (2005144 <__fp_lock_all+0x14>)
 2005134:	4904      	ldr	r1, [pc, #16]	; (2005148 <__fp_lock_all+0x18>)
 2005136:	6818      	ldr	r0, [r3, #0]
 2005138:	f000 fc3e 	bl	20059b8 <_fwalk>
 200513c:	bc10      	pop	{r4}
 200513e:	bc01      	pop	{r0}
 2005140:	4700      	bx	r0
 2005142:	46c0      	nop			; (mov r8, r8)
 2005144:	0200e940 	.word	0x0200e940
 2005148:	0200510d 	.word	0x0200510d

0200514c <_cleanup_r>:
 200514c:	b510      	push	{r4, lr}
 200514e:	4903      	ldr	r1, [pc, #12]	; (200515c <_cleanup_r+0x10>)
 2005150:	f000 fc32 	bl	20059b8 <_fwalk>
 2005154:	bc10      	pop	{r4}
 2005156:	bc01      	pop	{r0}
 2005158:	4700      	bx	r0
 200515a:	46c0      	nop			; (mov r8, r8)
 200515c:	02007e59 	.word	0x02007e59

02005160 <_cleanup>:
 2005160:	b510      	push	{r4, lr}
 2005162:	4b03      	ldr	r3, [pc, #12]	; (2005170 <_cleanup+0x10>)
 2005164:	6818      	ldr	r0, [r3, #0]
 2005166:	f7ff fff1 	bl	200514c <_cleanup_r>
 200516a:	bc10      	pop	{r4}
 200516c:	bc01      	pop	{r0}
 200516e:	4700      	bx	r0
 2005170:	0200a60c 	.word	0x0200a60c

02005174 <std>:
 2005174:	b510      	push	{r4, lr}
 2005176:	2300      	movs	r3, #0
 2005178:	1c04      	adds	r4, r0, #0
 200517a:	6003      	str	r3, [r0, #0]
 200517c:	6043      	str	r3, [r0, #4]
 200517e:	6083      	str	r3, [r0, #8]
 2005180:	8181      	strh	r1, [r0, #12]
 2005182:	6643      	str	r3, [r0, #100]	; 0x64
 2005184:	81c2      	strh	r2, [r0, #14]
 2005186:	6103      	str	r3, [r0, #16]
 2005188:	6143      	str	r3, [r0, #20]
 200518a:	6183      	str	r3, [r0, #24]
 200518c:	2100      	movs	r1, #0
 200518e:	2208      	movs	r2, #8
 2005190:	305c      	adds	r0, #92	; 0x5c
 2005192:	f7fd fddb 	bl	2002d4c <memset>
 2005196:	4b06      	ldr	r3, [pc, #24]	; (20051b0 <std+0x3c>)
 2005198:	6223      	str	r3, [r4, #32]
 200519a:	4b06      	ldr	r3, [pc, #24]	; (20051b4 <std+0x40>)
 200519c:	6263      	str	r3, [r4, #36]	; 0x24
 200519e:	4b06      	ldr	r3, [pc, #24]	; (20051b8 <std+0x44>)
 20051a0:	62a3      	str	r3, [r4, #40]	; 0x28
 20051a2:	4b06      	ldr	r3, [pc, #24]	; (20051bc <std+0x48>)
 20051a4:	61e4      	str	r4, [r4, #28]
 20051a6:	62e3      	str	r3, [r4, #44]	; 0x2c
 20051a8:	bc10      	pop	{r4}
 20051aa:	bc01      	pop	{r0}
 20051ac:	4700      	bx	r0
 20051ae:	46c0      	nop			; (mov r8, r8)
 20051b0:	0200300d 	.word	0x0200300d
 20051b4:	02002fd1 	.word	0x02002fd1
 20051b8:	02002fa1 	.word	0x02002fa1
 20051bc:	02002f91 	.word	0x02002f91

020051c0 <__sinit>:
 20051c0:	b510      	push	{r4, lr}
 20051c2:	6b83      	ldr	r3, [r0, #56]	; 0x38
 20051c4:	1c04      	adds	r4, r0, #0
 20051c6:	2b00      	cmp	r3, #0
 20051c8:	d122      	bne.n	2005210 <__sinit+0x50>
 20051ca:	4a13      	ldr	r2, [pc, #76]	; (2005218 <__sinit+0x58>)
 20051cc:	63c2      	str	r2, [r0, #60]	; 0x3c
 20051ce:	2201      	movs	r2, #1
 20051d0:	6382      	str	r2, [r0, #56]	; 0x38
 20051d2:	22b8      	movs	r2, #184	; 0xb8
 20051d4:	0092      	lsls	r2, r2, #2
 20051d6:	5083      	str	r3, [r0, r2]
 20051d8:	23b9      	movs	r3, #185	; 0xb9
 20051da:	009b      	lsls	r3, r3, #2
 20051dc:	2203      	movs	r2, #3
 20051de:	21bb      	movs	r1, #187	; 0xbb
 20051e0:	50c2      	str	r2, [r0, r3]
 20051e2:	0089      	lsls	r1, r1, #2
 20051e4:	23ba      	movs	r3, #186	; 0xba
 20051e6:	1842      	adds	r2, r0, r1
 20051e8:	009b      	lsls	r3, r3, #2
 20051ea:	50c2      	str	r2, [r0, r3]
 20051ec:	2104      	movs	r1, #4
 20051ee:	6840      	ldr	r0, [r0, #4]
 20051f0:	2200      	movs	r2, #0
 20051f2:	1c23      	adds	r3, r4, #0
 20051f4:	f7ff ffbe 	bl	2005174 <std>
 20051f8:	68a0      	ldr	r0, [r4, #8]
 20051fa:	2109      	movs	r1, #9
 20051fc:	2201      	movs	r2, #1
 20051fe:	1c23      	adds	r3, r4, #0
 2005200:	f7ff ffb8 	bl	2005174 <std>
 2005204:	68e0      	ldr	r0, [r4, #12]
 2005206:	2112      	movs	r1, #18
 2005208:	2202      	movs	r2, #2
 200520a:	1c23      	adds	r3, r4, #0
 200520c:	f7ff ffb2 	bl	2005174 <std>
 2005210:	bc10      	pop	{r4}
 2005212:	bc01      	pop	{r0}
 2005214:	4700      	bx	r0
 2005216:	46c0      	nop			; (mov r8, r8)
 2005218:	0200514d 	.word	0x0200514d

0200521c <__sfmoreglue>:
 200521c:	b570      	push	{r4, r5, r6, lr}
 200521e:	2368      	movs	r3, #104	; 0x68
 2005220:	1c1d      	adds	r5, r3, #0
 2005222:	434d      	muls	r5, r1
 2005224:	1c0e      	adds	r6, r1, #0
 2005226:	1c29      	adds	r1, r5, #0
 2005228:	310c      	adds	r1, #12
 200522a:	f001 f995 	bl	2006558 <_malloc_r>
 200522e:	1c04      	adds	r4, r0, #0
 2005230:	2800      	cmp	r0, #0
 2005232:	d008      	beq.n	2005246 <__sfmoreglue+0x2a>
 2005234:	300c      	adds	r0, #12
 2005236:	2300      	movs	r3, #0
 2005238:	6023      	str	r3, [r4, #0]
 200523a:	6066      	str	r6, [r4, #4]
 200523c:	60a0      	str	r0, [r4, #8]
 200523e:	2100      	movs	r1, #0
 2005240:	1c2a      	adds	r2, r5, #0
 2005242:	f7fd fd83 	bl	2002d4c <memset>
 2005246:	1c20      	adds	r0, r4, #0
 2005248:	bc70      	pop	{r4, r5, r6}
 200524a:	bc02      	pop	{r1}
 200524c:	4708      	bx	r1
 200524e:	46c0      	nop			; (mov r8, r8)

02005250 <__sfp>:
 2005250:	b570      	push	{r4, r5, r6, lr}
 2005252:	4b22      	ldr	r3, [pc, #136]	; (20052dc <__sfp+0x8c>)
 2005254:	681d      	ldr	r5, [r3, #0]
 2005256:	6bab      	ldr	r3, [r5, #56]	; 0x38
 2005258:	1c06      	adds	r6, r0, #0
 200525a:	2b00      	cmp	r3, #0
 200525c:	d02e      	beq.n	20052bc <__sfp+0x6c>
 200525e:	21b8      	movs	r1, #184	; 0xb8
 2005260:	0089      	lsls	r1, r1, #2
 2005262:	186d      	adds	r5, r5, r1
 2005264:	686b      	ldr	r3, [r5, #4]
 2005266:	68ac      	ldr	r4, [r5, #8]
 2005268:	3b01      	subs	r3, #1
 200526a:	d503      	bpl.n	2005274 <__sfp+0x24>
 200526c:	e021      	b.n	20052b2 <__sfp+0x62>
 200526e:	3b01      	subs	r3, #1
 2005270:	d41f      	bmi.n	20052b2 <__sfp+0x62>
 2005272:	3468      	adds	r4, #104	; 0x68
 2005274:	210c      	movs	r1, #12
 2005276:	5e62      	ldrsh	r2, [r4, r1]
 2005278:	2a00      	cmp	r2, #0
 200527a:	d1f8      	bne.n	200526e <__sfp+0x1e>
 200527c:	2301      	movs	r3, #1
 200527e:	425b      	negs	r3, r3
 2005280:	2500      	movs	r5, #0
 2005282:	81e3      	strh	r3, [r4, #14]
 2005284:	1c20      	adds	r0, r4, #0
 2005286:	2301      	movs	r3, #1
 2005288:	81a3      	strh	r3, [r4, #12]
 200528a:	6665      	str	r5, [r4, #100]	; 0x64
 200528c:	6025      	str	r5, [r4, #0]
 200528e:	60a5      	str	r5, [r4, #8]
 2005290:	6065      	str	r5, [r4, #4]
 2005292:	6125      	str	r5, [r4, #16]
 2005294:	6165      	str	r5, [r4, #20]
 2005296:	61a5      	str	r5, [r4, #24]
 2005298:	305c      	adds	r0, #92	; 0x5c
 200529a:	2100      	movs	r1, #0
 200529c:	2208      	movs	r2, #8
 200529e:	f7fd fd55 	bl	2002d4c <memset>
 20052a2:	6325      	str	r5, [r4, #48]	; 0x30
 20052a4:	6365      	str	r5, [r4, #52]	; 0x34
 20052a6:	6465      	str	r5, [r4, #68]	; 0x44
 20052a8:	64a5      	str	r5, [r4, #72]	; 0x48
 20052aa:	1c20      	adds	r0, r4, #0
 20052ac:	bc70      	pop	{r4, r5, r6}
 20052ae:	bc02      	pop	{r1}
 20052b0:	4708      	bx	r1
 20052b2:	6828      	ldr	r0, [r5, #0]
 20052b4:	2800      	cmp	r0, #0
 20052b6:	d005      	beq.n	20052c4 <__sfp+0x74>
 20052b8:	1c05      	adds	r5, r0, #0
 20052ba:	e7d3      	b.n	2005264 <__sfp+0x14>
 20052bc:	1c28      	adds	r0, r5, #0
 20052be:	f7ff ff7f 	bl	20051c0 <__sinit>
 20052c2:	e7cc      	b.n	200525e <__sfp+0xe>
 20052c4:	1c30      	adds	r0, r6, #0
 20052c6:	2104      	movs	r1, #4
 20052c8:	f7ff ffa8 	bl	200521c <__sfmoreglue>
 20052cc:	6028      	str	r0, [r5, #0]
 20052ce:	2800      	cmp	r0, #0
 20052d0:	d1f2      	bne.n	20052b8 <__sfp+0x68>
 20052d2:	230c      	movs	r3, #12
 20052d4:	6033      	str	r3, [r6, #0]
 20052d6:	2400      	movs	r4, #0
 20052d8:	e7e7      	b.n	20052aa <__sfp+0x5a>
 20052da:	46c0      	nop			; (mov r8, r8)
 20052dc:	0200a60c 	.word	0x0200a60c

020052e0 <_fputwc_r>:
 20052e0:	b5f0      	push	{r4, r5, r6, r7, lr}
 20052e2:	4657      	mov	r7, sl
 20052e4:	4646      	mov	r6, r8
 20052e6:	b4c0      	push	{r6, r7}
 20052e8:	b083      	sub	sp, #12
 20052ea:	1c14      	adds	r4, r2, #0
 20052ec:	2380      	movs	r3, #128	; 0x80
 20052ee:	8992      	ldrh	r2, [r2, #12]
 20052f0:	019b      	lsls	r3, r3, #6
 20052f2:	4682      	mov	sl, r0
 20052f4:	4688      	mov	r8, r1
 20052f6:	421a      	tst	r2, r3
 20052f8:	d104      	bne.n	2005304 <_fputwc_r+0x24>
 20052fa:	431a      	orrs	r2, r3
 20052fc:	81a2      	strh	r2, [r4, #12]
 20052fe:	6e62      	ldr	r2, [r4, #100]	; 0x64
 2005300:	4313      	orrs	r3, r2
 2005302:	6663      	str	r3, [r4, #100]	; 0x64
 2005304:	4643      	mov	r3, r8
 2005306:	2b00      	cmp	r3, #0
 2005308:	d003      	beq.n	2005312 <_fputwc_r+0x32>
 200530a:	4b2c      	ldr	r3, [pc, #176]	; (20053bc <_fputwc_r+0xdc>)
 200530c:	681b      	ldr	r3, [r3, #0]
 200530e:	2b01      	cmp	r3, #1
 2005310:	d034      	beq.n	200537c <_fputwc_r+0x9c>
 2005312:	1c23      	adds	r3, r4, #0
 2005314:	335c      	adds	r3, #92	; 0x5c
 2005316:	4650      	mov	r0, sl
 2005318:	4669      	mov	r1, sp
 200531a:	4642      	mov	r2, r8
 200531c:	f7ff fc16 	bl	2004b4c <_wcrtomb_r>
 2005320:	466e      	mov	r6, sp
 2005322:	1c07      	adds	r7, r0, #0
 2005324:	1c43      	adds	r3, r0, #1
 2005326:	d030      	beq.n	200538a <_fputwc_r+0xaa>
 2005328:	2800      	cmp	r0, #0
 200532a:	d033      	beq.n	2005394 <_fputwc_r+0xb4>
 200532c:	2500      	movs	r5, #0
 200532e:	e008      	b.n	2005342 <_fputwc_r+0x62>
 2005330:	6823      	ldr	r3, [r4, #0]
 2005332:	5d72      	ldrb	r2, [r6, r5]
 2005334:	701a      	strb	r2, [r3, #0]
 2005336:	6823      	ldr	r3, [r4, #0]
 2005338:	3301      	adds	r3, #1
 200533a:	6023      	str	r3, [r4, #0]
 200533c:	3501      	adds	r5, #1
 200533e:	42bd      	cmp	r5, r7
 2005340:	d228      	bcs.n	2005394 <_fputwc_r+0xb4>
 2005342:	68a3      	ldr	r3, [r4, #8]
 2005344:	3b01      	subs	r3, #1
 2005346:	60a3      	str	r3, [r4, #8]
 2005348:	2b00      	cmp	r3, #0
 200534a:	daf1      	bge.n	2005330 <_fputwc_r+0x50>
 200534c:	69a2      	ldr	r2, [r4, #24]
 200534e:	4293      	cmp	r3, r2
 2005350:	db22      	blt.n	2005398 <_fputwc_r+0xb8>
 2005352:	6823      	ldr	r3, [r4, #0]
 2005354:	5d72      	ldrb	r2, [r6, r5]
 2005356:	701a      	strb	r2, [r3, #0]
 2005358:	6823      	ldr	r3, [r4, #0]
 200535a:	781a      	ldrb	r2, [r3, #0]
 200535c:	2a0a      	cmp	r2, #10
 200535e:	d024      	beq.n	20053aa <_fputwc_r+0xca>
 2005360:	3301      	adds	r3, #1
 2005362:	6023      	str	r3, [r4, #0]
 2005364:	2200      	movs	r2, #0
 2005366:	2a00      	cmp	r2, #0
 2005368:	d0e8      	beq.n	200533c <_fputwc_r+0x5c>
 200536a:	2001      	movs	r0, #1
 200536c:	4240      	negs	r0, r0
 200536e:	b003      	add	sp, #12
 2005370:	bc0c      	pop	{r2, r3}
 2005372:	4690      	mov	r8, r2
 2005374:	469a      	mov	sl, r3
 2005376:	bcf0      	pop	{r4, r5, r6, r7}
 2005378:	bc02      	pop	{r1}
 200537a:	4708      	bx	r1
 200537c:	4643      	mov	r3, r8
 200537e:	2bff      	cmp	r3, #255	; 0xff
 2005380:	d8c7      	bhi.n	2005312 <_fputwc_r+0x32>
 2005382:	466e      	mov	r6, sp
 2005384:	7033      	strb	r3, [r6, #0]
 2005386:	2701      	movs	r7, #1
 2005388:	e7d0      	b.n	200532c <_fputwc_r+0x4c>
 200538a:	89a2      	ldrh	r2, [r4, #12]
 200538c:	2340      	movs	r3, #64	; 0x40
 200538e:	4313      	orrs	r3, r2
 2005390:	81a3      	strh	r3, [r4, #12]
 2005392:	e7ec      	b.n	200536e <_fputwc_r+0x8e>
 2005394:	4640      	mov	r0, r8
 2005396:	e7ea      	b.n	200536e <_fputwc_r+0x8e>
 2005398:	1c22      	adds	r2, r4, #0
 200539a:	5d71      	ldrb	r1, [r6, r5]
 200539c:	4650      	mov	r0, sl
 200539e:	f002 fbf9 	bl	2007b94 <__swbuf_r>
 20053a2:	3001      	adds	r0, #1
 20053a4:	4242      	negs	r2, r0
 20053a6:	4142      	adcs	r2, r0
 20053a8:	e7dd      	b.n	2005366 <_fputwc_r+0x86>
 20053aa:	1c22      	adds	r2, r4, #0
 20053ac:	4650      	mov	r0, sl
 20053ae:	210a      	movs	r1, #10
 20053b0:	f002 fbf0 	bl	2007b94 <__swbuf_r>
 20053b4:	3001      	adds	r0, #1
 20053b6:	4242      	negs	r2, r0
 20053b8:	4142      	adcs	r2, r0
 20053ba:	e7d4      	b.n	2005366 <_fputwc_r+0x86>
 20053bc:	0200edd8 	.word	0x0200edd8

020053c0 <fputwc>:
 20053c0:	b570      	push	{r4, r5, r6, lr}
 20053c2:	4c09      	ldr	r4, [pc, #36]	; (20053e8 <fputwc+0x28>)
 20053c4:	1c06      	adds	r6, r0, #0
 20053c6:	6820      	ldr	r0, [r4, #0]
 20053c8:	1c0d      	adds	r5, r1, #0
 20053ca:	2800      	cmp	r0, #0
 20053cc:	d005      	beq.n	20053da <fputwc+0x1a>
 20053ce:	6b83      	ldr	r3, [r0, #56]	; 0x38
 20053d0:	2b00      	cmp	r3, #0
 20053d2:	d102      	bne.n	20053da <fputwc+0x1a>
 20053d4:	f7ff fef4 	bl	20051c0 <__sinit>
 20053d8:	6820      	ldr	r0, [r4, #0]
 20053da:	1c31      	adds	r1, r6, #0
 20053dc:	1c2a      	adds	r2, r5, #0
 20053de:	f7ff ff7f 	bl	20052e0 <_fputwc_r>
 20053e2:	bc70      	pop	{r4, r5, r6}
 20053e4:	bc02      	pop	{r1}
 20053e6:	4708      	bx	r1
 20053e8:	0200e940 	.word	0x0200e940

020053ec <_malloc_trim_r>:
 20053ec:	b5f8      	push	{r3, r4, r5, r6, r7, lr}
 20053ee:	1c0f      	adds	r7, r1, #0
 20053f0:	1c04      	adds	r4, r0, #0
 20053f2:	f001 feb5 	bl	2007160 <__malloc_lock>
 20053f6:	4d21      	ldr	r5, [pc, #132]	; (200547c <_malloc_trim_r+0x90>)
 20053f8:	68ab      	ldr	r3, [r5, #8]
 20053fa:	685e      	ldr	r6, [r3, #4]
 20053fc:	4a20      	ldr	r2, [pc, #128]	; (2005480 <_malloc_trim_r+0x94>)
 20053fe:	2303      	movs	r3, #3
 2005400:	439e      	bics	r6, r3
 2005402:	18b3      	adds	r3, r6, r2
 2005404:	1bdf      	subs	r7, r3, r7
 2005406:	0b3f      	lsrs	r7, r7, #12
 2005408:	3f01      	subs	r7, #1
 200540a:	4b1e      	ldr	r3, [pc, #120]	; (2005484 <_malloc_trim_r+0x98>)
 200540c:	033f      	lsls	r7, r7, #12
 200540e:	429f      	cmp	r7, r3
 2005410:	dd07      	ble.n	2005422 <_malloc_trim_r+0x36>
 2005412:	1c20      	adds	r0, r4, #0
 2005414:	2100      	movs	r1, #0
 2005416:	f002 fecb 	bl	20081b0 <_sbrk_r>
 200541a:	68ab      	ldr	r3, [r5, #8]
 200541c:	199b      	adds	r3, r3, r6
 200541e:	4298      	cmp	r0, r3
 2005420:	d006      	beq.n	2005430 <_malloc_trim_r+0x44>
 2005422:	1c20      	adds	r0, r4, #0
 2005424:	f001 fe9e 	bl	2007164 <__malloc_unlock>
 2005428:	2000      	movs	r0, #0
 200542a:	bcf8      	pop	{r3, r4, r5, r6, r7}
 200542c:	bc02      	pop	{r1}
 200542e:	4708      	bx	r1
 2005430:	4279      	negs	r1, r7
 2005432:	1c20      	adds	r0, r4, #0
 2005434:	f002 febc 	bl	20081b0 <_sbrk_r>
 2005438:	3001      	adds	r0, #1
 200543a:	d00d      	beq.n	2005458 <_malloc_trim_r+0x6c>
 200543c:	68ab      	ldr	r3, [r5, #8]
 200543e:	1bf6      	subs	r6, r6, r7
 2005440:	2201      	movs	r2, #1
 2005442:	4316      	orrs	r6, r2
 2005444:	605e      	str	r6, [r3, #4]
 2005446:	4b10      	ldr	r3, [pc, #64]	; (2005488 <_malloc_trim_r+0x9c>)
 2005448:	681a      	ldr	r2, [r3, #0]
 200544a:	1bd7      	subs	r7, r2, r7
 200544c:	1c20      	adds	r0, r4, #0
 200544e:	601f      	str	r7, [r3, #0]
 2005450:	f001 fe88 	bl	2007164 <__malloc_unlock>
 2005454:	2001      	movs	r0, #1
 2005456:	e7e8      	b.n	200542a <_malloc_trim_r+0x3e>
 2005458:	1c20      	adds	r0, r4, #0
 200545a:	2100      	movs	r1, #0
 200545c:	f002 fea8 	bl	20081b0 <_sbrk_r>
 2005460:	68ab      	ldr	r3, [r5, #8]
 2005462:	1ac2      	subs	r2, r0, r3
 2005464:	2a0f      	cmp	r2, #15
 2005466:	dddc      	ble.n	2005422 <_malloc_trim_r+0x36>
 2005468:	4908      	ldr	r1, [pc, #32]	; (200548c <_malloc_trim_r+0xa0>)
 200546a:	6809      	ldr	r1, [r1, #0]
 200546c:	1a40      	subs	r0, r0, r1
 200546e:	4906      	ldr	r1, [pc, #24]	; (2005488 <_malloc_trim_r+0x9c>)
 2005470:	6008      	str	r0, [r1, #0]
 2005472:	2101      	movs	r1, #1
 2005474:	430a      	orrs	r2, r1
 2005476:	605a      	str	r2, [r3, #4]
 2005478:	e7d3      	b.n	2005422 <_malloc_trim_r+0x36>
 200547a:	46c0      	nop			; (mov r8, r8)
 200547c:	0200eebc 	.word	0x0200eebc
 2005480:	00000fef 	.word	0x00000fef
 2005484:	00000fff 	.word	0x00000fff
 2005488:	0200f604 	.word	0x0200f604
 200548c:	0200f2c4 	.word	0x0200f2c4

02005490 <_free_r>:
 2005490:	b5f8      	push	{r3, r4, r5, r6, r7, lr}
 2005492:	4657      	mov	r7, sl
 2005494:	4646      	mov	r6, r8
 2005496:	b4c0      	push	{r6, r7}
 2005498:	1c05      	adds	r5, r0, #0
 200549a:	1c0c      	adds	r4, r1, #0
 200549c:	2900      	cmp	r1, #0
 200549e:	d05b      	beq.n	2005558 <_free_r+0xc8>
 20054a0:	3c08      	subs	r4, #8
 20054a2:	f001 fe5d 	bl	2007160 <__malloc_lock>
 20054a6:	6867      	ldr	r7, [r4, #4]
 20054a8:	2001      	movs	r0, #1
 20054aa:	1c3b      	adds	r3, r7, #0
 20054ac:	4383      	bics	r3, r0
 20054ae:	18e2      	adds	r2, r4, r3
 20054b0:	4680      	mov	r8, r0
 20054b2:	6850      	ldr	r0, [r2, #4]
 20054b4:	2103      	movs	r1, #3
 20054b6:	4388      	bics	r0, r1
 20054b8:	495a      	ldr	r1, [pc, #360]	; (2005624 <_free_r+0x194>)
 20054ba:	688e      	ldr	r6, [r1, #8]
 20054bc:	46b4      	mov	ip, r6
 20054be:	4594      	cmp	ip, r2
 20054c0:	d06c      	beq.n	200559c <_free_r+0x10c>
 20054c2:	4646      	mov	r6, r8
 20054c4:	6050      	str	r0, [r2, #4]
 20054c6:	4237      	tst	r7, r6
 20054c8:	d10b      	bne.n	20054e2 <_free_r+0x52>
 20054ca:	6826      	ldr	r6, [r4, #0]
 20054cc:	1ba4      	subs	r4, r4, r6
 20054ce:	199b      	adds	r3, r3, r6
 20054d0:	1c0f      	adds	r7, r1, #0
 20054d2:	68a6      	ldr	r6, [r4, #8]
 20054d4:	3708      	adds	r7, #8
 20054d6:	42be      	cmp	r6, r7
 20054d8:	d100      	bne.n	20054dc <_free_r+0x4c>
 20054da:	e078      	b.n	20055ce <_free_r+0x13e>
 20054dc:	68e7      	ldr	r7, [r4, #12]
 20054de:	60f7      	str	r7, [r6, #12]
 20054e0:	60be      	str	r6, [r7, #8]
 20054e2:	2700      	movs	r7, #0
 20054e4:	46ba      	mov	sl, r7
 20054e6:	1817      	adds	r7, r2, r0
 20054e8:	687f      	ldr	r7, [r7, #4]
 20054ea:	2601      	movs	r6, #1
 20054ec:	46b0      	mov	r8, r6
 20054ee:	4237      	tst	r7, r6
 20054f0:	d107      	bne.n	2005502 <_free_r+0x72>
 20054f2:	4657      	mov	r7, sl
 20054f4:	181b      	adds	r3, r3, r0
 20054f6:	2f00      	cmp	r7, #0
 20054f8:	d034      	beq.n	2005564 <_free_r+0xd4>
 20054fa:	6890      	ldr	r0, [r2, #8]
 20054fc:	68d2      	ldr	r2, [r2, #12]
 20054fe:	60c2      	str	r2, [r0, #12]
 2005500:	6090      	str	r0, [r2, #8]
 2005502:	2201      	movs	r2, #1
 2005504:	1c18      	adds	r0, r3, #0
 2005506:	4310      	orrs	r0, r2
 2005508:	4657      	mov	r7, sl
 200550a:	6060      	str	r0, [r4, #4]
 200550c:	50e3      	str	r3, [r4, r3]
 200550e:	2f00      	cmp	r7, #0
 2005510:	d11f      	bne.n	2005552 <_free_r+0xc2>
 2005512:	4845      	ldr	r0, [pc, #276]	; (2005628 <_free_r+0x198>)
 2005514:	4283      	cmp	r3, r0
 2005516:	d933      	bls.n	2005580 <_free_r+0xf0>
 2005518:	0a5a      	lsrs	r2, r3, #9
 200551a:	2a04      	cmp	r2, #4
 200551c:	d85a      	bhi.n	20055d4 <_free_r+0x144>
 200551e:	099e      	lsrs	r6, r3, #6
 2005520:	3638      	adds	r6, #56	; 0x38
 2005522:	00f0      	lsls	r0, r6, #3
 2005524:	1808      	adds	r0, r1, r0
 2005526:	6882      	ldr	r2, [r0, #8]
 2005528:	4282      	cmp	r2, r0
 200552a:	d059      	beq.n	20055e0 <_free_r+0x150>
 200552c:	6851      	ldr	r1, [r2, #4]
 200552e:	2603      	movs	r6, #3
 2005530:	43b1      	bics	r1, r6
 2005532:	428b      	cmp	r3, r1
 2005534:	d208      	bcs.n	2005548 <_free_r+0xb8>
 2005536:	2603      	movs	r6, #3
 2005538:	e003      	b.n	2005542 <_free_r+0xb2>
 200553a:	6851      	ldr	r1, [r2, #4]
 200553c:	43b1      	bics	r1, r6
 200553e:	428b      	cmp	r3, r1
 2005540:	d202      	bcs.n	2005548 <_free_r+0xb8>
 2005542:	6892      	ldr	r2, [r2, #8]
 2005544:	4290      	cmp	r0, r2
 2005546:	d1f8      	bne.n	200553a <_free_r+0xaa>
 2005548:	68d3      	ldr	r3, [r2, #12]
 200554a:	60e3      	str	r3, [r4, #12]
 200554c:	60a2      	str	r2, [r4, #8]
 200554e:	60d4      	str	r4, [r2, #12]
 2005550:	609c      	str	r4, [r3, #8]
 2005552:	1c28      	adds	r0, r5, #0
 2005554:	f001 fe06 	bl	2007164 <__malloc_unlock>
 2005558:	bc0c      	pop	{r2, r3}
 200555a:	4690      	mov	r8, r2
 200555c:	469a      	mov	sl, r3
 200555e:	bcf8      	pop	{r3, r4, r5, r6, r7}
 2005560:	bc01      	pop	{r0}
 2005562:	4700      	bx	r0
 2005564:	4e31      	ldr	r6, [pc, #196]	; (200562c <_free_r+0x19c>)
 2005566:	6890      	ldr	r0, [r2, #8]
 2005568:	46b4      	mov	ip, r6
 200556a:	4560      	cmp	r0, ip
 200556c:	d1c6      	bne.n	20054fc <_free_r+0x6c>
 200556e:	4647      	mov	r7, r8
 2005570:	431f      	orrs	r7, r3
 2005572:	60c4      	str	r4, [r0, #12]
 2005574:	6084      	str	r4, [r0, #8]
 2005576:	60e0      	str	r0, [r4, #12]
 2005578:	60a0      	str	r0, [r4, #8]
 200557a:	6067      	str	r7, [r4, #4]
 200557c:	50e3      	str	r3, [r4, r3]
 200557e:	e7e8      	b.n	2005552 <_free_r+0xc2>
 2005580:	08db      	lsrs	r3, r3, #3
 2005582:	1098      	asrs	r0, r3, #2
 2005584:	4082      	lsls	r2, r0
 2005586:	6848      	ldr	r0, [r1, #4]
 2005588:	00db      	lsls	r3, r3, #3
 200558a:	4302      	orrs	r2, r0
 200558c:	604a      	str	r2, [r1, #4]
 200558e:	18c9      	adds	r1, r1, r3
 2005590:	688b      	ldr	r3, [r1, #8]
 2005592:	60e1      	str	r1, [r4, #12]
 2005594:	60a3      	str	r3, [r4, #8]
 2005596:	60dc      	str	r4, [r3, #12]
 2005598:	608c      	str	r4, [r1, #8]
 200559a:	e7da      	b.n	2005552 <_free_r+0xc2>
 200559c:	18c3      	adds	r3, r0, r3
 200559e:	4640      	mov	r0, r8
 20055a0:	4207      	tst	r7, r0
 20055a2:	d106      	bne.n	20055b2 <_free_r+0x122>
 20055a4:	6822      	ldr	r2, [r4, #0]
 20055a6:	1aa4      	subs	r4, r4, r2
 20055a8:	68a0      	ldr	r0, [r4, #8]
 20055aa:	189b      	adds	r3, r3, r2
 20055ac:	68e2      	ldr	r2, [r4, #12]
 20055ae:	60c2      	str	r2, [r0, #12]
 20055b0:	6090      	str	r0, [r2, #8]
 20055b2:	2201      	movs	r2, #1
 20055b4:	431a      	orrs	r2, r3
 20055b6:	6062      	str	r2, [r4, #4]
 20055b8:	4a1d      	ldr	r2, [pc, #116]	; (2005630 <_free_r+0x1a0>)
 20055ba:	6812      	ldr	r2, [r2, #0]
 20055bc:	608c      	str	r4, [r1, #8]
 20055be:	4293      	cmp	r3, r2
 20055c0:	d3c7      	bcc.n	2005552 <_free_r+0xc2>
 20055c2:	4b1c      	ldr	r3, [pc, #112]	; (2005634 <_free_r+0x1a4>)
 20055c4:	1c28      	adds	r0, r5, #0
 20055c6:	6819      	ldr	r1, [r3, #0]
 20055c8:	f7ff ff10 	bl	20053ec <_malloc_trim_r>
 20055cc:	e7c1      	b.n	2005552 <_free_r+0xc2>
 20055ce:	2601      	movs	r6, #1
 20055d0:	46b2      	mov	sl, r6
 20055d2:	e788      	b.n	20054e6 <_free_r+0x56>
 20055d4:	2a14      	cmp	r2, #20
 20055d6:	d80c      	bhi.n	20055f2 <_free_r+0x162>
 20055d8:	1c16      	adds	r6, r2, #0
 20055da:	365b      	adds	r6, #91	; 0x5b
 20055dc:	00f0      	lsls	r0, r6, #3
 20055de:	e7a1      	b.n	2005524 <_free_r+0x94>
 20055e0:	10b6      	asrs	r6, r6, #2
 20055e2:	2301      	movs	r3, #1
 20055e4:	40b3      	lsls	r3, r6
 20055e6:	1c1e      	adds	r6, r3, #0
 20055e8:	684b      	ldr	r3, [r1, #4]
 20055ea:	431e      	orrs	r6, r3
 20055ec:	604e      	str	r6, [r1, #4]
 20055ee:	1c13      	adds	r3, r2, #0
 20055f0:	e7ab      	b.n	200554a <_free_r+0xba>
 20055f2:	2a54      	cmp	r2, #84	; 0x54
 20055f4:	d803      	bhi.n	20055fe <_free_r+0x16e>
 20055f6:	0b1e      	lsrs	r6, r3, #12
 20055f8:	366e      	adds	r6, #110	; 0x6e
 20055fa:	00f0      	lsls	r0, r6, #3
 20055fc:	e792      	b.n	2005524 <_free_r+0x94>
 20055fe:	20aa      	movs	r0, #170	; 0xaa
 2005600:	0040      	lsls	r0, r0, #1
 2005602:	4282      	cmp	r2, r0
 2005604:	d803      	bhi.n	200560e <_free_r+0x17e>
 2005606:	0bde      	lsrs	r6, r3, #15
 2005608:	3677      	adds	r6, #119	; 0x77
 200560a:	00f0      	lsls	r0, r6, #3
 200560c:	e78a      	b.n	2005524 <_free_r+0x94>
 200560e:	480a      	ldr	r0, [pc, #40]	; (2005638 <_free_r+0x1a8>)
 2005610:	4282      	cmp	r2, r0
 2005612:	d903      	bls.n	200561c <_free_r+0x18c>
 2005614:	20fc      	movs	r0, #252	; 0xfc
 2005616:	0080      	lsls	r0, r0, #2
 2005618:	267e      	movs	r6, #126	; 0x7e
 200561a:	e783      	b.n	2005524 <_free_r+0x94>
 200561c:	0c9e      	lsrs	r6, r3, #18
 200561e:	367c      	adds	r6, #124	; 0x7c
 2005620:	00f0      	lsls	r0, r6, #3
 2005622:	e77f      	b.n	2005524 <_free_r+0x94>
 2005624:	0200eebc 	.word	0x0200eebc
 2005628:	000001ff 	.word	0x000001ff
 200562c:	0200eec4 	.word	0x0200eec4
 2005630:	0200f2c8 	.word	0x0200f2c8
 2005634:	0200f600 	.word	0x0200f600
 2005638:	00000554 	.word	0x00000554

0200563c <__sfvwrite_r>:
 200563c:	b5f0      	push	{r4, r5, r6, r7, lr}
 200563e:	465f      	mov	r7, fp
 2005640:	4656      	mov	r6, sl
 2005642:	464d      	mov	r5, r9
 2005644:	4644      	mov	r4, r8
 2005646:	b4f0      	push	{r4, r5, r6, r7}
 2005648:	b085      	sub	sp, #20
 200564a:	6893      	ldr	r3, [r2, #8]
 200564c:	9001      	str	r0, [sp, #4]
 200564e:	1c0c      	adds	r4, r1, #0
 2005650:	1c16      	adds	r6, r2, #0
 2005652:	2b00      	cmp	r3, #0
 2005654:	d020      	beq.n	2005698 <__sfvwrite_r+0x5c>
 2005656:	898b      	ldrh	r3, [r1, #12]
 2005658:	1c1a      	adds	r2, r3, #0
 200565a:	0718      	lsls	r0, r3, #28
 200565c:	d526      	bpl.n	20056ac <__sfvwrite_r+0x70>
 200565e:	6909      	ldr	r1, [r1, #16]
 2005660:	2900      	cmp	r1, #0
 2005662:	d023      	beq.n	20056ac <__sfvwrite_r+0x70>
 2005664:	6835      	ldr	r5, [r6, #0]
 2005666:	0790      	lsls	r0, r2, #30
 2005668:	d52c      	bpl.n	20056c4 <__sfvwrite_r+0x88>
 200566a:	2100      	movs	r1, #0
 200566c:	4688      	mov	r8, r1
 200566e:	2700      	movs	r7, #0
 2005670:	2f00      	cmp	r7, #0
 2005672:	d069      	beq.n	2005748 <__sfvwrite_r+0x10c>
 2005674:	6a63      	ldr	r3, [r4, #36]	; 0x24
 2005676:	69e1      	ldr	r1, [r4, #28]
 2005678:	469c      	mov	ip, r3
 200567a:	9801      	ldr	r0, [sp, #4]
 200567c:	4642      	mov	r2, r8
 200567e:	1c3b      	adds	r3, r7, #0
 2005680:	f000 f966 	bl	2005950 <__sfvwrite_r+0x314>
 2005684:	2800      	cmp	r0, #0
 2005686:	dc00      	bgt.n	200568a <__sfvwrite_r+0x4e>
 2005688:	e071      	b.n	200576e <__sfvwrite_r+0x132>
 200568a:	68b3      	ldr	r3, [r6, #8]
 200568c:	4480      	add	r8, r0
 200568e:	1a3f      	subs	r7, r7, r0
 2005690:	1a18      	subs	r0, r3, r0
 2005692:	60b0      	str	r0, [r6, #8]
 2005694:	2800      	cmp	r0, #0
 2005696:	d1eb      	bne.n	2005670 <__sfvwrite_r+0x34>
 2005698:	2000      	movs	r0, #0
 200569a:	b005      	add	sp, #20
 200569c:	bc3c      	pop	{r2, r3, r4, r5}
 200569e:	4690      	mov	r8, r2
 20056a0:	4699      	mov	r9, r3
 20056a2:	46a2      	mov	sl, r4
 20056a4:	46ab      	mov	fp, r5
 20056a6:	bcf0      	pop	{r4, r5, r6, r7}
 20056a8:	bc02      	pop	{r1}
 20056aa:	4708      	bx	r1
 20056ac:	9801      	ldr	r0, [sp, #4]
 20056ae:	1c21      	adds	r1, r4, #0
 20056b0:	f7ff fbf2 	bl	2004e98 <__swsetup_r>
 20056b4:	2800      	cmp	r0, #0
 20056b6:	d000      	beq.n	20056ba <__sfvwrite_r+0x7e>
 20056b8:	e13e      	b.n	2005938 <__sfvwrite_r+0x2fc>
 20056ba:	89a3      	ldrh	r3, [r4, #12]
 20056bc:	1c1a      	adds	r2, r3, #0
 20056be:	6835      	ldr	r5, [r6, #0]
 20056c0:	0790      	lsls	r0, r2, #30
 20056c2:	d4d2      	bmi.n	200566a <__sfvwrite_r+0x2e>
 20056c4:	07d0      	lsls	r0, r2, #31
 20056c6:	d559      	bpl.n	200577c <__sfvwrite_r+0x140>
 20056c8:	2100      	movs	r1, #0
 20056ca:	9100      	str	r1, [sp, #0]
 20056cc:	468a      	mov	sl, r1
 20056ce:	468b      	mov	fp, r1
 20056d0:	1c0f      	adds	r7, r1, #0
 20056d2:	2f00      	cmp	r7, #0
 20056d4:	d031      	beq.n	200573a <__sfvwrite_r+0xfe>
 20056d6:	9b00      	ldr	r3, [sp, #0]
 20056d8:	2b00      	cmp	r3, #0
 20056da:	d100      	bne.n	20056de <__sfvwrite_r+0xa2>
 20056dc:	e0d7      	b.n	200588e <__sfvwrite_r+0x252>
 20056de:	46d1      	mov	r9, sl
 20056e0:	45ba      	cmp	sl, r7
 20056e2:	d900      	bls.n	20056e6 <__sfvwrite_r+0xaa>
 20056e4:	46b9      	mov	r9, r7
 20056e6:	6963      	ldr	r3, [r4, #20]
 20056e8:	68a2      	ldr	r2, [r4, #8]
 20056ea:	18d2      	adds	r2, r2, r3
 20056ec:	4690      	mov	r8, r2
 20056ee:	6820      	ldr	r0, [r4, #0]
 20056f0:	4591      	cmp	r9, r2
 20056f2:	dc00      	bgt.n	20056f6 <__sfvwrite_r+0xba>
 20056f4:	e08e      	b.n	2005814 <__sfvwrite_r+0x1d8>
 20056f6:	6922      	ldr	r2, [r4, #16]
 20056f8:	4290      	cmp	r0, r2
 20056fa:	d800      	bhi.n	20056fe <__sfvwrite_r+0xc2>
 20056fc:	e08a      	b.n	2005814 <__sfvwrite_r+0x1d8>
 20056fe:	4659      	mov	r1, fp
 2005700:	4642      	mov	r2, r8
 2005702:	f001 fcdd 	bl	20070c0 <memmove>
 2005706:	6823      	ldr	r3, [r4, #0]
 2005708:	4443      	add	r3, r8
 200570a:	6023      	str	r3, [r4, #0]
 200570c:	9801      	ldr	r0, [sp, #4]
 200570e:	1c21      	adds	r1, r4, #0
 2005710:	f7ff fc32 	bl	2004f78 <_fflush_r>
 2005714:	2800      	cmp	r0, #0
 2005716:	d12a      	bne.n	200576e <__sfvwrite_r+0x132>
 2005718:	4651      	mov	r1, sl
 200571a:	4642      	mov	r2, r8
 200571c:	1a89      	subs	r1, r1, r2
 200571e:	468a      	mov	sl, r1
 2005720:	2900      	cmp	r1, #0
 2005722:	d100      	bne.n	2005726 <__sfvwrite_r+0xea>
 2005724:	e089      	b.n	200583a <__sfvwrite_r+0x1fe>
 2005726:	68b3      	ldr	r3, [r6, #8]
 2005728:	4640      	mov	r0, r8
 200572a:	1a1b      	subs	r3, r3, r0
 200572c:	44c3      	add	fp, r8
 200572e:	1a3f      	subs	r7, r7, r0
 2005730:	60b3      	str	r3, [r6, #8]
 2005732:	2b00      	cmp	r3, #0
 2005734:	d0b0      	beq.n	2005698 <__sfvwrite_r+0x5c>
 2005736:	2f00      	cmp	r7, #0
 2005738:	d1cd      	bne.n	20056d6 <__sfvwrite_r+0x9a>
 200573a:	6829      	ldr	r1, [r5, #0]
 200573c:	2200      	movs	r2, #0
 200573e:	686f      	ldr	r7, [r5, #4]
 2005740:	468b      	mov	fp, r1
 2005742:	3508      	adds	r5, #8
 2005744:	9200      	str	r2, [sp, #0]
 2005746:	e7c4      	b.n	20056d2 <__sfvwrite_r+0x96>
 2005748:	682a      	ldr	r2, [r5, #0]
 200574a:	686f      	ldr	r7, [r5, #4]
 200574c:	4690      	mov	r8, r2
 200574e:	3508      	adds	r5, #8
 2005750:	e78e      	b.n	2005670 <__sfvwrite_r+0x34>
 2005752:	9801      	ldr	r0, [sp, #4]
 2005754:	f001 fd08 	bl	2007168 <_realloc_r>
 2005758:	4680      	mov	r8, r0
 200575a:	2800      	cmp	r0, #0
 200575c:	d000      	beq.n	2005760 <__sfvwrite_r+0x124>
 200575e:	e0d9      	b.n	2005914 <__sfvwrite_r+0x2d8>
 2005760:	6921      	ldr	r1, [r4, #16]
 2005762:	9801      	ldr	r0, [sp, #4]
 2005764:	f7ff fe94 	bl	2005490 <_free_r>
 2005768:	9901      	ldr	r1, [sp, #4]
 200576a:	230c      	movs	r3, #12
 200576c:	600b      	str	r3, [r1, #0]
 200576e:	89a2      	ldrh	r2, [r4, #12]
 2005770:	2340      	movs	r3, #64	; 0x40
 2005772:	4313      	orrs	r3, r2
 2005774:	2001      	movs	r0, #1
 2005776:	81a3      	strh	r3, [r4, #12]
 2005778:	4240      	negs	r0, r0
 200577a:	e78e      	b.n	200569a <__sfvwrite_r+0x5e>
 200577c:	2200      	movs	r2, #0
 200577e:	2080      	movs	r0, #128	; 0x80
 2005780:	4692      	mov	sl, r2
 2005782:	2290      	movs	r2, #144	; 0x90
 2005784:	0081      	lsls	r1, r0, #2
 2005786:	00d2      	lsls	r2, r2, #3
 2005788:	00c0      	lsls	r0, r0, #3
 200578a:	9202      	str	r2, [sp, #8]
 200578c:	9003      	str	r0, [sp, #12]
 200578e:	2700      	movs	r7, #0
 2005790:	468b      	mov	fp, r1
 2005792:	2f00      	cmp	r7, #0
 2005794:	d024      	beq.n	20057e0 <__sfvwrite_r+0x1a4>
 2005796:	68a1      	ldr	r1, [r4, #8]
 2005798:	465a      	mov	r2, fp
 200579a:	4688      	mov	r8, r1
 200579c:	4213      	tst	r3, r2
 200579e:	d024      	beq.n	20057ea <__sfvwrite_r+0x1ae>
 20057a0:	4689      	mov	r9, r1
 20057a2:	4547      	cmp	r7, r8
 20057a4:	d261      	bcs.n	200586a <__sfvwrite_r+0x22e>
 20057a6:	6820      	ldr	r0, [r4, #0]
 20057a8:	46b8      	mov	r8, r7
 20057aa:	46b9      	mov	r9, r7
 20057ac:	464a      	mov	r2, r9
 20057ae:	4651      	mov	r1, sl
 20057b0:	f001 fc86 	bl	20070c0 <memmove>
 20057b4:	68a3      	ldr	r3, [r4, #8]
 20057b6:	4640      	mov	r0, r8
 20057b8:	1a1b      	subs	r3, r3, r0
 20057ba:	60a3      	str	r3, [r4, #8]
 20057bc:	6823      	ldr	r3, [r4, #0]
 20057be:	444b      	add	r3, r9
 20057c0:	6023      	str	r3, [r4, #0]
 20057c2:	46b8      	mov	r8, r7
 20057c4:	46b9      	mov	r9, r7
 20057c6:	464b      	mov	r3, r9
 20057c8:	1aff      	subs	r7, r7, r3
 20057ca:	68b3      	ldr	r3, [r6, #8]
 20057cc:	4640      	mov	r0, r8
 20057ce:	1a1b      	subs	r3, r3, r0
 20057d0:	44ca      	add	sl, r9
 20057d2:	60b3      	str	r3, [r6, #8]
 20057d4:	2b00      	cmp	r3, #0
 20057d6:	d100      	bne.n	20057da <__sfvwrite_r+0x19e>
 20057d8:	e75e      	b.n	2005698 <__sfvwrite_r+0x5c>
 20057da:	89a3      	ldrh	r3, [r4, #12]
 20057dc:	2f00      	cmp	r7, #0
 20057de:	d1da      	bne.n	2005796 <__sfvwrite_r+0x15a>
 20057e0:	6828      	ldr	r0, [r5, #0]
 20057e2:	686f      	ldr	r7, [r5, #4]
 20057e4:	4682      	mov	sl, r0
 20057e6:	3508      	adds	r5, #8
 20057e8:	e7d3      	b.n	2005792 <__sfvwrite_r+0x156>
 20057ea:	6820      	ldr	r0, [r4, #0]
 20057ec:	4689      	mov	r9, r1
 20057ee:	45b8      	cmp	r8, r7
 20057f0:	d22c      	bcs.n	200584c <__sfvwrite_r+0x210>
 20057f2:	6923      	ldr	r3, [r4, #16]
 20057f4:	4298      	cmp	r0, r3
 20057f6:	d929      	bls.n	200584c <__sfvwrite_r+0x210>
 20057f8:	4651      	mov	r1, sl
 20057fa:	4642      	mov	r2, r8
 20057fc:	f001 fc60 	bl	20070c0 <memmove>
 2005800:	6823      	ldr	r3, [r4, #0]
 2005802:	4443      	add	r3, r8
 2005804:	6023      	str	r3, [r4, #0]
 2005806:	9801      	ldr	r0, [sp, #4]
 2005808:	1c21      	adds	r1, r4, #0
 200580a:	f7ff fbb5 	bl	2004f78 <_fflush_r>
 200580e:	2800      	cmp	r0, #0
 2005810:	d0d9      	beq.n	20057c6 <__sfvwrite_r+0x18a>
 2005812:	e7ac      	b.n	200576e <__sfvwrite_r+0x132>
 2005814:	4599      	cmp	r9, r3
 2005816:	db2d      	blt.n	2005874 <__sfvwrite_r+0x238>
 2005818:	6a62      	ldr	r2, [r4, #36]	; 0x24
 200581a:	69e1      	ldr	r1, [r4, #28]
 200581c:	4694      	mov	ip, r2
 200581e:	9801      	ldr	r0, [sp, #4]
 2005820:	465a      	mov	r2, fp
 2005822:	f000 f895 	bl	2005950 <__sfvwrite_r+0x314>
 2005826:	4680      	mov	r8, r0
 2005828:	2800      	cmp	r0, #0
 200582a:	dda0      	ble.n	200576e <__sfvwrite_r+0x132>
 200582c:	4651      	mov	r1, sl
 200582e:	4642      	mov	r2, r8
 2005830:	1a89      	subs	r1, r1, r2
 2005832:	468a      	mov	sl, r1
 2005834:	2900      	cmp	r1, #0
 2005836:	d000      	beq.n	200583a <__sfvwrite_r+0x1fe>
 2005838:	e775      	b.n	2005726 <__sfvwrite_r+0xea>
 200583a:	9801      	ldr	r0, [sp, #4]
 200583c:	1c21      	adds	r1, r4, #0
 200583e:	f7ff fb9b 	bl	2004f78 <_fflush_r>
 2005842:	2800      	cmp	r0, #0
 2005844:	d193      	bne.n	200576e <__sfvwrite_r+0x132>
 2005846:	2300      	movs	r3, #0
 2005848:	9300      	str	r3, [sp, #0]
 200584a:	e76c      	b.n	2005726 <__sfvwrite_r+0xea>
 200584c:	6963      	ldr	r3, [r4, #20]
 200584e:	429f      	cmp	r7, r3
 2005850:	d32b      	bcc.n	20058aa <__sfvwrite_r+0x26e>
 2005852:	6a62      	ldr	r2, [r4, #36]	; 0x24
 2005854:	69e1      	ldr	r1, [r4, #28]
 2005856:	4694      	mov	ip, r2
 2005858:	9801      	ldr	r0, [sp, #4]
 200585a:	4652      	mov	r2, sl
 200585c:	f000 f878 	bl	2005950 <__sfvwrite_r+0x314>
 2005860:	4680      	mov	r8, r0
 2005862:	2800      	cmp	r0, #0
 2005864:	dd83      	ble.n	200576e <__sfvwrite_r+0x132>
 2005866:	4681      	mov	r9, r0
 2005868:	e7ad      	b.n	20057c6 <__sfvwrite_r+0x18a>
 200586a:	9802      	ldr	r0, [sp, #8]
 200586c:	4203      	tst	r3, r0
 200586e:	d129      	bne.n	20058c4 <__sfvwrite_r+0x288>
 2005870:	6820      	ldr	r0, [r4, #0]
 2005872:	e79b      	b.n	20057ac <__sfvwrite_r+0x170>
 2005874:	4659      	mov	r1, fp
 2005876:	464a      	mov	r2, r9
 2005878:	f001 fc22 	bl	20070c0 <memmove>
 200587c:	68a3      	ldr	r3, [r4, #8]
 200587e:	4648      	mov	r0, r9
 2005880:	1a1b      	subs	r3, r3, r0
 2005882:	60a3      	str	r3, [r4, #8]
 2005884:	6823      	ldr	r3, [r4, #0]
 2005886:	444b      	add	r3, r9
 2005888:	6023      	str	r3, [r4, #0]
 200588a:	46c8      	mov	r8, r9
 200588c:	e744      	b.n	2005718 <__sfvwrite_r+0xdc>
 200588e:	4658      	mov	r0, fp
 2005890:	210a      	movs	r1, #10
 2005892:	1c3a      	adds	r2, r7, #0
 2005894:	f001 fbd4 	bl	2007040 <memchr>
 2005898:	2800      	cmp	r0, #0
 200589a:	d048      	beq.n	200592e <__sfvwrite_r+0x2f2>
 200589c:	3001      	adds	r0, #1
 200589e:	4659      	mov	r1, fp
 20058a0:	1a41      	subs	r1, r0, r1
 20058a2:	2201      	movs	r2, #1
 20058a4:	468a      	mov	sl, r1
 20058a6:	9200      	str	r2, [sp, #0]
 20058a8:	e719      	b.n	20056de <__sfvwrite_r+0xa2>
 20058aa:	4651      	mov	r1, sl
 20058ac:	1c3a      	adds	r2, r7, #0
 20058ae:	f001 fc07 	bl	20070c0 <memmove>
 20058b2:	68a3      	ldr	r3, [r4, #8]
 20058b4:	1bdb      	subs	r3, r3, r7
 20058b6:	60a3      	str	r3, [r4, #8]
 20058b8:	6823      	ldr	r3, [r4, #0]
 20058ba:	19db      	adds	r3, r3, r7
 20058bc:	46b8      	mov	r8, r7
 20058be:	6023      	str	r3, [r4, #0]
 20058c0:	46b9      	mov	r9, r7
 20058c2:	e780      	b.n	20057c6 <__sfvwrite_r+0x18a>
 20058c4:	6921      	ldr	r1, [r4, #16]
 20058c6:	6822      	ldr	r2, [r4, #0]
 20058c8:	1a52      	subs	r2, r2, r1
 20058ca:	9200      	str	r2, [sp, #0]
 20058cc:	6962      	ldr	r2, [r4, #20]
 20058ce:	0050      	lsls	r0, r2, #1
 20058d0:	1882      	adds	r2, r0, r2
 20058d2:	0fd0      	lsrs	r0, r2, #31
 20058d4:	1882      	adds	r2, r0, r2
 20058d6:	9800      	ldr	r0, [sp, #0]
 20058d8:	1052      	asrs	r2, r2, #1
 20058da:	3001      	adds	r0, #1
 20058dc:	4691      	mov	r9, r2
 20058de:	19c0      	adds	r0, r0, r7
 20058e0:	4581      	cmp	r9, r0
 20058e2:	d201      	bcs.n	20058e8 <__sfvwrite_r+0x2ac>
 20058e4:	4681      	mov	r9, r0
 20058e6:	1c02      	adds	r2, r0, #0
 20058e8:	9803      	ldr	r0, [sp, #12]
 20058ea:	4203      	tst	r3, r0
 20058ec:	d100      	bne.n	20058f0 <__sfvwrite_r+0x2b4>
 20058ee:	e730      	b.n	2005752 <__sfvwrite_r+0x116>
 20058f0:	9801      	ldr	r0, [sp, #4]
 20058f2:	1c11      	adds	r1, r2, #0
 20058f4:	f000 fe30 	bl	2006558 <_malloc_r>
 20058f8:	4680      	mov	r8, r0
 20058fa:	2800      	cmp	r0, #0
 20058fc:	d100      	bne.n	2005900 <__sfvwrite_r+0x2c4>
 20058fe:	e733      	b.n	2005768 <__sfvwrite_r+0x12c>
 2005900:	9a00      	ldr	r2, [sp, #0]
 2005902:	6921      	ldr	r1, [r4, #16]
 2005904:	f7fd f9e2 	bl	2002ccc <memcpy>
 2005908:	89a3      	ldrh	r3, [r4, #12]
 200590a:	4a10      	ldr	r2, [pc, #64]	; (200594c <__sfvwrite_r+0x310>)
 200590c:	2080      	movs	r0, #128	; 0x80
 200590e:	4013      	ands	r3, r2
 2005910:	4303      	orrs	r3, r0
 2005912:	81a3      	strh	r3, [r4, #12]
 2005914:	9b00      	ldr	r3, [sp, #0]
 2005916:	4649      	mov	r1, r9
 2005918:	1c18      	adds	r0, r3, #0
 200591a:	4642      	mov	r2, r8
 200591c:	4440      	add	r0, r8
 200591e:	1acb      	subs	r3, r1, r3
 2005920:	6122      	str	r2, [r4, #16]
 2005922:	6020      	str	r0, [r4, #0]
 2005924:	6161      	str	r1, [r4, #20]
 2005926:	46b8      	mov	r8, r7
 2005928:	60a3      	str	r3, [r4, #8]
 200592a:	46b9      	mov	r9, r7
 200592c:	e73e      	b.n	20057ac <__sfvwrite_r+0x170>
 200592e:	1c7b      	adds	r3, r7, #1
 2005930:	2001      	movs	r0, #1
 2005932:	469a      	mov	sl, r3
 2005934:	9000      	str	r0, [sp, #0]
 2005936:	e6d2      	b.n	20056de <__sfvwrite_r+0xa2>
 2005938:	89a2      	ldrh	r2, [r4, #12]
 200593a:	2340      	movs	r3, #64	; 0x40
 200593c:	4313      	orrs	r3, r2
 200593e:	9901      	ldr	r1, [sp, #4]
 2005940:	81a3      	strh	r3, [r4, #12]
 2005942:	2001      	movs	r0, #1
 2005944:	2309      	movs	r3, #9
 2005946:	600b      	str	r3, [r1, #0]
 2005948:	4240      	negs	r0, r0
 200594a:	e6a6      	b.n	200569a <__sfvwrite_r+0x5e>
 200594c:	fffffb7f 	.word	0xfffffb7f
 2005950:	4760      	bx	ip
 2005952:	46c0      	nop			; (mov r8, r8)

02005954 <_fwalk_reent>:
 2005954:	b5f8      	push	{r3, r4, r5, r6, r7, lr}
 2005956:	4657      	mov	r7, sl
 2005958:	4646      	mov	r6, r8
 200595a:	b4c0      	push	{r6, r7}
 200595c:	4680      	mov	r8, r0
 200595e:	468a      	mov	sl, r1
 2005960:	f7ff fbcc 	bl	20050fc <__sfp_lock_acquire>
 2005964:	22b8      	movs	r2, #184	; 0xb8
 2005966:	0092      	lsls	r2, r2, #2
 2005968:	1c16      	adds	r6, r2, #0
 200596a:	4446      	add	r6, r8
 200596c:	2e00      	cmp	r6, #0
 200596e:	d021      	beq.n	20059b4 <_fwalk_reent+0x60>
 2005970:	2700      	movs	r7, #0
 2005972:	6875      	ldr	r5, [r6, #4]
 2005974:	68b4      	ldr	r4, [r6, #8]
 2005976:	3d01      	subs	r5, #1
 2005978:	d501      	bpl.n	200597e <_fwalk_reent+0x2a>
 200597a:	e00f      	b.n	200599c <_fwalk_reent+0x48>
 200597c:	3468      	adds	r4, #104	; 0x68
 200597e:	220c      	movs	r2, #12
 2005980:	5ea3      	ldrsh	r3, [r4, r2]
 2005982:	2b00      	cmp	r3, #0
 2005984:	d008      	beq.n	2005998 <_fwalk_reent+0x44>
 2005986:	220e      	movs	r2, #14
 2005988:	5ea3      	ldrsh	r3, [r4, r2]
 200598a:	3301      	adds	r3, #1
 200598c:	d004      	beq.n	2005998 <_fwalk_reent+0x44>
 200598e:	4640      	mov	r0, r8
 2005990:	1c21      	adds	r1, r4, #0
 2005992:	f000 f840 	bl	2005a16 <_fwalk+0x5e>
 2005996:	4307      	orrs	r7, r0
 2005998:	3d01      	subs	r5, #1
 200599a:	d5ef      	bpl.n	200597c <_fwalk_reent+0x28>
 200599c:	6836      	ldr	r6, [r6, #0]
 200599e:	2e00      	cmp	r6, #0
 20059a0:	d1e7      	bne.n	2005972 <_fwalk_reent+0x1e>
 20059a2:	f7ff fbad 	bl	2005100 <__sfp_lock_release>
 20059a6:	1c38      	adds	r0, r7, #0
 20059a8:	bc0c      	pop	{r2, r3}
 20059aa:	4690      	mov	r8, r2
 20059ac:	469a      	mov	sl, r3
 20059ae:	bcf8      	pop	{r3, r4, r5, r6, r7}
 20059b0:	bc02      	pop	{r1}
 20059b2:	4708      	bx	r1
 20059b4:	2700      	movs	r7, #0
 20059b6:	e7f4      	b.n	20059a2 <_fwalk_reent+0x4e>

020059b8 <_fwalk>:
 20059b8:	b5f0      	push	{r4, r5, r6, r7, lr}
 20059ba:	4647      	mov	r7, r8
 20059bc:	b480      	push	{r7}
 20059be:	1c06      	adds	r6, r0, #0
 20059c0:	4688      	mov	r8, r1
 20059c2:	f7ff fb9b 	bl	20050fc <__sfp_lock_acquire>
 20059c6:	22b8      	movs	r2, #184	; 0xb8
 20059c8:	0092      	lsls	r2, r2, #2
 20059ca:	18b6      	adds	r6, r6, r2
 20059cc:	2e00      	cmp	r6, #0
 20059ce:	d01f      	beq.n	2005a10 <_fwalk+0x58>
 20059d0:	2700      	movs	r7, #0
 20059d2:	6875      	ldr	r5, [r6, #4]
 20059d4:	68b4      	ldr	r4, [r6, #8]
 20059d6:	3d01      	subs	r5, #1
 20059d8:	d501      	bpl.n	20059de <_fwalk+0x26>
 20059da:	e00e      	b.n	20059fa <_fwalk+0x42>
 20059dc:	3468      	adds	r4, #104	; 0x68
 20059de:	220c      	movs	r2, #12
 20059e0:	5ea3      	ldrsh	r3, [r4, r2]
 20059e2:	2b00      	cmp	r3, #0
 20059e4:	d007      	beq.n	20059f6 <_fwalk+0x3e>
 20059e6:	220e      	movs	r2, #14
 20059e8:	5ea3      	ldrsh	r3, [r4, r2]
 20059ea:	3301      	adds	r3, #1
 20059ec:	d003      	beq.n	20059f6 <_fwalk+0x3e>
 20059ee:	1c20      	adds	r0, r4, #0
 20059f0:	f000 f810 	bl	2005a14 <_fwalk+0x5c>
 20059f4:	4307      	orrs	r7, r0
 20059f6:	3d01      	subs	r5, #1
 20059f8:	d5f0      	bpl.n	20059dc <_fwalk+0x24>
 20059fa:	6836      	ldr	r6, [r6, #0]
 20059fc:	2e00      	cmp	r6, #0
 20059fe:	d1e8      	bne.n	20059d2 <_fwalk+0x1a>
 2005a00:	f7ff fb7e 	bl	2005100 <__sfp_lock_release>
 2005a04:	1c38      	adds	r0, r7, #0
 2005a06:	bc04      	pop	{r2}
 2005a08:	4690      	mov	r8, r2
 2005a0a:	bcf0      	pop	{r4, r5, r6, r7}
 2005a0c:	bc02      	pop	{r1}
 2005a0e:	4708      	bx	r1
 2005a10:	2700      	movs	r7, #0
 2005a12:	e7f5      	b.n	2005a00 <_fwalk+0x48>
 2005a14:	4740      	bx	r8
 2005a16:	4750      	bx	sl

02005a18 <iswspace>:
 2005a18:	b510      	push	{r4, lr}
 2005a1a:	f000 f8f5 	bl	2005c08 <_jp2uc>
 2005a1e:	1c03      	adds	r3, r0, #0
 2005a20:	3b09      	subs	r3, #9
 2005a22:	2b04      	cmp	r3, #4
 2005a24:	d91d      	bls.n	2005a62 <iswspace+0x4a>
 2005a26:	2820      	cmp	r0, #32
 2005a28:	d01b      	beq.n	2005a62 <iswspace+0x4a>
 2005a2a:	23b4      	movs	r3, #180	; 0xb4
 2005a2c:	015b      	lsls	r3, r3, #5
 2005a2e:	4298      	cmp	r0, r3
 2005a30:	d017      	beq.n	2005a62 <iswspace+0x4a>
 2005a32:	28a0      	cmp	r0, #160	; 0xa0
 2005a34:	d015      	beq.n	2005a62 <iswspace+0x4a>
 2005a36:	4a0d      	ldr	r2, [pc, #52]	; (2005a6c <iswspace+0x54>)
 2005a38:	1883      	adds	r3, r0, r2
 2005a3a:	2b06      	cmp	r3, #6
 2005a3c:	d911      	bls.n	2005a62 <iswspace+0x4a>
 2005a3e:	3a08      	subs	r2, #8
 2005a40:	1883      	adds	r3, r0, r2
 2005a42:	2b03      	cmp	r3, #3
 2005a44:	d90d      	bls.n	2005a62 <iswspace+0x4a>
 2005a46:	4b0a      	ldr	r3, [pc, #40]	; (2005a70 <iswspace+0x58>)
 2005a48:	4298      	cmp	r0, r3
 2005a4a:	d00a      	beq.n	2005a62 <iswspace+0x4a>
 2005a4c:	3337      	adds	r3, #55	; 0x37
 2005a4e:	4298      	cmp	r0, r3
 2005a50:	d007      	beq.n	2005a62 <iswspace+0x4a>
 2005a52:	3b36      	subs	r3, #54	; 0x36
 2005a54:	4298      	cmp	r0, r3
 2005a56:	d004      	beq.n	2005a62 <iswspace+0x4a>
 2005a58:	4a06      	ldr	r2, [pc, #24]	; (2005a74 <iswspace+0x5c>)
 2005a5a:	1883      	adds	r3, r0, r2
 2005a5c:	4258      	negs	r0, r3
 2005a5e:	4158      	adcs	r0, r3
 2005a60:	e000      	b.n	2005a64 <iswspace+0x4c>
 2005a62:	2001      	movs	r0, #1
 2005a64:	bc10      	pop	{r4}
 2005a66:	bc02      	pop	{r1}
 2005a68:	4708      	bx	r1
 2005a6a:	46c0      	nop			; (mov r8, r8)
 2005a6c:	ffffe000 	.word	0xffffe000
 2005a70:	00002028 	.word	0x00002028
 2005a74:	ffffd000 	.word	0xffffd000

02005a78 <__jp2uc>:
 2005a78:	b500      	push	{lr}
 2005a7a:	2902      	cmp	r1, #2
 2005a7c:	d044      	beq.n	2005b08 <__jp2uc+0x90>
 2005a7e:	2903      	cmp	r1, #3
 2005a80:	d03d      	beq.n	2005afe <__jp2uc+0x86>
 2005a82:	2901      	cmp	r1, #1
 2005a84:	d003      	beq.n	2005a8e <__jp2uc+0x16>
 2005a86:	2001      	movs	r0, #1
 2005a88:	4240      	negs	r0, r0
 2005a8a:	bc02      	pop	{r1}
 2005a8c:	4708      	bx	r1
 2005a8e:	0a03      	lsrs	r3, r0, #8
 2005a90:	1c02      	adds	r2, r0, #0
 2005a92:	3b80      	subs	r3, #128	; 0x80
 2005a94:	3a80      	subs	r2, #128	; 0x80
 2005a96:	061b      	lsls	r3, r3, #24
 2005a98:	0612      	lsls	r2, r2, #24
 2005a9a:	0e1b      	lsrs	r3, r3, #24
 2005a9c:	0e12      	lsrs	r2, r2, #24
 2005a9e:	1c19      	adds	r1, r3, #0
 2005aa0:	3150      	adds	r1, #80	; 0x50
 2005aa2:	0609      	lsls	r1, r1, #24
 2005aa4:	0e09      	lsrs	r1, r1, #24
 2005aa6:	291f      	cmp	r1, #31
 2005aa8:	d802      	bhi.n	2005ab0 <__jp2uc+0x38>
 2005aaa:	4949      	ldr	r1, [pc, #292]	; (2005bd0 <__jp2uc+0x158>)
 2005aac:	4288      	cmp	r0, r1
 2005aae:	d913      	bls.n	2005ad8 <__jp2uc+0x60>
 2005ab0:	1c19      	adds	r1, r3, #0
 2005ab2:	3130      	adds	r1, #48	; 0x30
 2005ab4:	0609      	lsls	r1, r1, #24
 2005ab6:	0e09      	lsrs	r1, r1, #24
 2005ab8:	2924      	cmp	r1, #36	; 0x24
 2005aba:	d817      	bhi.n	2005aec <__jp2uc+0x74>
 2005abc:	4945      	ldr	r1, [pc, #276]	; (2005bd4 <__jp2uc+0x15c>)
 2005abe:	4288      	cmp	r0, r1
 2005ac0:	d814      	bhi.n	2005aec <__jp2uc+0x74>
 2005ac2:	01d9      	lsls	r1, r3, #7
 2005ac4:	1acb      	subs	r3, r1, r3
 2005ac6:	005b      	lsls	r3, r3, #1
 2005ac8:	189a      	adds	r2, r3, r2
 2005aca:	4b43      	ldr	r3, [pc, #268]	; (2005bd8 <__jp2uc+0x160>)
 2005acc:	18d2      	adds	r2, r2, r3
 2005ace:	4b43      	ldr	r3, [pc, #268]	; (2005bdc <__jp2uc+0x164>)
 2005ad0:	0052      	lsls	r2, r2, #1
 2005ad2:	189a      	adds	r2, r3, r2
 2005ad4:	8d90      	ldrh	r0, [r2, #44]	; 0x2c
 2005ad6:	e7d8      	b.n	2005a8a <__jp2uc+0x12>
 2005ad8:	01d9      	lsls	r1, r3, #7
 2005ada:	1acb      	subs	r3, r1, r3
 2005adc:	005b      	lsls	r3, r3, #1
 2005ade:	189a      	adds	r2, r3, r2
 2005ae0:	4b3f      	ldr	r3, [pc, #252]	; (2005be0 <__jp2uc+0x168>)
 2005ae2:	18d2      	adds	r2, r2, r3
 2005ae4:	4b3f      	ldr	r3, [pc, #252]	; (2005be4 <__jp2uc+0x16c>)
 2005ae6:	0052      	lsls	r2, r2, #1
 2005ae8:	5ad0      	ldrh	r0, [r2, r3]
 2005aea:	e7ce      	b.n	2005a8a <__jp2uc+0x12>
 2005aec:	335f      	adds	r3, #95	; 0x5f
 2005aee:	061b      	lsls	r3, r3, #24
 2005af0:	0e1b      	lsrs	r3, r3, #24
 2005af2:	2b07      	cmp	r3, #7
 2005af4:	d8c7      	bhi.n	2005a86 <__jp2uc+0xe>
 2005af6:	493c      	ldr	r1, [pc, #240]	; (2005be8 <__jp2uc+0x170>)
 2005af8:	009b      	lsls	r3, r3, #2
 2005afa:	58cb      	ldr	r3, [r1, r3]
 2005afc:	469f      	mov	pc, r3
 2005afe:	0403      	lsls	r3, r0, #16
 2005b00:	0602      	lsls	r2, r0, #24
 2005b02:	0e1b      	lsrs	r3, r3, #24
 2005b04:	0e12      	lsrs	r2, r2, #24
 2005b06:	e7ca      	b.n	2005a9e <__jp2uc+0x26>
 2005b08:	0602      	lsls	r2, r0, #24
 2005b0a:	0401      	lsls	r1, r0, #16
 2005b0c:	0e12      	lsrs	r2, r2, #24
 2005b0e:	0e09      	lsrs	r1, r1, #24
 2005b10:	2a9e      	cmp	r2, #158	; 0x9e
 2005b12:	d90c      	bls.n	2005b2e <__jp2uc+0xb6>
 2005b14:	3223      	adds	r2, #35	; 0x23
 2005b16:	0612      	lsls	r2, r2, #24
 2005b18:	0e12      	lsrs	r2, r2, #24
 2005b1a:	2380      	movs	r3, #128	; 0x80
 2005b1c:	299f      	cmp	r1, #159	; 0x9f
 2005b1e:	d80c      	bhi.n	2005b3a <__jp2uc+0xc2>
 2005b20:	3970      	subs	r1, #112	; 0x70
 2005b22:	0649      	lsls	r1, r1, #25
 2005b24:	0e09      	lsrs	r1, r1, #24
 2005b26:	185b      	adds	r3, r3, r1
 2005b28:	061b      	lsls	r3, r3, #24
 2005b2a:	0e1b      	lsrs	r3, r3, #24
 2005b2c:	e7b7      	b.n	2005a9e <__jp2uc+0x26>
 2005b2e:	3a7e      	subs	r2, #126	; 0x7e
 2005b30:	0612      	lsls	r2, r2, #24
 2005b32:	0e12      	lsrs	r2, r2, #24
 2005b34:	237f      	movs	r3, #127	; 0x7f
 2005b36:	299f      	cmp	r1, #159	; 0x9f
 2005b38:	d9f2      	bls.n	2005b20 <__jp2uc+0xa8>
 2005b3a:	3150      	adds	r1, #80	; 0x50
 2005b3c:	e7f1      	b.n	2005b22 <__jp2uc+0xaa>
 2005b3e:	2af1      	cmp	r2, #241	; 0xf1
 2005b40:	d8a1      	bhi.n	2005a86 <__jp2uc+0xe>
 2005b42:	3aa1      	subs	r2, #161	; 0xa1
 2005b44:	4b29      	ldr	r3, [pc, #164]	; (2005bec <__jp2uc+0x174>)
 2005b46:	0052      	lsls	r2, r2, #1
 2005b48:	189b      	adds	r3, r3, r2
 2005b4a:	336c      	adds	r3, #108	; 0x6c
 2005b4c:	8818      	ldrh	r0, [r3, #0]
 2005b4e:	2800      	cmp	r0, #0
 2005b50:	d19b      	bne.n	2005a8a <__jp2uc+0x12>
 2005b52:	e798      	b.n	2005a86 <__jp2uc+0xe>
 2005b54:	2ad8      	cmp	r2, #216	; 0xd8
 2005b56:	d900      	bls.n	2005b5a <__jp2uc+0xe2>
 2005b58:	e795      	b.n	2005a86 <__jp2uc+0xe>
 2005b5a:	3aa1      	subs	r2, #161	; 0xa1
 2005b5c:	4b24      	ldr	r3, [pc, #144]	; (2005bf0 <__jp2uc+0x178>)
 2005b5e:	0052      	lsls	r2, r2, #1
 2005b60:	189b      	adds	r3, r3, r2
 2005b62:	337c      	adds	r3, #124	; 0x7c
 2005b64:	8818      	ldrh	r0, [r3, #0]
 2005b66:	2800      	cmp	r0, #0
 2005b68:	d000      	beq.n	2005b6c <__jp2uc+0xf4>
 2005b6a:	e78e      	b.n	2005a8a <__jp2uc+0x12>
 2005b6c:	e78b      	b.n	2005a86 <__jp2uc+0xe>
 2005b6e:	2af6      	cmp	r2, #246	; 0xf6
 2005b70:	d900      	bls.n	2005b74 <__jp2uc+0xfc>
 2005b72:	e788      	b.n	2005a86 <__jp2uc+0xe>
 2005b74:	23c0      	movs	r3, #192	; 0xc0
 2005b76:	019b      	lsls	r3, r3, #6
 2005b78:	18d0      	adds	r0, r2, r3
 2005b7a:	e786      	b.n	2005a8a <__jp2uc+0x12>
 2005b7c:	2af3      	cmp	r2, #243	; 0xf3
 2005b7e:	d900      	bls.n	2005b82 <__jp2uc+0x10a>
 2005b80:	e781      	b.n	2005a86 <__jp2uc+0xe>
 2005b82:	4b1c      	ldr	r3, [pc, #112]	; (2005bf4 <__jp2uc+0x17c>)
 2005b84:	18d0      	adds	r0, r2, r3
 2005b86:	e780      	b.n	2005a8a <__jp2uc+0x12>
 2005b88:	4b19      	ldr	r3, [pc, #100]	; (2005bf0 <__jp2uc+0x178>)
 2005b8a:	189b      	adds	r3, r3, r2
 2005b8c:	3b81      	subs	r3, #129	; 0x81
 2005b8e:	781b      	ldrb	r3, [r3, #0]
 2005b90:	2b00      	cmp	r3, #0
 2005b92:	d100      	bne.n	2005b96 <__jp2uc+0x11e>
 2005b94:	e777      	b.n	2005a86 <__jp2uc+0xe>
 2005b96:	4b18      	ldr	r3, [pc, #96]	; (2005bf8 <__jp2uc+0x180>)
 2005b98:	18d0      	adds	r0, r2, r3
 2005b9a:	e776      	b.n	2005a8a <__jp2uc+0x12>
 2005b9c:	3aa1      	subs	r2, #161	; 0xa1
 2005b9e:	4b17      	ldr	r3, [pc, #92]	; (2005bfc <__jp2uc+0x184>)
 2005ba0:	0052      	lsls	r2, r2, #1
 2005ba2:	189b      	adds	r3, r3, r2
 2005ba4:	3364      	adds	r3, #100	; 0x64
 2005ba6:	8818      	ldrh	r0, [r3, #0]
 2005ba8:	2800      	cmp	r0, #0
 2005baa:	d000      	beq.n	2005bae <__jp2uc+0x136>
 2005bac:	e76d      	b.n	2005a8a <__jp2uc+0x12>
 2005bae:	e76a      	b.n	2005a86 <__jp2uc+0xe>
 2005bb0:	3aa1      	subs	r2, #161	; 0xa1
 2005bb2:	4b13      	ldr	r3, [pc, #76]	; (2005c00 <__jp2uc+0x188>)
 2005bb4:	0052      	lsls	r2, r2, #1
 2005bb6:	189a      	adds	r2, r3, r2
 2005bb8:	8d10      	ldrh	r0, [r2, #40]	; 0x28
 2005bba:	e766      	b.n	2005a8a <__jp2uc+0x12>
 2005bbc:	2ac0      	cmp	r2, #192	; 0xc0
 2005bbe:	d900      	bls.n	2005bc2 <__jp2uc+0x14a>
 2005bc0:	e761      	b.n	2005a86 <__jp2uc+0xe>
 2005bc2:	3aa1      	subs	r2, #161	; 0xa1
 2005bc4:	4b0f      	ldr	r3, [pc, #60]	; (2005c04 <__jp2uc+0x18c>)
 2005bc6:	0052      	lsls	r2, r2, #1
 2005bc8:	189b      	adds	r3, r3, r2
 2005bca:	8a18      	ldrh	r0, [r3, #16]
 2005bcc:	e75d      	b.n	2005a8a <__jp2uc+0x12>
 2005bce:	46c0      	nop			; (mov r8, r8)
 2005bd0:	0000cfd3 	.word	0x0000cfd3
 2005bd4:	0000f4a6 	.word	0x0000f4a6
 2005bd8:	ffff30ff 	.word	0xffff30ff
 2005bdc:	0200c2f8 	.word	0x0200c2f8
 2005be0:	ffff50bf 	.word	0xffff50bf
 2005be4:	0200abf8 	.word	0x0200abf8
 2005be8:	0200abd8 	.word	0x0200abd8
 2005bec:	0200df78 	.word	0x0200df78
 2005bf0:	0200def8 	.word	0x0200def8
 2005bf4:	00002fa0 	.word	0x00002fa0
 2005bf8:	0000fe60 	.word	0x0000fe60
 2005bfc:	0200ddf8 	.word	0x0200ddf8
 2005c00:	0200dd78 	.word	0x0200dd78
 2005c04:	0200e078 	.word	0x0200e078

02005c08 <_jp2uc>:
 2005c08:	b510      	push	{r4, lr}
 2005c0a:	1c04      	adds	r4, r0, #0
 2005c0c:	f000 f82e 	bl	2005c6c <__locale_charset>
 2005c10:	4913      	ldr	r1, [pc, #76]	; (2005c60 <_jp2uc+0x58>)
 2005c12:	f001 fd4b 	bl	20076ac <strcmp>
 2005c16:	2800      	cmp	r0, #0
 2005c18:	d01c      	beq.n	2005c54 <_jp2uc+0x4c>
 2005c1a:	f000 f827 	bl	2005c6c <__locale_charset>
 2005c1e:	4911      	ldr	r1, [pc, #68]	; (2005c64 <_jp2uc+0x5c>)
 2005c20:	f001 fd44 	bl	20076ac <strcmp>
 2005c24:	2800      	cmp	r0, #0
 2005c26:	d00c      	beq.n	2005c42 <_jp2uc+0x3a>
 2005c28:	f000 f820 	bl	2005c6c <__locale_charset>
 2005c2c:	490e      	ldr	r1, [pc, #56]	; (2005c68 <_jp2uc+0x60>)
 2005c2e:	f001 fd3d 	bl	20076ac <strcmp>
 2005c32:	2800      	cmp	r0, #0
 2005c34:	d10a      	bne.n	2005c4c <_jp2uc+0x44>
 2005c36:	1c20      	adds	r0, r4, #0
 2005c38:	2103      	movs	r1, #3
 2005c3a:	f7ff ff1d 	bl	2005a78 <__jp2uc>
 2005c3e:	1c04      	adds	r4, r0, #0
 2005c40:	e004      	b.n	2005c4c <_jp2uc+0x44>
 2005c42:	1c20      	adds	r0, r4, #0
 2005c44:	2102      	movs	r1, #2
 2005c46:	f7ff ff17 	bl	2005a78 <__jp2uc>
 2005c4a:	1c04      	adds	r4, r0, #0
 2005c4c:	1c20      	adds	r0, r4, #0
 2005c4e:	bc10      	pop	{r4}
 2005c50:	bc02      	pop	{r1}
 2005c52:	4708      	bx	r1
 2005c54:	1c20      	adds	r0, r4, #0
 2005c56:	2101      	movs	r1, #1
 2005c58:	f7ff ff0e 	bl	2005a78 <__jp2uc>
 2005c5c:	1c04      	adds	r4, r0, #0
 2005c5e:	e7f5      	b.n	2005c4c <_jp2uc+0x44>
 2005c60:	0200e458 	.word	0x0200e458
 2005c64:	0200e45c 	.word	0x0200e45c
 2005c68:	0200e464 	.word	0x0200e464

02005c6c <__locale_charset>:
 2005c6c:	4800      	ldr	r0, [pc, #0]	; (2005c70 <__locale_charset+0x4>)
 2005c6e:	4770      	bx	lr
 2005c70:	0200ed78 	.word	0x0200ed78

02005c74 <__locale_msgcharset>:
 2005c74:	4801      	ldr	r0, [pc, #4]	; (2005c7c <__locale_msgcharset+0x8>)
 2005c76:	3020      	adds	r0, #32
 2005c78:	4770      	bx	lr
 2005c7a:	46c0      	nop			; (mov r8, r8)
 2005c7c:	0200ed78 	.word	0x0200ed78

02005c80 <__locale_cjk_lang>:
 2005c80:	4b01      	ldr	r3, [pc, #4]	; (2005c88 <__locale_cjk_lang+0x8>)
 2005c82:	6818      	ldr	r0, [r3, #0]
 2005c84:	4770      	bx	lr
 2005c86:	46c0      	nop			; (mov r8, r8)
 2005c88:	0200f348 	.word	0x0200f348

02005c8c <_localeconv_r>:
 2005c8c:	4800      	ldr	r0, [pc, #0]	; (2005c90 <_localeconv_r+0x4>)
 2005c8e:	4770      	bx	lr
 2005c90:	0200e19c 	.word	0x0200e19c

02005c94 <localeconv>:
 2005c94:	4800      	ldr	r0, [pc, #0]	; (2005c98 <localeconv+0x4>)
 2005c96:	4770      	bx	lr
 2005c98:	0200e19c 	.word	0x0200e19c

02005c9c <__get_locale_env>:
 2005c9c:	b570      	push	{r4, r5, r6, lr}
 2005c9e:	1c0d      	adds	r5, r1, #0
 2005ca0:	4911      	ldr	r1, [pc, #68]	; (2005ce8 <__get_locale_env+0x4c>)
 2005ca2:	1c04      	adds	r4, r0, #0
 2005ca4:	f002 f930 	bl	2007f08 <_getenv_r>
 2005ca8:	2800      	cmp	r0, #0
 2005caa:	d002      	beq.n	2005cb2 <__get_locale_env+0x16>
 2005cac:	7803      	ldrb	r3, [r0, #0]
 2005cae:	2b00      	cmp	r3, #0
 2005cb0:	d116      	bne.n	2005ce0 <__get_locale_env+0x44>
 2005cb2:	4b0e      	ldr	r3, [pc, #56]	; (2005cec <__get_locale_env+0x50>)
 2005cb4:	00ad      	lsls	r5, r5, #2
 2005cb6:	195d      	adds	r5, r3, r5
 2005cb8:	6ba9      	ldr	r1, [r5, #56]	; 0x38
 2005cba:	1c20      	adds	r0, r4, #0
 2005cbc:	f002 f924 	bl	2007f08 <_getenv_r>
 2005cc0:	2800      	cmp	r0, #0
 2005cc2:	d002      	beq.n	2005cca <__get_locale_env+0x2e>
 2005cc4:	7803      	ldrb	r3, [r0, #0]
 2005cc6:	2b00      	cmp	r3, #0
 2005cc8:	d10a      	bne.n	2005ce0 <__get_locale_env+0x44>
 2005cca:	1c20      	adds	r0, r4, #0
 2005ccc:	4908      	ldr	r1, [pc, #32]	; (2005cf0 <__get_locale_env+0x54>)
 2005cce:	f002 f91b 	bl	2007f08 <_getenv_r>
 2005cd2:	2800      	cmp	r0, #0
 2005cd4:	d002      	beq.n	2005cdc <__get_locale_env+0x40>
 2005cd6:	7803      	ldrb	r3, [r0, #0]
 2005cd8:	2b00      	cmp	r3, #0
 2005cda:	d101      	bne.n	2005ce0 <__get_locale_env+0x44>
 2005cdc:	4805      	ldr	r0, [pc, #20]	; (2005cf4 <__get_locale_env+0x58>)
 2005cde:	3040      	adds	r0, #64	; 0x40
 2005ce0:	bc70      	pop	{r4, r5, r6}
 2005ce2:	bc02      	pop	{r1}
 2005ce4:	4708      	bx	r1
 2005ce6:	46c0      	nop			; (mov r8, r8)
 2005ce8:	0200e46c 	.word	0x0200e46c
 2005cec:	0200e19c 	.word	0x0200e19c
 2005cf0:	0200e474 	.word	0x0200e474
 2005cf4:	0200ed78 	.word	0x0200ed78

02005cf8 <loadlocale>:
 2005cf8:	b5f0      	push	{r4, r5, r6, r7, lr}
 2005cfa:	465f      	mov	r7, fp
 2005cfc:	4656      	mov	r6, sl
 2005cfe:	464d      	mov	r5, r9
 2005d00:	4644      	mov	r4, r8
 2005d02:	b4f0      	push	{r4, r5, r6, r7}
 2005d04:	b08d      	sub	sp, #52	; 0x34
 2005d06:	4ace      	ldr	r2, [pc, #824]	; (2006040 <loadlocale+0x348>)
 2005d08:	1c14      	adds	r4, r2, #0
 2005d0a:	014f      	lsls	r7, r1, #5
 2005d0c:	3404      	adds	r4, #4
 2005d0e:	19e4      	adds	r4, r4, r7
 2005d10:	4682      	mov	sl, r0
 2005d12:	1c0e      	adds	r6, r1, #0
 2005d14:	1c20      	adds	r0, r4, #0
 2005d16:	49cb      	ldr	r1, [pc, #812]	; (2006044 <loadlocale+0x34c>)
 2005d18:	4690      	mov	r8, r2
 2005d1a:	f001 fcc7 	bl	20076ac <strcmp>
 2005d1e:	2800      	cmp	r0, #0
 2005d20:	d01f      	beq.n	2005d62 <loadlocale+0x6a>
 2005d22:	4dc9      	ldr	r5, [pc, #804]	; (2006048 <loadlocale+0x350>)
 2005d24:	1c20      	adds	r0, r4, #0
 2005d26:	1c29      	adds	r1, r5, #0
 2005d28:	f001 fcc0 	bl	20076ac <strcmp>
 2005d2c:	2800      	cmp	r0, #0
 2005d2e:	d100      	bne.n	2005d32 <loadlocale+0x3a>
 2005d30:	e11f      	b.n	2005f72 <loadlocale+0x27a>
 2005d32:	7823      	ldrb	r3, [r4, #0]
 2005d34:	2b43      	cmp	r3, #67	; 0x43
 2005d36:	d105      	bne.n	2005d44 <loadlocale+0x4c>
 2005d38:	7862      	ldrb	r2, [r4, #1]
 2005d3a:	3a2d      	subs	r2, #45	; 0x2d
 2005d3c:	0612      	lsls	r2, r2, #24
 2005d3e:	0e12      	lsrs	r2, r2, #24
 2005d40:	2a01      	cmp	r2, #1
 2005d42:	d933      	bls.n	2005dac <loadlocale+0xb4>
 2005d44:	3b61      	subs	r3, #97	; 0x61
 2005d46:	061b      	lsls	r3, r3, #24
 2005d48:	0e1b      	lsrs	r3, r3, #24
 2005d4a:	2b19      	cmp	r3, #25
 2005d4c:	d90f      	bls.n	2005d6e <loadlocale+0x76>
 2005d4e:	2000      	movs	r0, #0
 2005d50:	b00d      	add	sp, #52	; 0x34
 2005d52:	bc3c      	pop	{r2, r3, r4, r5}
 2005d54:	4690      	mov	r8, r2
 2005d56:	4699      	mov	r9, r3
 2005d58:	46a2      	mov	sl, r4
 2005d5a:	46ab      	mov	fp, r5
 2005d5c:	bcf0      	pop	{r4, r5, r6, r7}
 2005d5e:	bc02      	pop	{r1}
 2005d60:	4708      	bx	r1
 2005d62:	4db9      	ldr	r5, [pc, #740]	; (2006048 <loadlocale+0x350>)
 2005d64:	1c20      	adds	r0, r4, #0
 2005d66:	1c29      	adds	r1, r5, #0
 2005d68:	f001 fcaa 	bl	20076c0 <strcpy>
 2005d6c:	e7da      	b.n	2005d24 <loadlocale+0x2c>
 2005d6e:	7863      	ldrb	r3, [r4, #1]
 2005d70:	2b60      	cmp	r3, #96	; 0x60
 2005d72:	d9ec      	bls.n	2005d4e <loadlocale+0x56>
 2005d74:	2b7a      	cmp	r3, #122	; 0x7a
 2005d76:	d8ea      	bhi.n	2005d4e <loadlocale+0x56>
 2005d78:	1ca3      	adds	r3, r4, #2
 2005d7a:	4699      	mov	r9, r3
 2005d7c:	78a3      	ldrb	r3, [r4, #2]
 2005d7e:	2b5f      	cmp	r3, #95	; 0x5f
 2005d80:	d100      	bne.n	2005d84 <loadlocale+0x8c>
 2005d82:	e1a7      	b.n	20060d4 <loadlocale+0x3dc>
 2005d84:	2b2e      	cmp	r3, #46	; 0x2e
 2005d86:	d100      	bne.n	2005d8a <loadlocale+0x92>
 2005d88:	e146      	b.n	2006018 <loadlocale+0x320>
 2005d8a:	2b40      	cmp	r3, #64	; 0x40
 2005d8c:	d001      	beq.n	2005d92 <loadlocale+0x9a>
 2005d8e:	2b00      	cmp	r3, #0
 2005d90:	d1dd      	bne.n	2005d4e <loadlocale+0x56>
 2005d92:	ad03      	add	r5, sp, #12
 2005d94:	1c28      	adds	r0, r5, #0
 2005d96:	49ad      	ldr	r1, [pc, #692]	; (200604c <loadlocale+0x354>)
 2005d98:	f001 fc92 	bl	20076c0 <strcpy>
 2005d9c:	464a      	mov	r2, r9
 2005d9e:	7813      	ldrb	r3, [r2, #0]
 2005da0:	2b40      	cmp	r3, #64	; 0x40
 2005da2:	d100      	bne.n	2005da6 <loadlocale+0xae>
 2005da4:	e1a9      	b.n	20060fa <loadlocale+0x402>
 2005da6:	2200      	movs	r2, #0
 2005da8:	4691      	mov	r9, r2
 2005daa:	e006      	b.n	2005dba <loadlocale+0xc2>
 2005dac:	ad03      	add	r5, sp, #12
 2005dae:	1ca1      	adds	r1, r4, #2
 2005db0:	1c28      	adds	r0, r5, #0
 2005db2:	f001 fc85 	bl	20076c0 <strcpy>
 2005db6:	2200      	movs	r2, #0
 2005db8:	4691      	mov	r9, r2
 2005dba:	782b      	ldrb	r3, [r5, #0]
 2005dbc:	3b41      	subs	r3, #65	; 0x41
 2005dbe:	061b      	lsls	r3, r3, #24
 2005dc0:	0e1b      	lsrs	r3, r3, #24
 2005dc2:	2b34      	cmp	r3, #52	; 0x34
 2005dc4:	d8c3      	bhi.n	2005d4e <loadlocale+0x56>
 2005dc6:	4aa2      	ldr	r2, [pc, #648]	; (2006050 <loadlocale+0x358>)
 2005dc8:	009b      	lsls	r3, r3, #2
 2005dca:	58d3      	ldr	r3, [r2, r3]
 2005dcc:	469f      	mov	pc, r3
 2005dce:	4ba1      	ldr	r3, [pc, #644]	; (2006054 <loadlocale+0x35c>)
 2005dd0:	1c28      	adds	r0, r5, #0
 2005dd2:	1c19      	adds	r1, r3, #0
 2005dd4:	469a      	mov	sl, r3
 2005dd6:	f001 fbad 	bl	2007534 <strcasecmp>
 2005dda:	2800      	cmp	r0, #0
 2005ddc:	d000      	beq.n	2005de0 <loadlocale+0xe8>
 2005dde:	e113      	b.n	2006008 <loadlocale+0x310>
 2005de0:	4651      	mov	r1, sl
 2005de2:	1c28      	adds	r0, r5, #0
 2005de4:	f001 fc6c 	bl	20076c0 <strcpy>
 2005de8:	4a9b      	ldr	r2, [pc, #620]	; (2006058 <loadlocale+0x360>)
 2005dea:	4b9c      	ldr	r3, [pc, #624]	; (200605c <loadlocale+0x364>)
 2005dec:	9201      	str	r2, [sp, #4]
 2005dee:	2206      	movs	r2, #6
 2005df0:	469b      	mov	fp, r3
 2005df2:	4692      	mov	sl, r2
 2005df4:	2e02      	cmp	r6, #2
 2005df6:	d100      	bne.n	2005dfa <loadlocale+0x102>
 2005df8:	e0c3      	b.n	2005f82 <loadlocale+0x28a>
 2005dfa:	2e06      	cmp	r6, #6
 2005dfc:	d100      	bne.n	2005e00 <loadlocale+0x108>
 2005dfe:	e0f0      	b.n	2005fe2 <loadlocale+0x2ea>
 2005e00:	4e97      	ldr	r6, [pc, #604]	; (2006060 <loadlocale+0x368>)
 2005e02:	3664      	adds	r6, #100	; 0x64
 2005e04:	19f0      	adds	r0, r6, r7
 2005e06:	1c21      	adds	r1, r4, #0
 2005e08:	f001 fc5a 	bl	20076c0 <strcpy>
 2005e0c:	e7a0      	b.n	2005d50 <loadlocale+0x58>
 2005e0e:	1c28      	adds	r0, r5, #0
 2005e10:	4994      	ldr	r1, [pc, #592]	; (2006064 <loadlocale+0x36c>)
 2005e12:	2209      	movs	r2, #9
 2005e14:	f001 fc7e 	bl	2007714 <strncasecmp>
 2005e18:	2800      	cmp	r0, #0
 2005e1a:	d198      	bne.n	2005d4e <loadlocale+0x56>
 2005e1c:	4992      	ldr	r1, [pc, #584]	; (2006068 <loadlocale+0x370>)
 2005e1e:	2203      	movs	r2, #3
 2005e20:	1c28      	adds	r0, r5, #0
 2005e22:	f001 fd07 	bl	2007834 <strncpy>
 2005e26:	4669      	mov	r1, sp
 2005e28:	230a      	movs	r3, #10
 2005e2a:	4650      	mov	r0, sl
 2005e2c:	3115      	adds	r1, #21
 2005e2e:	aa0b      	add	r2, sp, #44	; 0x2c
 2005e30:	f001 fd32 	bl	2007898 <_strtol_r>
 2005e34:	1e43      	subs	r3, r0, #1
 2005e36:	2b0f      	cmp	r3, #15
 2005e38:	d900      	bls.n	2005e3c <loadlocale+0x144>
 2005e3a:	e788      	b.n	2005d4e <loadlocale+0x56>
 2005e3c:	280c      	cmp	r0, #12
 2005e3e:	d100      	bne.n	2005e42 <loadlocale+0x14a>
 2005e40:	e785      	b.n	2005d4e <loadlocale+0x56>
 2005e42:	9b0b      	ldr	r3, [sp, #44]	; 0x2c
 2005e44:	781b      	ldrb	r3, [r3, #0]
 2005e46:	2b00      	cmp	r3, #0
 2005e48:	d000      	beq.n	2005e4c <loadlocale+0x154>
 2005e4a:	e780      	b.n	2005d4e <loadlocale+0x56>
 2005e4c:	4b87      	ldr	r3, [pc, #540]	; (200606c <loadlocale+0x374>)
 2005e4e:	4a88      	ldr	r2, [pc, #544]	; (2006070 <loadlocale+0x378>)
 2005e50:	9301      	str	r3, [sp, #4]
 2005e52:	2301      	movs	r3, #1
 2005e54:	4693      	mov	fp, r2
 2005e56:	469a      	mov	sl, r3
 2005e58:	e7cc      	b.n	2005df4 <loadlocale+0xfc>
 2005e5a:	786b      	ldrb	r3, [r5, #1]
 2005e5c:	2b70      	cmp	r3, #112	; 0x70
 2005e5e:	d002      	beq.n	2005e66 <loadlocale+0x16e>
 2005e60:	2b50      	cmp	r3, #80	; 0x50
 2005e62:	d000      	beq.n	2005e66 <loadlocale+0x16e>
 2005e64:	e773      	b.n	2005d4e <loadlocale+0x56>
 2005e66:	4983      	ldr	r1, [pc, #524]	; (2006074 <loadlocale+0x37c>)
 2005e68:	2202      	movs	r2, #2
 2005e6a:	1c28      	adds	r0, r5, #0
 2005e6c:	f001 fce2 	bl	2007834 <strncpy>
 2005e70:	4669      	mov	r1, sp
 2005e72:	230a      	movs	r3, #10
 2005e74:	4650      	mov	r0, sl
 2005e76:	310e      	adds	r1, #14
 2005e78:	aa0b      	add	r2, sp, #44	; 0x2c
 2005e7a:	f001 fd0d 	bl	2007898 <_strtol_r>
 2005e7e:	9b0b      	ldr	r3, [sp, #44]	; 0x2c
 2005e80:	781b      	ldrb	r3, [r3, #0]
 2005e82:	2b00      	cmp	r3, #0
 2005e84:	d000      	beq.n	2005e88 <loadlocale+0x190>
 2005e86:	e762      	b.n	2005d4e <loadlocale+0x56>
 2005e88:	4b7b      	ldr	r3, [pc, #492]	; (2006078 <loadlocale+0x380>)
 2005e8a:	4298      	cmp	r0, r3
 2005e8c:	d900      	bls.n	2005e90 <loadlocale+0x198>
 2005e8e:	e14d      	b.n	200612c <loadlocale+0x434>
 2005e90:	3b01      	subs	r3, #1
 2005e92:	4298      	cmp	r0, r3
 2005e94:	d2da      	bcs.n	2005e4c <loadlocale+0x154>
 2005e96:	3b52      	subs	r3, #82	; 0x52
 2005e98:	4298      	cmp	r0, r3
 2005e9a:	d0d7      	beq.n	2005e4c <loadlocale+0x154>
 2005e9c:	4298      	cmp	r0, r3
 2005e9e:	d900      	bls.n	2005ea2 <loadlocale+0x1aa>
 2005ea0:	e136      	b.n	2006110 <loadlocale+0x418>
 2005ea2:	23b4      	movs	r3, #180	; 0xb4
 2005ea4:	009b      	lsls	r3, r3, #2
 2005ea6:	4298      	cmp	r0, r3
 2005ea8:	d0d0      	beq.n	2005e4c <loadlocale+0x154>
 2005eaa:	4b74      	ldr	r3, [pc, #464]	; (200607c <loadlocale+0x384>)
 2005eac:	4298      	cmp	r0, r3
 2005eae:	d0cd      	beq.n	2005e4c <loadlocale+0x154>
 2005eb0:	4b73      	ldr	r3, [pc, #460]	; (2006080 <loadlocale+0x388>)
 2005eb2:	4298      	cmp	r0, r3
 2005eb4:	d000      	beq.n	2005eb8 <loadlocale+0x1c0>
 2005eb6:	e74a      	b.n	2005d4e <loadlocale+0x56>
 2005eb8:	e7c8      	b.n	2005e4c <loadlocale+0x154>
 2005eba:	4a72      	ldr	r2, [pc, #456]	; (2006084 <loadlocale+0x38c>)
 2005ebc:	1c28      	adds	r0, r5, #0
 2005ebe:	1c11      	adds	r1, r2, #0
 2005ec0:	4692      	mov	sl, r2
 2005ec2:	f001 fb37 	bl	2007534 <strcasecmp>
 2005ec6:	2800      	cmp	r0, #0
 2005ec8:	d000      	beq.n	2005ecc <loadlocale+0x1d4>
 2005eca:	e740      	b.n	2005d4e <loadlocale+0x56>
 2005ecc:	1c28      	adds	r0, r5, #0
 2005ece:	4651      	mov	r1, sl
 2005ed0:	f001 fbf6 	bl	20076c0 <strcpy>
 2005ed4:	e7ba      	b.n	2005e4c <loadlocale+0x154>
 2005ed6:	1c28      	adds	r0, r5, #0
 2005ed8:	496b      	ldr	r1, [pc, #428]	; (2006088 <loadlocale+0x390>)
 2005eda:	f001 fb2b 	bl	2007534 <strcasecmp>
 2005ede:	2800      	cmp	r0, #0
 2005ee0:	d000      	beq.n	2005ee4 <loadlocale+0x1ec>
 2005ee2:	e085      	b.n	2005ff0 <loadlocale+0x2f8>
 2005ee4:	1c28      	adds	r0, r5, #0
 2005ee6:	4969      	ldr	r1, [pc, #420]	; (200608c <loadlocale+0x394>)
 2005ee8:	f001 fbea 	bl	20076c0 <strcpy>
 2005eec:	4a5f      	ldr	r2, [pc, #380]	; (200606c <loadlocale+0x374>)
 2005eee:	4b60      	ldr	r3, [pc, #384]	; (2006070 <loadlocale+0x378>)
 2005ef0:	9201      	str	r2, [sp, #4]
 2005ef2:	2201      	movs	r2, #1
 2005ef4:	469b      	mov	fp, r3
 2005ef6:	4692      	mov	sl, r2
 2005ef8:	e77c      	b.n	2005df4 <loadlocale+0xfc>
 2005efa:	4b65      	ldr	r3, [pc, #404]	; (2006090 <loadlocale+0x398>)
 2005efc:	1c28      	adds	r0, r5, #0
 2005efe:	1c19      	adds	r1, r3, #0
 2005f00:	469a      	mov	sl, r3
 2005f02:	f001 fb17 	bl	2007534 <strcasecmp>
 2005f06:	2800      	cmp	r0, #0
 2005f08:	d000      	beq.n	2005f0c <loadlocale+0x214>
 2005f0a:	e720      	b.n	2005d4e <loadlocale+0x56>
 2005f0c:	4651      	mov	r1, sl
 2005f0e:	1c28      	adds	r0, r5, #0
 2005f10:	f001 fbd6 	bl	20076c0 <strcpy>
 2005f14:	4a5f      	ldr	r2, [pc, #380]	; (2006094 <loadlocale+0x39c>)
 2005f16:	4b60      	ldr	r3, [pc, #384]	; (2006098 <loadlocale+0x3a0>)
 2005f18:	9201      	str	r2, [sp, #4]
 2005f1a:	2208      	movs	r2, #8
 2005f1c:	469b      	mov	fp, r3
 2005f1e:	4692      	mov	sl, r2
 2005f20:	e768      	b.n	2005df4 <loadlocale+0xfc>
 2005f22:	4b5e      	ldr	r3, [pc, #376]	; (200609c <loadlocale+0x3a4>)
 2005f24:	1c28      	adds	r0, r5, #0
 2005f26:	1c19      	adds	r1, r3, #0
 2005f28:	469a      	mov	sl, r3
 2005f2a:	f001 fb03 	bl	2007534 <strcasecmp>
 2005f2e:	2800      	cmp	r0, #0
 2005f30:	d000      	beq.n	2005f34 <loadlocale+0x23c>
 2005f32:	e70c      	b.n	2005d4e <loadlocale+0x56>
 2005f34:	4651      	mov	r1, sl
 2005f36:	1c28      	adds	r0, r5, #0
 2005f38:	f001 fbc2 	bl	20076c0 <strcpy>
 2005f3c:	4a58      	ldr	r2, [pc, #352]	; (20060a0 <loadlocale+0x3a8>)
 2005f3e:	4b59      	ldr	r3, [pc, #356]	; (20060a4 <loadlocale+0x3ac>)
 2005f40:	9201      	str	r2, [sp, #4]
 2005f42:	2203      	movs	r2, #3
 2005f44:	469b      	mov	fp, r3
 2005f46:	4692      	mov	sl, r2
 2005f48:	e754      	b.n	2005df4 <loadlocale+0xfc>
 2005f4a:	4b57      	ldr	r3, [pc, #348]	; (20060a8 <loadlocale+0x3b0>)
 2005f4c:	1c28      	adds	r0, r5, #0
 2005f4e:	1c19      	adds	r1, r3, #0
 2005f50:	469a      	mov	sl, r3
 2005f52:	f001 faef 	bl	2007534 <strcasecmp>
 2005f56:	2800      	cmp	r0, #0
 2005f58:	d000      	beq.n	2005f5c <loadlocale+0x264>
 2005f5a:	e6f8      	b.n	2005d4e <loadlocale+0x56>
 2005f5c:	4651      	mov	r1, sl
 2005f5e:	1c28      	adds	r0, r5, #0
 2005f60:	f001 fbae 	bl	20076c0 <strcpy>
 2005f64:	4a51      	ldr	r2, [pc, #324]	; (20060ac <loadlocale+0x3b4>)
 2005f66:	4b52      	ldr	r3, [pc, #328]	; (20060b0 <loadlocale+0x3b8>)
 2005f68:	9201      	str	r2, [sp, #4]
 2005f6a:	2202      	movs	r2, #2
 2005f6c:	469b      	mov	fp, r3
 2005f6e:	4692      	mov	sl, r2
 2005f70:	e740      	b.n	2005df4 <loadlocale+0xfc>
 2005f72:	ad03      	add	r5, sp, #12
 2005f74:	1c28      	adds	r0, r5, #0
 2005f76:	4937      	ldr	r1, [pc, #220]	; (2006054 <loadlocale+0x35c>)
 2005f78:	f001 fba2 	bl	20076c0 <strcpy>
 2005f7c:	2300      	movs	r3, #0
 2005f7e:	4699      	mov	r9, r3
 2005f80:	e71b      	b.n	2005dba <loadlocale+0xc2>
 2005f82:	4e37      	ldr	r6, [pc, #220]	; (2006060 <loadlocale+0x368>)
 2005f84:	1c29      	adds	r1, r5, #0
 2005f86:	1c30      	adds	r0, r6, #0
 2005f88:	f001 fb9a 	bl	20076c0 <strcpy>
 2005f8c:	4b49      	ldr	r3, [pc, #292]	; (20060b4 <loadlocale+0x3bc>)
 2005f8e:	4652      	mov	r2, sl
 2005f90:	6632      	str	r2, [r6, #96]	; 0x60
 2005f92:	465a      	mov	r2, fp
 2005f94:	601a      	str	r2, [r3, #0]
 2005f96:	4b48      	ldr	r3, [pc, #288]	; (20060b8 <loadlocale+0x3c0>)
 2005f98:	9a01      	ldr	r2, [sp, #4]
 2005f9a:	1c28      	adds	r0, r5, #0
 2005f9c:	601a      	str	r2, [r3, #0]
 2005f9e:	f7fe ffe3 	bl	2004f68 <__set_ctype>
 2005fa2:	464b      	mov	r3, r9
 2005fa4:	2b00      	cmp	r3, #0
 2005fa6:	d003      	beq.n	2005fb0 <loadlocale+0x2b8>
 2005fa8:	2300      	movs	r3, #0
 2005faa:	4642      	mov	r2, r8
 2005fac:	6013      	str	r3, [r2, #0]
 2005fae:	e728      	b.n	2005e02 <loadlocale+0x10a>
 2005fb0:	1c20      	adds	r0, r4, #0
 2005fb2:	4942      	ldr	r1, [pc, #264]	; (20060bc <loadlocale+0x3c4>)
 2005fb4:	2202      	movs	r2, #2
 2005fb6:	f001 fbe7 	bl	2007788 <strncmp>
 2005fba:	2800      	cmp	r0, #0
 2005fbc:	d101      	bne.n	2005fc2 <loadlocale+0x2ca>
 2005fbe:	2301      	movs	r3, #1
 2005fc0:	e7f3      	b.n	2005faa <loadlocale+0x2b2>
 2005fc2:	1c20      	adds	r0, r4, #0
 2005fc4:	493e      	ldr	r1, [pc, #248]	; (20060c0 <loadlocale+0x3c8>)
 2005fc6:	2202      	movs	r2, #2
 2005fc8:	f001 fbde 	bl	2007788 <strncmp>
 2005fcc:	2800      	cmp	r0, #0
 2005fce:	d0f6      	beq.n	2005fbe <loadlocale+0x2c6>
 2005fd0:	1c20      	adds	r0, r4, #0
 2005fd2:	493c      	ldr	r1, [pc, #240]	; (20060c4 <loadlocale+0x3cc>)
 2005fd4:	2202      	movs	r2, #2
 2005fd6:	f001 fbd7 	bl	2007788 <strncmp>
 2005fda:	2800      	cmp	r0, #0
 2005fdc:	d1e4      	bne.n	2005fa8 <loadlocale+0x2b0>
 2005fde:	2301      	movs	r3, #1
 2005fe0:	e7e3      	b.n	2005faa <loadlocale+0x2b2>
 2005fe2:	4e1f      	ldr	r6, [pc, #124]	; (2006060 <loadlocale+0x368>)
 2005fe4:	1c30      	adds	r0, r6, #0
 2005fe6:	1c29      	adds	r1, r5, #0
 2005fe8:	3020      	adds	r0, #32
 2005fea:	f001 fb69 	bl	20076c0 <strcpy>
 2005fee:	e708      	b.n	2005e02 <loadlocale+0x10a>
 2005ff0:	1c28      	adds	r0, r5, #0
 2005ff2:	4935      	ldr	r1, [pc, #212]	; (20060c8 <loadlocale+0x3d0>)
 2005ff4:	f001 fa9e 	bl	2007534 <strcasecmp>
 2005ff8:	2800      	cmp	r0, #0
 2005ffa:	d000      	beq.n	2005ffe <loadlocale+0x306>
 2005ffc:	e6a7      	b.n	2005d4e <loadlocale+0x56>
 2005ffe:	1c28      	adds	r0, r5, #0
 2006000:	4932      	ldr	r1, [pc, #200]	; (20060cc <loadlocale+0x3d4>)
 2006002:	f001 fb5d 	bl	20076c0 <strcpy>
 2006006:	e721      	b.n	2005e4c <loadlocale+0x154>
 2006008:	1c28      	adds	r0, r5, #0
 200600a:	4931      	ldr	r1, [pc, #196]	; (20060d0 <loadlocale+0x3d8>)
 200600c:	f001 fa92 	bl	2007534 <strcasecmp>
 2006010:	2800      	cmp	r0, #0
 2006012:	d100      	bne.n	2006016 <loadlocale+0x31e>
 2006014:	e6e4      	b.n	2005de0 <loadlocale+0xe8>
 2006016:	e69a      	b.n	2005d4e <loadlocale+0x56>
 2006018:	2301      	movs	r3, #1
 200601a:	4499      	add	r9, r3
 200601c:	ad03      	add	r5, sp, #12
 200601e:	4649      	mov	r1, r9
 2006020:	1c28      	adds	r0, r5, #0
 2006022:	f001 fb4d 	bl	20076c0 <strcpy>
 2006026:	1c28      	adds	r0, r5, #0
 2006028:	2140      	movs	r1, #64	; 0x40
 200602a:	f001 fad5 	bl	20075d8 <strchr>
 200602e:	2800      	cmp	r0, #0
 2006030:	d001      	beq.n	2006036 <loadlocale+0x33e>
 2006032:	2300      	movs	r3, #0
 2006034:	7003      	strb	r3, [r0, #0]
 2006036:	1c28      	adds	r0, r5, #0
 2006038:	f7fc fffe 	bl	2003038 <strlen>
 200603c:	4481      	add	r9, r0
 200603e:	e6ad      	b.n	2005d9c <loadlocale+0xa4>
 2006040:	0200f348 	.word	0x0200f348
 2006044:	0200e47c 	.word	0x0200e47c
 2006048:	0200e424 	.word	0x0200e424
 200604c:	0200e48c 	.word	0x0200e48c
 2006050:	0200e0c8 	.word	0x0200e0c8
 2006054:	0200e484 	.word	0x0200e484
 2006058:	02006b9d 	.word	0x02006b9d
 200605c:	02004c29 	.word	0x02004c29
 2006060:	0200ed78 	.word	0x0200ed78
 2006064:	0200e4ac 	.word	0x0200e4ac
 2006068:	0200e4b8 	.word	0x0200e4b8
 200606c:	02006b6d 	.word	0x02006b6d
 2006070:	02004c09 	.word	0x02004c09
 2006074:	0200e4bc 	.word	0x0200e4bc
 2006078:	0000035a 	.word	0x0000035a
 200607c:	000002e1 	.word	0x000002e1
 2006080:	000001b5 	.word	0x000001b5
 2006084:	0200e4e0 	.word	0x0200e4e0
 2006088:	0200e4c0 	.word	0x0200e4c0
 200608c:	0200e4c8 	.word	0x0200e4c8
 2006090:	0200e458 	.word	0x0200e458
 2006094:	02006ed9 	.word	0x02006ed9
 2006098:	02004dd5 	.word	0x02004dd5
 200609c:	0200e464 	.word	0x0200e464
 20060a0:	02006e29 	.word	0x02006e29
 20060a4:	02004d4d 	.word	0x02004d4d
 20060a8:	0200e45c 	.word	0x0200e45c
 20060ac:	02006da1 	.word	0x02006da1
 20060b0:	02004ced 	.word	0x02004ced
 20060b4:	0200ed70 	.word	0x0200ed70
 20060b8:	0200f2cc 	.word	0x0200f2cc
 20060bc:	0200e4e8 	.word	0x0200e4e8
 20060c0:	0200e4ec 	.word	0x0200e4ec
 20060c4:	0200e4f0 	.word	0x0200e4f0
 20060c8:	0200e4d0 	.word	0x0200e4d0
 20060cc:	0200e4d8 	.word	0x0200e4d8
 20060d0:	0200e4a4 	.word	0x0200e4a4
 20060d4:	78e2      	ldrb	r2, [r4, #3]
 20060d6:	3a41      	subs	r2, #65	; 0x41
 20060d8:	0612      	lsls	r2, r2, #24
 20060da:	0e12      	lsrs	r2, r2, #24
 20060dc:	1ce3      	adds	r3, r4, #3
 20060de:	2a19      	cmp	r2, #25
 20060e0:	d900      	bls.n	20060e4 <loadlocale+0x3ec>
 20060e2:	e634      	b.n	2005d4e <loadlocale+0x56>
 20060e4:	785b      	ldrb	r3, [r3, #1]
 20060e6:	2b40      	cmp	r3, #64	; 0x40
 20060e8:	d800      	bhi.n	20060ec <loadlocale+0x3f4>
 20060ea:	e630      	b.n	2005d4e <loadlocale+0x56>
 20060ec:	2b5a      	cmp	r3, #90	; 0x5a
 20060ee:	d900      	bls.n	20060f2 <loadlocale+0x3fa>
 20060f0:	e62d      	b.n	2005d4e <loadlocale+0x56>
 20060f2:	1d62      	adds	r2, r4, #5
 20060f4:	4691      	mov	r9, r2
 20060f6:	7963      	ldrb	r3, [r4, #5]
 20060f8:	e644      	b.n	2005d84 <loadlocale+0x8c>
 20060fa:	4648      	mov	r0, r9
 20060fc:	3001      	adds	r0, #1
 20060fe:	4919      	ldr	r1, [pc, #100]	; (2006164 <loadlocale+0x46c>)
 2006100:	f001 fad4 	bl	20076ac <strcmp>
 2006104:	2800      	cmp	r0, #0
 2006106:	d000      	beq.n	200610a <loadlocale+0x412>
 2006108:	e64d      	b.n	2005da6 <loadlocale+0xae>
 200610a:	2301      	movs	r3, #1
 200610c:	4699      	mov	r9, r3
 200610e:	e654      	b.n	2005dba <loadlocale+0xc2>
 2006110:	23d5      	movs	r3, #213	; 0xd5
 2006112:	009b      	lsls	r3, r3, #2
 2006114:	4298      	cmp	r0, r3
 2006116:	d100      	bne.n	200611a <loadlocale+0x422>
 2006118:	e698      	b.n	2005e4c <loadlocale+0x154>
 200611a:	4b13      	ldr	r3, [pc, #76]	; (2006168 <loadlocale+0x470>)
 200611c:	4298      	cmp	r0, r3
 200611e:	d100      	bne.n	2006122 <loadlocale+0x42a>
 2006120:	e694      	b.n	2005e4c <loadlocale+0x154>
 2006122:	3b05      	subs	r3, #5
 2006124:	4298      	cmp	r0, r3
 2006126:	d000      	beq.n	200612a <loadlocale+0x432>
 2006128:	e611      	b.n	2005d4e <loadlocale+0x56>
 200612a:	e68f      	b.n	2005e4c <loadlocale+0x154>
 200612c:	4b0f      	ldr	r3, [pc, #60]	; (200616c <loadlocale+0x474>)
 200612e:	4298      	cmp	r0, r3
 2006130:	d100      	bne.n	2006134 <loadlocale+0x43c>
 2006132:	e68b      	b.n	2005e4c <loadlocale+0x154>
 2006134:	4298      	cmp	r0, r3
 2006136:	d808      	bhi.n	200614a <loadlocale+0x452>
 2006138:	3b0c      	subs	r3, #12
 200613a:	4298      	cmp	r0, r3
 200613c:	d100      	bne.n	2006140 <loadlocale+0x448>
 200613e:	e685      	b.n	2005e4c <loadlocale+0x154>
 2006140:	3304      	adds	r3, #4
 2006142:	4298      	cmp	r0, r3
 2006144:	d000      	beq.n	2006148 <loadlocale+0x450>
 2006146:	e602      	b.n	2005d4e <loadlocale+0x56>
 2006148:	e680      	b.n	2005e4c <loadlocale+0x154>
 200614a:	4b09      	ldr	r3, [pc, #36]	; (2006170 <loadlocale+0x478>)
 200614c:	4298      	cmp	r0, r3
 200614e:	d100      	bne.n	2006152 <loadlocale+0x45a>
 2006150:	e67c      	b.n	2005e4c <loadlocale+0x154>
 2006152:	4298      	cmp	r0, r3
 2006154:	d200      	bcs.n	2006158 <loadlocale+0x460>
 2006156:	e5fa      	b.n	2005d4e <loadlocale+0x56>
 2006158:	4a06      	ldr	r2, [pc, #24]	; (2006174 <loadlocale+0x47c>)
 200615a:	1880      	adds	r0, r0, r2
 200615c:	2808      	cmp	r0, #8
 200615e:	d900      	bls.n	2006162 <loadlocale+0x46a>
 2006160:	e5f5      	b.n	2005d4e <loadlocale+0x56>
 2006162:	e673      	b.n	2005e4c <loadlocale+0x154>
 2006164:	0200e498 	.word	0x0200e498
 2006168:	00000357 	.word	0x00000357
 200616c:	0000036a 	.word	0x0000036a
 2006170:	00000465 	.word	0x00000465
 2006174:	fffffb1e 	.word	0xfffffb1e

02006178 <currentlocale>:
 2006178:	b5f0      	push	{r4, r5, r6, r7, lr}
 200617a:	4647      	mov	r7, r8
 200617c:	b480      	push	{r7}
 200617e:	4e1a      	ldr	r6, [pc, #104]	; (20061e8 <currentlocale+0x70>)
 2006180:	4f1a      	ldr	r7, [pc, #104]	; (20061ec <currentlocale+0x74>)
 2006182:	1c35      	adds	r5, r6, #0
 2006184:	2364      	movs	r3, #100	; 0x64
 2006186:	3584      	adds	r5, #132	; 0x84
 2006188:	1c38      	adds	r0, r7, #0
 200618a:	199b      	adds	r3, r3, r6
 200618c:	3064      	adds	r0, #100	; 0x64
 200618e:	1c29      	adds	r1, r5, #0
 2006190:	4698      	mov	r8, r3
 2006192:	f001 fa95 	bl	20076c0 <strcpy>
 2006196:	23a2      	movs	r3, #162	; 0xa2
 2006198:	1c34      	adds	r4, r6, #0
 200619a:	005b      	lsls	r3, r3, #1
 200619c:	34a4      	adds	r4, #164	; 0xa4
 200619e:	18f6      	adds	r6, r6, r3
 20061a0:	1c28      	adds	r0, r5, #0
 20061a2:	1c21      	adds	r1, r4, #0
 20061a4:	f001 fa82 	bl	20076ac <strcmp>
 20061a8:	2800      	cmp	r0, #0
 20061aa:	d109      	bne.n	20061c0 <currentlocale+0x48>
 20061ac:	3420      	adds	r4, #32
 20061ae:	42b4      	cmp	r4, r6
 20061b0:	d1f6      	bne.n	20061a0 <currentlocale+0x28>
 20061b2:	1c38      	adds	r0, r7, #0
 20061b4:	3064      	adds	r0, #100	; 0x64
 20061b6:	bc04      	pop	{r2}
 20061b8:	4690      	mov	r8, r2
 20061ba:	bcf0      	pop	{r4, r5, r6, r7}
 20061bc:	bc02      	pop	{r1}
 20061be:	4708      	bx	r1
 20061c0:	4b0b      	ldr	r3, [pc, #44]	; (20061f0 <currentlocale+0x78>)
 20061c2:	4645      	mov	r5, r8
 20061c4:	1c3e      	adds	r6, r7, #0
 20061c6:	3540      	adds	r5, #64	; 0x40
 20061c8:	2402      	movs	r4, #2
 20061ca:	4698      	mov	r8, r3
 20061cc:	3664      	adds	r6, #100	; 0x64
 20061ce:	4641      	mov	r1, r8
 20061d0:	1c30      	adds	r0, r6, #0
 20061d2:	f001 f9d9 	bl	2007588 <strcat>
 20061d6:	3401      	adds	r4, #1
 20061d8:	1c29      	adds	r1, r5, #0
 20061da:	1c30      	adds	r0, r6, #0
 20061dc:	f001 f9d4 	bl	2007588 <strcat>
 20061e0:	3520      	adds	r5, #32
 20061e2:	2c07      	cmp	r4, #7
 20061e4:	d1f3      	bne.n	20061ce <currentlocale+0x56>
 20061e6:	e7e4      	b.n	20061b2 <currentlocale+0x3a>
 20061e8:	0200ed78 	.word	0x0200ed78
 20061ec:	0200f3c8 	.word	0x0200f3c8
 20061f0:	0200e4f4 	.word	0x0200e4f4

020061f4 <_setlocale_r>:
 20061f4:	b5f8      	push	{r3, r4, r5, r6, r7, lr}
 20061f6:	465f      	mov	r7, fp
 20061f8:	4656      	mov	r6, sl
 20061fa:	464d      	mov	r5, r9
 20061fc:	4644      	mov	r4, r8
 20061fe:	b4f0      	push	{r4, r5, r6, r7}
 2006200:	4682      	mov	sl, r0
 2006202:	4688      	mov	r8, r1
 2006204:	1c17      	adds	r7, r2, #0
 2006206:	2906      	cmp	r1, #6
 2006208:	d900      	bls.n	200620c <_setlocale_r+0x18>
 200620a:	e0cf      	b.n	20063ac <_setlocale_r+0x1b8>
 200620c:	2a00      	cmp	r2, #0
 200620e:	d100      	bne.n	2006212 <_setlocale_r+0x1e>
 2006210:	e094      	b.n	200633c <_setlocale_r+0x148>
 2006212:	4b7f      	ldr	r3, [pc, #508]	; (2006410 <_setlocale_r+0x21c>)
 2006214:	4a7f      	ldr	r2, [pc, #508]	; (2006414 <_setlocale_r+0x220>)
 2006216:	1c1d      	adds	r5, r3, #0
 2006218:	1c16      	adds	r6, r2, #0
 200621a:	4699      	mov	r9, r3
 200621c:	2400      	movs	r4, #0
 200621e:	4693      	mov	fp, r2
 2006220:	3524      	adds	r5, #36	; 0x24
 2006222:	3684      	adds	r6, #132	; 0x84
 2006224:	1928      	adds	r0, r5, r4
 2006226:	1931      	adds	r1, r6, r4
 2006228:	3420      	adds	r4, #32
 200622a:	f001 fa49 	bl	20076c0 <strcpy>
 200622e:	2cc0      	cmp	r4, #192	; 0xc0
 2006230:	d1f8      	bne.n	2006224 <_setlocale_r+0x30>
 2006232:	783b      	ldrb	r3, [r7, #0]
 2006234:	2b00      	cmp	r3, #0
 2006236:	d136      	bne.n	20062a6 <_setlocale_r+0xb2>
 2006238:	4643      	mov	r3, r8
 200623a:	2b00      	cmp	r3, #0
 200623c:	d000      	beq.n	2006240 <_setlocale_r+0x4c>
 200623e:	e085      	b.n	200634c <_setlocale_r+0x158>
 2006240:	2401      	movs	r4, #1
 2006242:	4650      	mov	r0, sl
 2006244:	1c21      	adds	r1, r4, #0
 2006246:	f7ff fd29 	bl	2005c9c <__get_locale_env>
 200624a:	1c06      	adds	r6, r0, #0
 200624c:	f7fc fef4 	bl	2003038 <strlen>
 2006250:	281f      	cmp	r0, #31
 2006252:	d86e      	bhi.n	2006332 <_setlocale_r+0x13e>
 2006254:	1c28      	adds	r0, r5, #0
 2006256:	1c31      	adds	r1, r6, #0
 2006258:	3401      	adds	r4, #1
 200625a:	f001 fa31 	bl	20076c0 <strcpy>
 200625e:	3520      	adds	r5, #32
 2006260:	2c07      	cmp	r4, #7
 2006262:	d1ee      	bne.n	2006242 <_setlocale_r+0x4e>
 2006264:	4e6c      	ldr	r6, [pc, #432]	; (2006418 <_setlocale_r+0x224>)
 2006266:	465d      	mov	r5, fp
 2006268:	1c37      	adds	r7, r6, #0
 200626a:	374c      	adds	r7, #76	; 0x4c
 200626c:	366c      	adds	r6, #108	; 0x6c
 200626e:	3584      	adds	r5, #132	; 0x84
 2006270:	2401      	movs	r4, #1
 2006272:	1c29      	adds	r1, r5, #0
 2006274:	1c30      	adds	r0, r6, #0
 2006276:	f001 fa23 	bl	20076c0 <strcpy>
 200627a:	4650      	mov	r0, sl
 200627c:	1c21      	adds	r1, r4, #0
 200627e:	f7ff fd3b 	bl	2005cf8 <loadlocale>
 2006282:	2800      	cmp	r0, #0
 2006284:	d100      	bne.n	2006288 <_setlocale_r+0x94>
 2006286:	e072      	b.n	200636e <_setlocale_r+0x17a>
 2006288:	3401      	adds	r4, #1
 200628a:	3620      	adds	r6, #32
 200628c:	3520      	adds	r5, #32
 200628e:	2c07      	cmp	r4, #7
 2006290:	d1ef      	bne.n	2006272 <_setlocale_r+0x7e>
 2006292:	f7ff ff71 	bl	2006178 <currentlocale>
 2006296:	bc3c      	pop	{r2, r3, r4, r5}
 2006298:	4690      	mov	r8, r2
 200629a:	4699      	mov	r9, r3
 200629c:	46a2      	mov	sl, r4
 200629e:	46ab      	mov	fp, r5
 20062a0:	bcf8      	pop	{r3, r4, r5, r6, r7}
 20062a2:	bc02      	pop	{r1}
 20062a4:	4708      	bx	r1
 20062a6:	4643      	mov	r3, r8
 20062a8:	2b00      	cmp	r3, #0
 20062aa:	d010      	beq.n	20062ce <_setlocale_r+0xda>
 20062ac:	1c38      	adds	r0, r7, #0
 20062ae:	f7fc fec3 	bl	2003038 <strlen>
 20062b2:	281f      	cmp	r0, #31
 20062b4:	d83d      	bhi.n	2006332 <_setlocale_r+0x13e>
 20062b6:	4643      	mov	r3, r8
 20062b8:	4a58      	ldr	r2, [pc, #352]	; (200641c <_setlocale_r+0x228>)
 20062ba:	0158      	lsls	r0, r3, #5
 20062bc:	1810      	adds	r0, r2, r0
 20062be:	1c39      	adds	r1, r7, #0
 20062c0:	f001 f9fe 	bl	20076c0 <strcpy>
 20062c4:	4650      	mov	r0, sl
 20062c6:	4641      	mov	r1, r8
 20062c8:	f7ff fd16 	bl	2005cf8 <loadlocale>
 20062cc:	e7e3      	b.n	2006296 <_setlocale_r+0xa2>
 20062ce:	1c38      	adds	r0, r7, #0
 20062d0:	212f      	movs	r1, #47	; 0x2f
 20062d2:	f001 f981 	bl	20075d8 <strchr>
 20062d6:	1c04      	adds	r4, r0, #0
 20062d8:	2800      	cmp	r0, #0
 20062da:	d100      	bne.n	20062de <_setlocale_r+0xea>
 20062dc:	e088      	b.n	20063f0 <_setlocale_r+0x1fc>
 20062de:	7863      	ldrb	r3, [r4, #1]
 20062e0:	1c22      	adds	r2, r4, #0
 20062e2:	3401      	adds	r4, #1
 20062e4:	2b2f      	cmp	r3, #47	; 0x2f
 20062e6:	d0fa      	beq.n	20062de <_setlocale_r+0xea>
 20062e8:	1c14      	adds	r4, r2, #0
 20062ea:	2b00      	cmp	r3, #0
 20062ec:	d021      	beq.n	2006332 <_setlocale_r+0x13e>
 20062ee:	464e      	mov	r6, r9
 20062f0:	3624      	adds	r6, #36	; 0x24
 20062f2:	2501      	movs	r5, #1
 20062f4:	1be2      	subs	r2, r4, r7
 20062f6:	2a1f      	cmp	r2, #31
 20062f8:	dc1b      	bgt.n	2006332 <_setlocale_r+0x13e>
 20062fa:	3201      	adds	r2, #1
 20062fc:	1c30      	adds	r0, r6, #0
 20062fe:	1c39      	adds	r1, r7, #0
 2006300:	f001 f9e6 	bl	20076d0 <strlcpy>
 2006304:	7822      	ldrb	r2, [r4, #0]
 2006306:	3501      	adds	r5, #1
 2006308:	2a2f      	cmp	r2, #47	; 0x2f
 200630a:	d103      	bne.n	2006314 <_setlocale_r+0x120>
 200630c:	3401      	adds	r4, #1
 200630e:	7822      	ldrb	r2, [r4, #0]
 2006310:	2a2f      	cmp	r2, #47	; 0x2f
 2006312:	d0fb      	beq.n	200630c <_setlocale_r+0x118>
 2006314:	1c27      	adds	r7, r4, #0
 2006316:	2a00      	cmp	r2, #0
 2006318:	d005      	beq.n	2006326 <_setlocale_r+0x132>
 200631a:	3401      	adds	r4, #1
 200631c:	7823      	ldrb	r3, [r4, #0]
 200631e:	2b2f      	cmp	r3, #47	; 0x2f
 2006320:	d001      	beq.n	2006326 <_setlocale_r+0x132>
 2006322:	2b00      	cmp	r3, #0
 2006324:	d1f9      	bne.n	200631a <_setlocale_r+0x126>
 2006326:	2a00      	cmp	r2, #0
 2006328:	d04d      	beq.n	20063c6 <_setlocale_r+0x1d2>
 200632a:	3620      	adds	r6, #32
 200632c:	2d07      	cmp	r5, #7
 200632e:	d1e1      	bne.n	20062f4 <_setlocale_r+0x100>
 2006330:	e798      	b.n	2006264 <_setlocale_r+0x70>
 2006332:	2316      	movs	r3, #22
 2006334:	4652      	mov	r2, sl
 2006336:	6013      	str	r3, [r2, #0]
 2006338:	2000      	movs	r0, #0
 200633a:	e7ac      	b.n	2006296 <_setlocale_r+0xa2>
 200633c:	4642      	mov	r2, r8
 200633e:	2a00      	cmp	r2, #0
 2006340:	d0a7      	beq.n	2006292 <_setlocale_r+0x9e>
 2006342:	4834      	ldr	r0, [pc, #208]	; (2006414 <_setlocale_r+0x220>)
 2006344:	0153      	lsls	r3, r2, #5
 2006346:	3064      	adds	r0, #100	; 0x64
 2006348:	18c0      	adds	r0, r0, r3
 200634a:	e7a4      	b.n	2006296 <_setlocale_r+0xa2>
 200634c:	4650      	mov	r0, sl
 200634e:	4641      	mov	r1, r8
 2006350:	f7ff fca4 	bl	2005c9c <__get_locale_env>
 2006354:	1c04      	adds	r4, r0, #0
 2006356:	f7fc fe6f 	bl	2003038 <strlen>
 200635a:	281f      	cmp	r0, #31
 200635c:	d8e9      	bhi.n	2006332 <_setlocale_r+0x13e>
 200635e:	4643      	mov	r3, r8
 2006360:	4a2e      	ldr	r2, [pc, #184]	; (200641c <_setlocale_r+0x228>)
 2006362:	0158      	lsls	r0, r3, #5
 2006364:	1810      	adds	r0, r2, r0
 2006366:	1c21      	adds	r1, r4, #0
 2006368:	f001 f9aa 	bl	20076c0 <strcpy>
 200636c:	e7aa      	b.n	20062c4 <_setlocale_r+0xd0>
 200636e:	4652      	mov	r2, sl
 2006370:	6812      	ldr	r2, [r2, #0]
 2006372:	4690      	mov	r8, r2
 2006374:	2c01      	cmp	r4, #1
 2006376:	d014      	beq.n	20063a2 <_setlocale_r+0x1ae>
 2006378:	4b29      	ldr	r3, [pc, #164]	; (2006420 <_setlocale_r+0x22c>)
 200637a:	464e      	mov	r6, r9
 200637c:	3624      	adds	r6, #36	; 0x24
 200637e:	3720      	adds	r7, #32
 2006380:	2501      	movs	r5, #1
 2006382:	4699      	mov	r9, r3
 2006384:	1c39      	adds	r1, r7, #0
 2006386:	1c30      	adds	r0, r6, #0
 2006388:	f001 f99a 	bl	20076c0 <strcpy>
 200638c:	4650      	mov	r0, sl
 200638e:	1c29      	adds	r1, r5, #0
 2006390:	f7ff fcb2 	bl	2005cf8 <loadlocale>
 2006394:	2800      	cmp	r0, #0
 2006396:	d00d      	beq.n	20063b4 <_setlocale_r+0x1c0>
 2006398:	3501      	adds	r5, #1
 200639a:	3620      	adds	r6, #32
 200639c:	3720      	adds	r7, #32
 200639e:	42a5      	cmp	r5, r4
 20063a0:	dbf0      	blt.n	2006384 <_setlocale_r+0x190>
 20063a2:	4642      	mov	r2, r8
 20063a4:	4653      	mov	r3, sl
 20063a6:	601a      	str	r2, [r3, #0]
 20063a8:	2000      	movs	r0, #0
 20063aa:	e774      	b.n	2006296 <_setlocale_r+0xa2>
 20063ac:	2316      	movs	r3, #22
 20063ae:	6003      	str	r3, [r0, #0]
 20063b0:	2000      	movs	r0, #0
 20063b2:	e770      	b.n	2006296 <_setlocale_r+0xa2>
 20063b4:	4649      	mov	r1, r9
 20063b6:	1c30      	adds	r0, r6, #0
 20063b8:	f001 f982 	bl	20076c0 <strcpy>
 20063bc:	4650      	mov	r0, sl
 20063be:	1c29      	adds	r1, r5, #0
 20063c0:	f7ff fc9a 	bl	2005cf8 <loadlocale>
 20063c4:	e7e8      	b.n	2006398 <_setlocale_r+0x1a4>
 20063c6:	2d06      	cmp	r5, #6
 20063c8:	dd00      	ble.n	20063cc <_setlocale_r+0x1d8>
 20063ca:	e74b      	b.n	2006264 <_setlocale_r+0x70>
 20063cc:	4b13      	ldr	r3, [pc, #76]	; (200641c <_setlocale_r+0x228>)
 20063ce:	016e      	lsls	r6, r5, #5
 20063d0:	199e      	adds	r6, r3, r6
 20063d2:	464c      	mov	r4, r9
 20063d4:	1e6b      	subs	r3, r5, #1
 20063d6:	3404      	adds	r4, #4
 20063d8:	015b      	lsls	r3, r3, #5
 20063da:	18e4      	adds	r4, r4, r3
 20063dc:	1c30      	adds	r0, r6, #0
 20063de:	1c21      	adds	r1, r4, #0
 20063e0:	3501      	adds	r5, #1
 20063e2:	f001 f96d 	bl	20076c0 <strcpy>
 20063e6:	3620      	adds	r6, #32
 20063e8:	3420      	adds	r4, #32
 20063ea:	2d06      	cmp	r5, #6
 20063ec:	ddf6      	ble.n	20063dc <_setlocale_r+0x1e8>
 20063ee:	e739      	b.n	2006264 <_setlocale_r+0x70>
 20063f0:	1c38      	adds	r0, r7, #0
 20063f2:	f7fc fe21 	bl	2003038 <strlen>
 20063f6:	281f      	cmp	r0, #31
 20063f8:	d89b      	bhi.n	2006332 <_setlocale_r+0x13e>
 20063fa:	4c05      	ldr	r4, [pc, #20]	; (2006410 <_setlocale_r+0x21c>)
 20063fc:	34e4      	adds	r4, #228	; 0xe4
 20063fe:	1c28      	adds	r0, r5, #0
 2006400:	1c39      	adds	r1, r7, #0
 2006402:	3520      	adds	r5, #32
 2006404:	f001 f95c 	bl	20076c0 <strcpy>
 2006408:	42a5      	cmp	r5, r4
 200640a:	d1f8      	bne.n	20063fe <_setlocale_r+0x20a>
 200640c:	e72a      	b.n	2006264 <_setlocale_r+0x70>
 200640e:	46c0      	nop			; (mov r8, r8)
 2006410:	0200f348 	.word	0x0200f348
 2006414:	0200ed78 	.word	0x0200ed78
 2006418:	0200f4c8 	.word	0x0200f4c8
 200641c:	0200f34c 	.word	0x0200f34c
 2006420:	0200e424 	.word	0x0200e424

02006424 <setlocale>:
 2006424:	b510      	push	{r4, lr}
 2006426:	1c0a      	adds	r2, r1, #0
 2006428:	4904      	ldr	r1, [pc, #16]	; (200643c <setlocale+0x18>)
 200642a:	1c03      	adds	r3, r0, #0
 200642c:	6808      	ldr	r0, [r1, #0]
 200642e:	1c19      	adds	r1, r3, #0
 2006430:	f7ff fee0 	bl	20061f4 <_setlocale_r>
 2006434:	bc10      	pop	{r4}
 2006436:	bc02      	pop	{r1}
 2006438:	4708      	bx	r1
 200643a:	46c0      	nop			; (mov r8, r8)
 200643c:	0200e940 	.word	0x0200e940

02006440 <__smakebuf_r>:
 2006440:	b5f0      	push	{r4, r5, r6, r7, lr}
 2006442:	b093      	sub	sp, #76	; 0x4c
 2006444:	898b      	ldrh	r3, [r1, #12]
 2006446:	1c05      	adds	r5, r0, #0
 2006448:	1c0c      	adds	r4, r1, #0
 200644a:	1c1a      	adds	r2, r3, #0
 200644c:	0799      	lsls	r1, r3, #30
 200644e:	d444      	bmi.n	20064da <__smakebuf_r+0x9a>
 2006450:	89e1      	ldrh	r1, [r4, #14]
 2006452:	0409      	lsls	r1, r1, #16
 2006454:	1409      	asrs	r1, r1, #16
 2006456:	2900      	cmp	r1, #0
 2006458:	db2f      	blt.n	20064ba <__smakebuf_r+0x7a>
 200645a:	ae01      	add	r6, sp, #4
 200645c:	1c32      	adds	r2, r6, #0
 200645e:	f001 fe29 	bl	20080b4 <_fstat_r>
 2006462:	2800      	cmp	r0, #0
 2006464:	db27      	blt.n	20064b6 <__smakebuf_r+0x76>
 2006466:	23f0      	movs	r3, #240	; 0xf0
 2006468:	68b2      	ldr	r2, [r6, #8]
 200646a:	021b      	lsls	r3, r3, #8
 200646c:	492b      	ldr	r1, [pc, #172]	; (200651c <__smakebuf_r+0xdc>)
 200646e:	401a      	ands	r2, r3
 2006470:	1853      	adds	r3, r2, r1
 2006472:	425f      	negs	r7, r3
 2006474:	415f      	adcs	r7, r3
 2006476:	2380      	movs	r3, #128	; 0x80
 2006478:	021b      	lsls	r3, r3, #8
 200647a:	429a      	cmp	r2, r3
 200647c:	d042      	beq.n	2006504 <__smakebuf_r+0xc4>
 200647e:	89a2      	ldrh	r2, [r4, #12]
 2006480:	2380      	movs	r3, #128	; 0x80
 2006482:	011b      	lsls	r3, r3, #4
 2006484:	4313      	orrs	r3, r2
 2006486:	2680      	movs	r6, #128	; 0x80
 2006488:	81a3      	strh	r3, [r4, #12]
 200648a:	00f6      	lsls	r6, r6, #3
 200648c:	1c28      	adds	r0, r5, #0
 200648e:	1c31      	adds	r1, r6, #0
 2006490:	f000 f862 	bl	2006558 <_malloc_r>
 2006494:	2800      	cmp	r0, #0
 2006496:	d01a      	beq.n	20064ce <__smakebuf_r+0x8e>
 2006498:	4b21      	ldr	r3, [pc, #132]	; (2006520 <__smakebuf_r+0xe0>)
 200649a:	63eb      	str	r3, [r5, #60]	; 0x3c
 200649c:	89a2      	ldrh	r2, [r4, #12]
 200649e:	2380      	movs	r3, #128	; 0x80
 20064a0:	4313      	orrs	r3, r2
 20064a2:	81a3      	strh	r3, [r4, #12]
 20064a4:	6020      	str	r0, [r4, #0]
 20064a6:	6120      	str	r0, [r4, #16]
 20064a8:	6166      	str	r6, [r4, #20]
 20064aa:	2f00      	cmp	r7, #0
 20064ac:	d11c      	bne.n	20064e8 <__smakebuf_r+0xa8>
 20064ae:	b013      	add	sp, #76	; 0x4c
 20064b0:	bcf0      	pop	{r4, r5, r6, r7}
 20064b2:	bc01      	pop	{r0}
 20064b4:	4700      	bx	r0
 20064b6:	89a3      	ldrh	r3, [r4, #12]
 20064b8:	1c1a      	adds	r2, r3, #0
 20064ba:	0611      	lsls	r1, r2, #24
 20064bc:	d420      	bmi.n	2006500 <__smakebuf_r+0xc0>
 20064be:	2680      	movs	r6, #128	; 0x80
 20064c0:	00f6      	lsls	r6, r6, #3
 20064c2:	2280      	movs	r2, #128	; 0x80
 20064c4:	0112      	lsls	r2, r2, #4
 20064c6:	4313      	orrs	r3, r2
 20064c8:	81a3      	strh	r3, [r4, #12]
 20064ca:	2700      	movs	r7, #0
 20064cc:	e7de      	b.n	200648c <__smakebuf_r+0x4c>
 20064ce:	89a3      	ldrh	r3, [r4, #12]
 20064d0:	059a      	lsls	r2, r3, #22
 20064d2:	d4ec      	bmi.n	20064ae <__smakebuf_r+0x6e>
 20064d4:	2202      	movs	r2, #2
 20064d6:	4313      	orrs	r3, r2
 20064d8:	81a3      	strh	r3, [r4, #12]
 20064da:	1c23      	adds	r3, r4, #0
 20064dc:	3343      	adds	r3, #67	; 0x43
 20064de:	6023      	str	r3, [r4, #0]
 20064e0:	6123      	str	r3, [r4, #16]
 20064e2:	2301      	movs	r3, #1
 20064e4:	6163      	str	r3, [r4, #20]
 20064e6:	e7e2      	b.n	20064ae <__smakebuf_r+0x6e>
 20064e8:	230e      	movs	r3, #14
 20064ea:	5ee1      	ldrsh	r1, [r4, r3]
 20064ec:	1c28      	adds	r0, r5, #0
 20064ee:	f001 fe0d 	bl	200810c <_isatty_r>
 20064f2:	2800      	cmp	r0, #0
 20064f4:	d0db      	beq.n	20064ae <__smakebuf_r+0x6e>
 20064f6:	89a2      	ldrh	r2, [r4, #12]
 20064f8:	2301      	movs	r3, #1
 20064fa:	4313      	orrs	r3, r2
 20064fc:	81a3      	strh	r3, [r4, #12]
 20064fe:	e7d6      	b.n	20064ae <__smakebuf_r+0x6e>
 2006500:	2640      	movs	r6, #64	; 0x40
 2006502:	e7de      	b.n	20064c2 <__smakebuf_r+0x82>
 2006504:	6aa2      	ldr	r2, [r4, #40]	; 0x28
 2006506:	4b07      	ldr	r3, [pc, #28]	; (2006524 <__smakebuf_r+0xe4>)
 2006508:	429a      	cmp	r2, r3
 200650a:	d1b8      	bne.n	200647e <__smakebuf_r+0x3e>
 200650c:	89a3      	ldrh	r3, [r4, #12]
 200650e:	2680      	movs	r6, #128	; 0x80
 2006510:	00f6      	lsls	r6, r6, #3
 2006512:	4333      	orrs	r3, r6
 2006514:	81a3      	strh	r3, [r4, #12]
 2006516:	64e6      	str	r6, [r4, #76]	; 0x4c
 2006518:	e7b8      	b.n	200648c <__smakebuf_r+0x4c>
 200651a:	46c0      	nop			; (mov r8, r8)
 200651c:	ffffe000 	.word	0xffffe000
 2006520:	0200514d 	.word	0x0200514d
 2006524:	02002fa1 	.word	0x02002fa1

02006528 <free>:
 2006528:	b510      	push	{r4, lr}
 200652a:	4b04      	ldr	r3, [pc, #16]	; (200653c <free+0x14>)
 200652c:	1c01      	adds	r1, r0, #0
 200652e:	6818      	ldr	r0, [r3, #0]
 2006530:	f7fe ffae 	bl	2005490 <_free_r>
 2006534:	bc10      	pop	{r4}
 2006536:	bc01      	pop	{r0}
 2006538:	4700      	bx	r0
 200653a:	46c0      	nop			; (mov r8, r8)
 200653c:	0200e940 	.word	0x0200e940

02006540 <malloc>:
 2006540:	b510      	push	{r4, lr}
 2006542:	4b04      	ldr	r3, [pc, #16]	; (2006554 <malloc+0x14>)
 2006544:	1c01      	adds	r1, r0, #0
 2006546:	6818      	ldr	r0, [r3, #0]
 2006548:	f000 f806 	bl	2006558 <_malloc_r>
 200654c:	bc10      	pop	{r4}
 200654e:	bc02      	pop	{r1}
 2006550:	4708      	bx	r1
 2006552:	46c0      	nop			; (mov r8, r8)
 2006554:	0200e940 	.word	0x0200e940

02006558 <_malloc_r>:
 2006558:	b5f0      	push	{r4, r5, r6, r7, lr}
 200655a:	465f      	mov	r7, fp
 200655c:	4656      	mov	r6, sl
 200655e:	464d      	mov	r5, r9
 2006560:	4644      	mov	r4, r8
 2006562:	b4f0      	push	{r4, r5, r6, r7}
 2006564:	1c0c      	adds	r4, r1, #0
 2006566:	340b      	adds	r4, #11
 2006568:	b083      	sub	sp, #12
 200656a:	1c06      	adds	r6, r0, #0
 200656c:	2c16      	cmp	r4, #22
 200656e:	d831      	bhi.n	20065d4 <_malloc_r+0x7c>
 2006570:	2300      	movs	r3, #0
 2006572:	2410      	movs	r4, #16
 2006574:	428c      	cmp	r4, r1
 2006576:	d20b      	bcs.n	2006590 <_malloc_r+0x38>
 2006578:	230c      	movs	r3, #12
 200657a:	6033      	str	r3, [r6, #0]
 200657c:	2000      	movs	r0, #0
 200657e:	b003      	add	sp, #12
 2006580:	bc3c      	pop	{r2, r3, r4, r5}
 2006582:	4690      	mov	r8, r2
 2006584:	4699      	mov	r9, r3
 2006586:	46a2      	mov	sl, r4
 2006588:	46ab      	mov	fp, r5
 200658a:	bcf0      	pop	{r4, r5, r6, r7}
 200658c:	bc02      	pop	{r1}
 200658e:	4708      	bx	r1
 2006590:	2b00      	cmp	r3, #0
 2006592:	d1f1      	bne.n	2006578 <_malloc_r+0x20>
 2006594:	1c30      	adds	r0, r6, #0
 2006596:	f000 fde3 	bl	2007160 <__malloc_lock>
 200659a:	4bd1      	ldr	r3, [pc, #836]	; (20068e0 <_malloc_r+0x388>)
 200659c:	429c      	cmp	r4, r3
 200659e:	d81d      	bhi.n	20065dc <_malloc_r+0x84>
 20065a0:	08e2      	lsrs	r2, r4, #3
 20065a2:	4fd0      	ldr	r7, [pc, #832]	; (20068e4 <_malloc_r+0x38c>)
 20065a4:	00d3      	lsls	r3, r2, #3
 20065a6:	18fb      	adds	r3, r7, r3
 20065a8:	68dd      	ldr	r5, [r3, #12]
 20065aa:	429d      	cmp	r5, r3
 20065ac:	d100      	bne.n	20065b0 <_malloc_r+0x58>
 20065ae:	e18d      	b.n	20068cc <_malloc_r+0x374>
 20065b0:	686b      	ldr	r3, [r5, #4]
 20065b2:	2203      	movs	r2, #3
 20065b4:	68a9      	ldr	r1, [r5, #8]
 20065b6:	4393      	bics	r3, r2
 20065b8:	68ea      	ldr	r2, [r5, #12]
 20065ba:	18eb      	adds	r3, r5, r3
 20065bc:	60ca      	str	r2, [r1, #12]
 20065be:	6091      	str	r1, [r2, #8]
 20065c0:	6859      	ldr	r1, [r3, #4]
 20065c2:	2201      	movs	r2, #1
 20065c4:	430a      	orrs	r2, r1
 20065c6:	1c30      	adds	r0, r6, #0
 20065c8:	605a      	str	r2, [r3, #4]
 20065ca:	f000 fdcb 	bl	2007164 <__malloc_unlock>
 20065ce:	1c28      	adds	r0, r5, #0
 20065d0:	3008      	adds	r0, #8
 20065d2:	e7d4      	b.n	200657e <_malloc_r+0x26>
 20065d4:	2307      	movs	r3, #7
 20065d6:	439c      	bics	r4, r3
 20065d8:	0fe3      	lsrs	r3, r4, #31
 20065da:	e7cb      	b.n	2006574 <_malloc_r+0x1c>
 20065dc:	0a63      	lsrs	r3, r4, #9
 20065de:	2b00      	cmp	r3, #0
 20065e0:	d100      	bne.n	20065e4 <_malloc_r+0x8c>
 20065e2:	e08d      	b.n	2006700 <_malloc_r+0x1a8>
 20065e4:	2b04      	cmp	r3, #4
 20065e6:	d900      	bls.n	20065ea <_malloc_r+0x92>
 20065e8:	e158      	b.n	200689c <_malloc_r+0x344>
 20065ea:	09a3      	lsrs	r3, r4, #6
 20065ec:	3338      	adds	r3, #56	; 0x38
 20065ee:	4698      	mov	r8, r3
 20065f0:	00d9      	lsls	r1, r3, #3
 20065f2:	4fbc      	ldr	r7, [pc, #752]	; (20068e4 <_malloc_r+0x38c>)
 20065f4:	1879      	adds	r1, r7, r1
 20065f6:	68cd      	ldr	r5, [r1, #12]
 20065f8:	42a9      	cmp	r1, r5
 20065fa:	d017      	beq.n	200662c <_malloc_r+0xd4>
 20065fc:	686a      	ldr	r2, [r5, #4]
 20065fe:	2303      	movs	r3, #3
 2006600:	439a      	bics	r2, r3
 2006602:	1b13      	subs	r3, r2, r4
 2006604:	2b0f      	cmp	r3, #15
 2006606:	dd00      	ble.n	200660a <_malloc_r+0xb2>
 2006608:	e0c1      	b.n	200678e <_malloc_r+0x236>
 200660a:	2b00      	cmp	r3, #0
 200660c:	db00      	blt.n	2006610 <_malloc_r+0xb8>
 200660e:	e0c2      	b.n	2006796 <_malloc_r+0x23e>
 2006610:	2003      	movs	r0, #3
 2006612:	e008      	b.n	2006626 <_malloc_r+0xce>
 2006614:	686a      	ldr	r2, [r5, #4]
 2006616:	4382      	bics	r2, r0
 2006618:	1b13      	subs	r3, r2, r4
 200661a:	2b0f      	cmp	r3, #15
 200661c:	dd00      	ble.n	2006620 <_malloc_r+0xc8>
 200661e:	e0b6      	b.n	200678e <_malloc_r+0x236>
 2006620:	2b00      	cmp	r3, #0
 2006622:	db00      	blt.n	2006626 <_malloc_r+0xce>
 2006624:	e0b7      	b.n	2006796 <_malloc_r+0x23e>
 2006626:	68ed      	ldr	r5, [r5, #12]
 2006628:	42a9      	cmp	r1, r5
 200662a:	d1f3      	bne.n	2006614 <_malloc_r+0xbc>
 200662c:	2501      	movs	r5, #1
 200662e:	44a8      	add	r8, r5
 2006630:	1c39      	adds	r1, r7, #0
 2006632:	3108      	adds	r1, #8
 2006634:	688d      	ldr	r5, [r1, #8]
 2006636:	42a9      	cmp	r1, r5
 2006638:	d100      	bne.n	200663c <_malloc_r+0xe4>
 200663a:	e089      	b.n	2006750 <_malloc_r+0x1f8>
 200663c:	686a      	ldr	r2, [r5, #4]
 200663e:	2303      	movs	r3, #3
 2006640:	439a      	bics	r2, r3
 2006642:	1b13      	subs	r3, r2, r4
 2006644:	4693      	mov	fp, r2
 2006646:	2b0f      	cmp	r3, #15
 2006648:	dd00      	ble.n	200664c <_malloc_r+0xf4>
 200664a:	e130      	b.n	20068ae <_malloc_r+0x356>
 200664c:	60c9      	str	r1, [r1, #12]
 200664e:	6089      	str	r1, [r1, #8]
 2006650:	2b00      	cmp	r3, #0
 2006652:	db00      	blt.n	2006656 <_malloc_r+0xfe>
 2006654:	e0ae      	b.n	20067b4 <_malloc_r+0x25c>
 2006656:	4ba4      	ldr	r3, [pc, #656]	; (20068e8 <_malloc_r+0x390>)
 2006658:	459b      	cmp	fp, r3
 200665a:	d855      	bhi.n	2006708 <_malloc_r+0x1b0>
 200665c:	08d2      	lsrs	r2, r2, #3
 200665e:	1093      	asrs	r3, r2, #2
 2006660:	2001      	movs	r0, #1
 2006662:	4098      	lsls	r0, r3
 2006664:	00d2      	lsls	r2, r2, #3
 2006666:	687b      	ldr	r3, [r7, #4]
 2006668:	18ba      	adds	r2, r7, r2
 200666a:	4303      	orrs	r3, r0
 200666c:	6890      	ldr	r0, [r2, #8]
 200666e:	60ea      	str	r2, [r5, #12]
 2006670:	60a8      	str	r0, [r5, #8]
 2006672:	60c5      	str	r5, [r0, #12]
 2006674:	6095      	str	r5, [r2, #8]
 2006676:	4645      	mov	r5, r8
 2006678:	10aa      	asrs	r2, r5, #2
 200667a:	2001      	movs	r0, #1
 200667c:	4090      	lsls	r0, r2
 200667e:	607b      	str	r3, [r7, #4]
 2006680:	4283      	cmp	r3, r0
 2006682:	d36c      	bcc.n	200675e <_malloc_r+0x206>
 2006684:	4203      	tst	r3, r0
 2006686:	d10c      	bne.n	20066a2 <_malloc_r+0x14a>
 2006688:	2203      	movs	r2, #3
 200668a:	4395      	bics	r5, r2
 200668c:	1c2a      	adds	r2, r5, #0
 200668e:	3204      	adds	r2, #4
 2006690:	0040      	lsls	r0, r0, #1
 2006692:	4690      	mov	r8, r2
 2006694:	4203      	tst	r3, r0
 2006696:	d104      	bne.n	20066a2 <_malloc_r+0x14a>
 2006698:	2204      	movs	r2, #4
 200669a:	0040      	lsls	r0, r0, #1
 200669c:	4490      	add	r8, r2
 200669e:	4218      	tst	r0, r3
 20066a0:	d0fa      	beq.n	2006698 <_malloc_r+0x140>
 20066a2:	2303      	movs	r3, #3
 20066a4:	469a      	mov	sl, r3
 20066a6:	4645      	mov	r5, r8
 20066a8:	00eb      	lsls	r3, r5, #3
 20066aa:	19db      	adds	r3, r3, r7
 20066ac:	469b      	mov	fp, r3
 20066ae:	469c      	mov	ip, r3
 20066b0:	46c1      	mov	r9, r8
 20066b2:	4662      	mov	r2, ip
 20066b4:	68d5      	ldr	r5, [r2, #12]
 20066b6:	45ac      	cmp	ip, r5
 20066b8:	d107      	bne.n	20066ca <_malloc_r+0x172>
 20066ba:	e0fd      	b.n	20068b8 <_malloc_r+0x360>
 20066bc:	2b00      	cmp	r3, #0
 20066be:	db00      	blt.n	20066c2 <_malloc_r+0x16a>
 20066c0:	e11c      	b.n	20068fc <_malloc_r+0x3a4>
 20066c2:	68ed      	ldr	r5, [r5, #12]
 20066c4:	45ac      	cmp	ip, r5
 20066c6:	d100      	bne.n	20066ca <_malloc_r+0x172>
 20066c8:	e0f6      	b.n	20068b8 <_malloc_r+0x360>
 20066ca:	686a      	ldr	r2, [r5, #4]
 20066cc:	4653      	mov	r3, sl
 20066ce:	439a      	bics	r2, r3
 20066d0:	1b13      	subs	r3, r2, r4
 20066d2:	2b0f      	cmp	r3, #15
 20066d4:	ddf2      	ble.n	20066bc <_malloc_r+0x164>
 20066d6:	2001      	movs	r0, #1
 20066d8:	192a      	adds	r2, r5, r4
 20066da:	4304      	orrs	r4, r0
 20066dc:	68af      	ldr	r7, [r5, #8]
 20066de:	606c      	str	r4, [r5, #4]
 20066e0:	68ec      	ldr	r4, [r5, #12]
 20066e2:	60fc      	str	r4, [r7, #12]
 20066e4:	60a7      	str	r7, [r4, #8]
 20066e6:	4318      	orrs	r0, r3
 20066e8:	60ca      	str	r2, [r1, #12]
 20066ea:	608a      	str	r2, [r1, #8]
 20066ec:	6050      	str	r0, [r2, #4]
 20066ee:	60d1      	str	r1, [r2, #12]
 20066f0:	1c30      	adds	r0, r6, #0
 20066f2:	6091      	str	r1, [r2, #8]
 20066f4:	50d3      	str	r3, [r2, r3]
 20066f6:	f000 fd35 	bl	2007164 <__malloc_unlock>
 20066fa:	1c28      	adds	r0, r5, #0
 20066fc:	3008      	adds	r0, #8
 20066fe:	e73e      	b.n	200657e <_malloc_r+0x26>
 2006700:	08e0      	lsrs	r0, r4, #3
 2006702:	4680      	mov	r8, r0
 2006704:	00c1      	lsls	r1, r0, #3
 2006706:	e774      	b.n	20065f2 <_malloc_r+0x9a>
 2006708:	0a53      	lsrs	r3, r2, #9
 200670a:	2b04      	cmp	r3, #4
 200670c:	d900      	bls.n	2006710 <_malloc_r+0x1b8>
 200670e:	e108      	b.n	2006922 <_malloc_r+0x3ca>
 2006710:	0993      	lsrs	r3, r2, #6
 2006712:	3338      	adds	r3, #56	; 0x38
 2006714:	469a      	mov	sl, r3
 2006716:	00d8      	lsls	r0, r3, #3
 2006718:	19c0      	adds	r0, r0, r7
 200671a:	6883      	ldr	r3, [r0, #8]
 200671c:	4684      	mov	ip, r0
 200671e:	4563      	cmp	r3, ip
 2006720:	d100      	bne.n	2006724 <_malloc_r+0x1cc>
 2006722:	e130      	b.n	2006986 <_malloc_r+0x42e>
 2006724:	685a      	ldr	r2, [r3, #4]
 2006726:	2003      	movs	r0, #3
 2006728:	4382      	bics	r2, r0
 200672a:	4593      	cmp	fp, r2
 200672c:	d20b      	bcs.n	2006746 <_malloc_r+0x1ee>
 200672e:	2203      	movs	r2, #3
 2006730:	4692      	mov	sl, r2
 2006732:	e005      	b.n	2006740 <_malloc_r+0x1e8>
 2006734:	6858      	ldr	r0, [r3, #4]
 2006736:	1c02      	adds	r2, r0, #0
 2006738:	4650      	mov	r0, sl
 200673a:	4382      	bics	r2, r0
 200673c:	4593      	cmp	fp, r2
 200673e:	d202      	bcs.n	2006746 <_malloc_r+0x1ee>
 2006740:	689b      	ldr	r3, [r3, #8]
 2006742:	459c      	cmp	ip, r3
 2006744:	d1f6      	bne.n	2006734 <_malloc_r+0x1dc>
 2006746:	68da      	ldr	r2, [r3, #12]
 2006748:	60ea      	str	r2, [r5, #12]
 200674a:	60ab      	str	r3, [r5, #8]
 200674c:	60dd      	str	r5, [r3, #12]
 200674e:	6095      	str	r5, [r2, #8]
 2006750:	4645      	mov	r5, r8
 2006752:	10aa      	asrs	r2, r5, #2
 2006754:	2001      	movs	r0, #1
 2006756:	687b      	ldr	r3, [r7, #4]
 2006758:	4090      	lsls	r0, r2
 200675a:	4283      	cmp	r3, r0
 200675c:	d292      	bcs.n	2006684 <_malloc_r+0x12c>
 200675e:	68bd      	ldr	r5, [r7, #8]
 2006760:	686b      	ldr	r3, [r5, #4]
 2006762:	2203      	movs	r2, #3
 2006764:	4393      	bics	r3, r2
 2006766:	469b      	mov	fp, r3
 2006768:	1b1b      	subs	r3, r3, r4
 200676a:	2b0f      	cmp	r3, #15
 200676c:	dd24      	ble.n	20067b8 <_malloc_r+0x260>
 200676e:	455c      	cmp	r4, fp
 2006770:	d822      	bhi.n	20067b8 <_malloc_r+0x260>
 2006772:	2201      	movs	r2, #1
 2006774:	1c21      	adds	r1, r4, #0
 2006776:	4311      	orrs	r1, r2
 2006778:	192c      	adds	r4, r5, r4
 200677a:	4313      	orrs	r3, r2
 200677c:	6069      	str	r1, [r5, #4]
 200677e:	1c30      	adds	r0, r6, #0
 2006780:	60bc      	str	r4, [r7, #8]
 2006782:	6063      	str	r3, [r4, #4]
 2006784:	f000 fcee 	bl	2007164 <__malloc_unlock>
 2006788:	1c28      	adds	r0, r5, #0
 200678a:	3008      	adds	r0, #8
 200678c:	e6f7      	b.n	200657e <_malloc_r+0x26>
 200678e:	2301      	movs	r3, #1
 2006790:	425b      	negs	r3, r3
 2006792:	4498      	add	r8, r3
 2006794:	e74a      	b.n	200662c <_malloc_r+0xd4>
 2006796:	68eb      	ldr	r3, [r5, #12]
 2006798:	68a9      	ldr	r1, [r5, #8]
 200679a:	60cb      	str	r3, [r1, #12]
 200679c:	6099      	str	r1, [r3, #8]
 200679e:	18aa      	adds	r2, r5, r2
 20067a0:	6851      	ldr	r1, [r2, #4]
 20067a2:	2301      	movs	r3, #1
 20067a4:	430b      	orrs	r3, r1
 20067a6:	1c30      	adds	r0, r6, #0
 20067a8:	6053      	str	r3, [r2, #4]
 20067aa:	f000 fcdb 	bl	2007164 <__malloc_unlock>
 20067ae:	1c28      	adds	r0, r5, #0
 20067b0:	3008      	adds	r0, #8
 20067b2:	e6e4      	b.n	200657e <_malloc_r+0x26>
 20067b4:	18aa      	adds	r2, r5, r2
 20067b6:	e7f3      	b.n	20067a0 <_malloc_r+0x248>
 20067b8:	484c      	ldr	r0, [pc, #304]	; (20068ec <_malloc_r+0x394>)
 20067ba:	6803      	ldr	r3, [r0, #0]
 20067bc:	494c      	ldr	r1, [pc, #304]	; (20068f0 <_malloc_r+0x398>)
 20067be:	3310      	adds	r3, #16
 20067c0:	191b      	adds	r3, r3, r4
 20067c2:	9301      	str	r3, [sp, #4]
 20067c4:	688b      	ldr	r3, [r1, #8]
 20067c6:	4680      	mov	r8, r0
 20067c8:	4689      	mov	r9, r1
 20067ca:	3301      	adds	r3, #1
 20067cc:	d005      	beq.n	20067da <_malloc_r+0x282>
 20067ce:	9b01      	ldr	r3, [sp, #4]
 20067d0:	4848      	ldr	r0, [pc, #288]	; (20068f4 <_malloc_r+0x39c>)
 20067d2:	181a      	adds	r2, r3, r0
 20067d4:	4b48      	ldr	r3, [pc, #288]	; (20068f8 <_malloc_r+0x3a0>)
 20067d6:	401a      	ands	r2, r3
 20067d8:	9201      	str	r2, [sp, #4]
 20067da:	9901      	ldr	r1, [sp, #4]
 20067dc:	1c30      	adds	r0, r6, #0
 20067de:	f001 fce7 	bl	20081b0 <_sbrk_r>
 20067e2:	1c01      	adds	r1, r0, #0
 20067e4:	4682      	mov	sl, r0
 20067e6:	3101      	adds	r1, #1
 20067e8:	d100      	bne.n	20067ec <_malloc_r+0x294>
 20067ea:	e0a3      	b.n	2006934 <_malloc_r+0x3dc>
 20067ec:	465b      	mov	r3, fp
 20067ee:	18ea      	adds	r2, r5, r3
 20067f0:	4552      	cmp	r2, sl
 20067f2:	d900      	bls.n	20067f6 <_malloc_r+0x29e>
 20067f4:	e09b      	b.n	200692e <_malloc_r+0x3d6>
 20067f6:	4640      	mov	r0, r8
 20067f8:	6843      	ldr	r3, [r0, #4]
 20067fa:	9901      	ldr	r1, [sp, #4]
 20067fc:	18cb      	adds	r3, r1, r3
 20067fe:	6043      	str	r3, [r0, #4]
 2006800:	4552      	cmp	r2, sl
 2006802:	d100      	bne.n	2006806 <_malloc_r+0x2ae>
 2006804:	e103      	b.n	2006a0e <_malloc_r+0x4b6>
 2006806:	4648      	mov	r0, r9
 2006808:	6881      	ldr	r1, [r0, #8]
 200680a:	3101      	adds	r1, #1
 200680c:	d100      	bne.n	2006810 <_malloc_r+0x2b8>
 200680e:	e10b      	b.n	2006a28 <_malloc_r+0x4d0>
 2006810:	4453      	add	r3, sl
 2006812:	1a9a      	subs	r2, r3, r2
 2006814:	4643      	mov	r3, r8
 2006816:	605a      	str	r2, [r3, #4]
 2006818:	2307      	movs	r3, #7
 200681a:	4650      	mov	r0, sl
 200681c:	4003      	ands	r3, r0
 200681e:	d000      	beq.n	2006822 <_malloc_r+0x2ca>
 2006820:	e0aa      	b.n	2006978 <_malloc_r+0x420>
 2006822:	2380      	movs	r3, #128	; 0x80
 2006824:	015b      	lsls	r3, r3, #5
 2006826:	9a01      	ldr	r2, [sp, #4]
 2006828:	1c11      	adds	r1, r2, #0
 200682a:	4a32      	ldr	r2, [pc, #200]	; (20068f4 <_malloc_r+0x39c>)
 200682c:	4451      	add	r1, sl
 200682e:	400a      	ands	r2, r1
 2006830:	1a9a      	subs	r2, r3, r2
 2006832:	1c30      	adds	r0, r6, #0
 2006834:	1c11      	adds	r1, r2, #0
 2006836:	4691      	mov	r9, r2
 2006838:	f001 fcba 	bl	20081b0 <_sbrk_r>
 200683c:	1c43      	adds	r3, r0, #1
 200683e:	d100      	bne.n	2006842 <_malloc_r+0x2ea>
 2006840:	e0ee      	b.n	2006a20 <_malloc_r+0x4c8>
 2006842:	4652      	mov	r2, sl
 2006844:	1a80      	subs	r0, r0, r2
 2006846:	4448      	add	r0, r9
 2006848:	2301      	movs	r3, #1
 200684a:	4318      	orrs	r0, r3
 200684c:	4641      	mov	r1, r8
 200684e:	684b      	ldr	r3, [r1, #4]
 2006850:	4652      	mov	r2, sl
 2006852:	444b      	add	r3, r9
 2006854:	604b      	str	r3, [r1, #4]
 2006856:	60ba      	str	r2, [r7, #8]
 2006858:	6050      	str	r0, [r2, #4]
 200685a:	42af      	cmp	r7, r5
 200685c:	d012      	beq.n	2006884 <_malloc_r+0x32c>
 200685e:	4658      	mov	r0, fp
 2006860:	280f      	cmp	r0, #15
 2006862:	d800      	bhi.n	2006866 <_malloc_r+0x30e>
 2006864:	e0a8      	b.n	20069b8 <_malloc_r+0x460>
 2006866:	465a      	mov	r2, fp
 2006868:	2107      	movs	r1, #7
 200686a:	3a0c      	subs	r2, #12
 200686c:	438a      	bics	r2, r1
 200686e:	18a9      	adds	r1, r5, r2
 2006870:	2005      	movs	r0, #5
 2006872:	6048      	str	r0, [r1, #4]
 2006874:	6088      	str	r0, [r1, #8]
 2006876:	6868      	ldr	r0, [r5, #4]
 2006878:	2101      	movs	r1, #1
 200687a:	4001      	ands	r1, r0
 200687c:	4311      	orrs	r1, r2
 200687e:	6069      	str	r1, [r5, #4]
 2006880:	2a0f      	cmp	r2, #15
 2006882:	d863      	bhi.n	200694c <_malloc_r+0x3f4>
 2006884:	4655      	mov	r5, sl
 2006886:	4640      	mov	r0, r8
 2006888:	6ac2      	ldr	r2, [r0, #44]	; 0x2c
 200688a:	4293      	cmp	r3, r2
 200688c:	d900      	bls.n	2006890 <_malloc_r+0x338>
 200688e:	62c3      	str	r3, [r0, #44]	; 0x2c
 2006890:	4641      	mov	r1, r8
 2006892:	6b0a      	ldr	r2, [r1, #48]	; 0x30
 2006894:	4293      	cmp	r3, r2
 2006896:	d94e      	bls.n	2006936 <_malloc_r+0x3de>
 2006898:	630b      	str	r3, [r1, #48]	; 0x30
 200689a:	e04c      	b.n	2006936 <_malloc_r+0x3de>
 200689c:	2b14      	cmp	r3, #20
 200689e:	d93c      	bls.n	200691a <_malloc_r+0x3c2>
 20068a0:	2b54      	cmp	r3, #84	; 0x54
 20068a2:	d860      	bhi.n	2006966 <_malloc_r+0x40e>
 20068a4:	0b23      	lsrs	r3, r4, #12
 20068a6:	336e      	adds	r3, #110	; 0x6e
 20068a8:	4698      	mov	r8, r3
 20068aa:	00d9      	lsls	r1, r3, #3
 20068ac:	e6a1      	b.n	20065f2 <_malloc_r+0x9a>
 20068ae:	2001      	movs	r0, #1
 20068b0:	192a      	adds	r2, r5, r4
 20068b2:	4304      	orrs	r4, r0
 20068b4:	606c      	str	r4, [r5, #4]
 20068b6:	e716      	b.n	20066e6 <_malloc_r+0x18e>
 20068b8:	2201      	movs	r2, #1
 20068ba:	4491      	add	r9, r2
 20068bc:	464b      	mov	r3, r9
 20068be:	4652      	mov	r2, sl
 20068c0:	4213      	tst	r3, r2
 20068c2:	d100      	bne.n	20068c6 <_malloc_r+0x36e>
 20068c4:	e07d      	b.n	20069c2 <_malloc_r+0x46a>
 20068c6:	3508      	adds	r5, #8
 20068c8:	46ac      	mov	ip, r5
 20068ca:	e6f2      	b.n	20066b2 <_malloc_r+0x15a>
 20068cc:	1c2b      	adds	r3, r5, #0
 20068ce:	3308      	adds	r3, #8
 20068d0:	68dd      	ldr	r5, [r3, #12]
 20068d2:	42ab      	cmp	r3, r5
 20068d4:	d000      	beq.n	20068d8 <_malloc_r+0x380>
 20068d6:	e66b      	b.n	20065b0 <_malloc_r+0x58>
 20068d8:	3202      	adds	r2, #2
 20068da:	4690      	mov	r8, r2
 20068dc:	e6a8      	b.n	2006630 <_malloc_r+0xd8>
 20068de:	46c0      	nop			; (mov r8, r8)
 20068e0:	000001f7 	.word	0x000001f7
 20068e4:	0200eebc 	.word	0x0200eebc
 20068e8:	000001ff 	.word	0x000001ff
 20068ec:	0200f600 	.word	0x0200f600
 20068f0:	0200f2bc 	.word	0x0200f2bc
 20068f4:	00000fff 	.word	0x00000fff
 20068f8:	fffff000 	.word	0xfffff000
 20068fc:	18aa      	adds	r2, r5, r2
 20068fe:	6851      	ldr	r1, [r2, #4]
 2006900:	2301      	movs	r3, #1
 2006902:	430b      	orrs	r3, r1
 2006904:	6053      	str	r3, [r2, #4]
 2006906:	68eb      	ldr	r3, [r5, #12]
 2006908:	68aa      	ldr	r2, [r5, #8]
 200690a:	1c30      	adds	r0, r6, #0
 200690c:	60d3      	str	r3, [r2, #12]
 200690e:	609a      	str	r2, [r3, #8]
 2006910:	f000 fc28 	bl	2007164 <__malloc_unlock>
 2006914:	1c28      	adds	r0, r5, #0
 2006916:	3008      	adds	r0, #8
 2006918:	e631      	b.n	200657e <_malloc_r+0x26>
 200691a:	335b      	adds	r3, #91	; 0x5b
 200691c:	4698      	mov	r8, r3
 200691e:	00d9      	lsls	r1, r3, #3
 2006920:	e667      	b.n	20065f2 <_malloc_r+0x9a>
 2006922:	2b14      	cmp	r3, #20
 2006924:	d841      	bhi.n	20069aa <_malloc_r+0x452>
 2006926:	335b      	adds	r3, #91	; 0x5b
 2006928:	469a      	mov	sl, r3
 200692a:	00d8      	lsls	r0, r3, #3
 200692c:	e6f4      	b.n	2006718 <_malloc_r+0x1c0>
 200692e:	42af      	cmp	r7, r5
 2006930:	d100      	bne.n	2006934 <_malloc_r+0x3dc>
 2006932:	e760      	b.n	20067f6 <_malloc_r+0x29e>
 2006934:	68bd      	ldr	r5, [r7, #8]
 2006936:	686a      	ldr	r2, [r5, #4]
 2006938:	2303      	movs	r3, #3
 200693a:	439a      	bics	r2, r3
 200693c:	1b13      	subs	r3, r2, r4
 200693e:	2b0f      	cmp	r3, #15
 2006940:	dc0d      	bgt.n	200695e <_malloc_r+0x406>
 2006942:	1c30      	adds	r0, r6, #0
 2006944:	f000 fc0e 	bl	2007164 <__malloc_unlock>
 2006948:	2000      	movs	r0, #0
 200694a:	e618      	b.n	200657e <_malloc_r+0x26>
 200694c:	1c29      	adds	r1, r5, #0
 200694e:	3108      	adds	r1, #8
 2006950:	1c30      	adds	r0, r6, #0
 2006952:	f7fe fd9d 	bl	2005490 <_free_r>
 2006956:	4642      	mov	r2, r8
 2006958:	6853      	ldr	r3, [r2, #4]
 200695a:	68bd      	ldr	r5, [r7, #8]
 200695c:	e793      	b.n	2006886 <_malloc_r+0x32e>
 200695e:	4294      	cmp	r4, r2
 2006960:	d800      	bhi.n	2006964 <_malloc_r+0x40c>
 2006962:	e706      	b.n	2006772 <_malloc_r+0x21a>
 2006964:	e7ed      	b.n	2006942 <_malloc_r+0x3ea>
 2006966:	22aa      	movs	r2, #170	; 0xaa
 2006968:	0052      	lsls	r2, r2, #1
 200696a:	4293      	cmp	r3, r2
 200696c:	d815      	bhi.n	200699a <_malloc_r+0x442>
 200696e:	0be3      	lsrs	r3, r4, #15
 2006970:	3377      	adds	r3, #119	; 0x77
 2006972:	4698      	mov	r8, r3
 2006974:	00d9      	lsls	r1, r3, #3
 2006976:	e63c      	b.n	20065f2 <_malloc_r+0x9a>
 2006978:	2208      	movs	r2, #8
 200697a:	2180      	movs	r1, #128	; 0x80
 200697c:	1ad3      	subs	r3, r2, r3
 200697e:	0149      	lsls	r1, r1, #5
 2006980:	449a      	add	sl, r3
 2006982:	185b      	adds	r3, r3, r1
 2006984:	e74f      	b.n	2006826 <_malloc_r+0x2ce>
 2006986:	4650      	mov	r0, sl
 2006988:	1082      	asrs	r2, r0, #2
 200698a:	2001      	movs	r0, #1
 200698c:	4090      	lsls	r0, r2
 200698e:	1c02      	adds	r2, r0, #0
 2006990:	6878      	ldr	r0, [r7, #4]
 2006992:	4302      	orrs	r2, r0
 2006994:	607a      	str	r2, [r7, #4]
 2006996:	1c1a      	adds	r2, r3, #0
 2006998:	e6d6      	b.n	2006748 <_malloc_r+0x1f0>
 200699a:	4a2f      	ldr	r2, [pc, #188]	; (2006a58 <_malloc_r+0x500>)
 200699c:	4293      	cmp	r3, r2
 200699e:	d928      	bls.n	20069f2 <_malloc_r+0x49a>
 20069a0:	21fc      	movs	r1, #252	; 0xfc
 20069a2:	227e      	movs	r2, #126	; 0x7e
 20069a4:	0089      	lsls	r1, r1, #2
 20069a6:	4690      	mov	r8, r2
 20069a8:	e623      	b.n	20065f2 <_malloc_r+0x9a>
 20069aa:	2b54      	cmp	r3, #84	; 0x54
 20069ac:	d826      	bhi.n	20069fc <_malloc_r+0x4a4>
 20069ae:	0b13      	lsrs	r3, r2, #12
 20069b0:	336e      	adds	r3, #110	; 0x6e
 20069b2:	469a      	mov	sl, r3
 20069b4:	00d8      	lsls	r0, r3, #3
 20069b6:	e6af      	b.n	2006718 <_malloc_r+0x1c0>
 20069b8:	2301      	movs	r3, #1
 20069ba:	4651      	mov	r1, sl
 20069bc:	604b      	str	r3, [r1, #4]
 20069be:	4655      	mov	r5, sl
 20069c0:	e7b9      	b.n	2006936 <_malloc_r+0x3de>
 20069c2:	465b      	mov	r3, fp
 20069c4:	4645      	mov	r5, r8
 20069c6:	e000      	b.n	20069ca <_malloc_r+0x472>
 20069c8:	3d01      	subs	r5, #1
 20069ca:	4652      	mov	r2, sl
 20069cc:	4215      	tst	r5, r2
 20069ce:	d036      	beq.n	2006a3e <_malloc_r+0x4e6>
 20069d0:	1c1a      	adds	r2, r3, #0
 20069d2:	3a08      	subs	r2, #8
 20069d4:	6893      	ldr	r3, [r2, #8]
 20069d6:	4293      	cmp	r3, r2
 20069d8:	d0f6      	beq.n	20069c8 <_malloc_r+0x470>
 20069da:	687b      	ldr	r3, [r7, #4]
 20069dc:	0040      	lsls	r0, r0, #1
 20069de:	4298      	cmp	r0, r3
 20069e0:	d900      	bls.n	20069e4 <_malloc_r+0x48c>
 20069e2:	e6bc      	b.n	200675e <_malloc_r+0x206>
 20069e4:	2800      	cmp	r0, #0
 20069e6:	d100      	bne.n	20069ea <_malloc_r+0x492>
 20069e8:	e6b9      	b.n	200675e <_malloc_r+0x206>
 20069ea:	4218      	tst	r0, r3
 20069ec:	d02b      	beq.n	2006a46 <_malloc_r+0x4ee>
 20069ee:	46c8      	mov	r8, r9
 20069f0:	e659      	b.n	20066a6 <_malloc_r+0x14e>
 20069f2:	0ca3      	lsrs	r3, r4, #18
 20069f4:	337c      	adds	r3, #124	; 0x7c
 20069f6:	4698      	mov	r8, r3
 20069f8:	00d9      	lsls	r1, r3, #3
 20069fa:	e5fa      	b.n	20065f2 <_malloc_r+0x9a>
 20069fc:	20aa      	movs	r0, #170	; 0xaa
 20069fe:	0040      	lsls	r0, r0, #1
 2006a00:	4283      	cmp	r3, r0
 2006a02:	d814      	bhi.n	2006a2e <_malloc_r+0x4d6>
 2006a04:	0bd3      	lsrs	r3, r2, #15
 2006a06:	3377      	adds	r3, #119	; 0x77
 2006a08:	469a      	mov	sl, r3
 2006a0a:	00d8      	lsls	r0, r3, #3
 2006a0c:	e684      	b.n	2006718 <_malloc_r+0x1c0>
 2006a0e:	0510      	lsls	r0, r2, #20
 2006a10:	d000      	beq.n	2006a14 <_malloc_r+0x4bc>
 2006a12:	e6f8      	b.n	2006806 <_malloc_r+0x2ae>
 2006a14:	68bd      	ldr	r5, [r7, #8]
 2006a16:	4459      	add	r1, fp
 2006a18:	2201      	movs	r2, #1
 2006a1a:	430a      	orrs	r2, r1
 2006a1c:	606a      	str	r2, [r5, #4]
 2006a1e:	e732      	b.n	2006886 <_malloc_r+0x32e>
 2006a20:	2100      	movs	r1, #0
 2006a22:	2001      	movs	r0, #1
 2006a24:	4689      	mov	r9, r1
 2006a26:	e711      	b.n	200684c <_malloc_r+0x2f4>
 2006a28:	4651      	mov	r1, sl
 2006a2a:	6081      	str	r1, [r0, #8]
 2006a2c:	e6f4      	b.n	2006818 <_malloc_r+0x2c0>
 2006a2e:	480a      	ldr	r0, [pc, #40]	; (2006a58 <_malloc_r+0x500>)
 2006a30:	4283      	cmp	r3, r0
 2006a32:	d90c      	bls.n	2006a4e <_malloc_r+0x4f6>
 2006a34:	20fc      	movs	r0, #252	; 0xfc
 2006a36:	227e      	movs	r2, #126	; 0x7e
 2006a38:	0080      	lsls	r0, r0, #2
 2006a3a:	4692      	mov	sl, r2
 2006a3c:	e66c      	b.n	2006718 <_malloc_r+0x1c0>
 2006a3e:	687b      	ldr	r3, [r7, #4]
 2006a40:	4383      	bics	r3, r0
 2006a42:	607b      	str	r3, [r7, #4]
 2006a44:	e7ca      	b.n	20069dc <_malloc_r+0x484>
 2006a46:	2504      	movs	r5, #4
 2006a48:	44a9      	add	r9, r5
 2006a4a:	0040      	lsls	r0, r0, #1
 2006a4c:	e7cd      	b.n	20069ea <_malloc_r+0x492>
 2006a4e:	0c93      	lsrs	r3, r2, #18
 2006a50:	337c      	adds	r3, #124	; 0x7c
 2006a52:	469a      	mov	sl, r3
 2006a54:	00d8      	lsls	r0, r3, #3
 2006a56:	e65f      	b.n	2006718 <_malloc_r+0x1c0>
 2006a58:	00000554 	.word	0x00000554

02006a5c <mbrtowc>:
 2006a5c:	b5f0      	push	{r4, r5, r6, r7, lr}
 2006a5e:	4657      	mov	r7, sl
 2006a60:	464e      	mov	r6, r9
 2006a62:	4645      	mov	r5, r8
 2006a64:	b4e0      	push	{r5, r6, r7}
 2006a66:	b082      	sub	sp, #8
 2006a68:	4680      	mov	r8, r0
 2006a6a:	1c0d      	adds	r5, r1, #0
 2006a6c:	4692      	mov	sl, r2
 2006a6e:	1c1c      	adds	r4, r3, #0
 2006a70:	2b00      	cmp	r3, #0
 2006a72:	d02c      	beq.n	2006ace <mbrtowc+0x72>
 2006a74:	4e19      	ldr	r6, [pc, #100]	; (2006adc <mbrtowc+0x80>)
 2006a76:	6837      	ldr	r7, [r6, #0]
 2006a78:	2d00      	cmp	r5, #0
 2006a7a:	d01b      	beq.n	2006ab4 <mbrtowc+0x58>
 2006a7c:	4b18      	ldr	r3, [pc, #96]	; (2006ae0 <mbrtowc+0x84>)
 2006a7e:	681b      	ldr	r3, [r3, #0]
 2006a80:	4699      	mov	r9, r3
 2006a82:	f7ff f8f3 	bl	2005c6c <__locale_charset>
 2006a86:	9401      	str	r4, [sp, #4]
 2006a88:	9000      	str	r0, [sp, #0]
 2006a8a:	4641      	mov	r1, r8
 2006a8c:	1c38      	adds	r0, r7, #0
 2006a8e:	1c2a      	adds	r2, r5, #0
 2006a90:	4653      	mov	r3, sl
 2006a92:	f000 f868 	bl	2006b66 <_mbrtowc_r+0x7e>
 2006a96:	1c43      	adds	r3, r0, #1
 2006a98:	d104      	bne.n	2006aa4 <mbrtowc+0x48>
 2006a9a:	2300      	movs	r3, #0
 2006a9c:	6023      	str	r3, [r4, #0]
 2006a9e:	6833      	ldr	r3, [r6, #0]
 2006aa0:	228a      	movs	r2, #138	; 0x8a
 2006aa2:	601a      	str	r2, [r3, #0]
 2006aa4:	b002      	add	sp, #8
 2006aa6:	bc1c      	pop	{r2, r3, r4}
 2006aa8:	4690      	mov	r8, r2
 2006aaa:	4699      	mov	r9, r3
 2006aac:	46a2      	mov	sl, r4
 2006aae:	bcf0      	pop	{r4, r5, r6, r7}
 2006ab0:	bc02      	pop	{r1}
 2006ab2:	4708      	bx	r1
 2006ab4:	4b0a      	ldr	r3, [pc, #40]	; (2006ae0 <mbrtowc+0x84>)
 2006ab6:	681d      	ldr	r5, [r3, #0]
 2006ab8:	f7ff f8d8 	bl	2005c6c <__locale_charset>
 2006abc:	9401      	str	r4, [sp, #4]
 2006abe:	9000      	str	r0, [sp, #0]
 2006ac0:	2100      	movs	r1, #0
 2006ac2:	1c38      	adds	r0, r7, #0
 2006ac4:	4a07      	ldr	r2, [pc, #28]	; (2006ae4 <mbrtowc+0x88>)
 2006ac6:	2301      	movs	r3, #1
 2006ac8:	f000 f84c 	bl	2006b64 <_mbrtowc_r+0x7c>
 2006acc:	e7e3      	b.n	2006a96 <mbrtowc+0x3a>
 2006ace:	4e03      	ldr	r6, [pc, #12]	; (2006adc <mbrtowc+0x80>)
 2006ad0:	2382      	movs	r3, #130	; 0x82
 2006ad2:	6837      	ldr	r7, [r6, #0]
 2006ad4:	005b      	lsls	r3, r3, #1
 2006ad6:	18fc      	adds	r4, r7, r3
 2006ad8:	e7ce      	b.n	2006a78 <mbrtowc+0x1c>
 2006ada:	46c0      	nop			; (mov r8, r8)
 2006adc:	0200e940 	.word	0x0200e940
 2006ae0:	0200f2cc 	.word	0x0200f2cc
 2006ae4:	0200e340 	.word	0x0200e340

02006ae8 <_mbrtowc_r>:
 2006ae8:	b5f0      	push	{r4, r5, r6, r7, lr}
 2006aea:	4657      	mov	r7, sl
 2006aec:	4646      	mov	r6, r8
 2006aee:	b4c0      	push	{r6, r7}
 2006af0:	b083      	sub	sp, #12
 2006af2:	9c0a      	ldr	r4, [sp, #40]	; 0x28
 2006af4:	1c06      	adds	r6, r0, #0
 2006af6:	1c0f      	adds	r7, r1, #0
 2006af8:	1c15      	adds	r5, r2, #0
 2006afa:	4698      	mov	r8, r3
 2006afc:	2c00      	cmp	r4, #0
 2006afe:	d028      	beq.n	2006b52 <_mbrtowc_r+0x6a>
 2006b00:	2d00      	cmp	r5, #0
 2006b02:	d019      	beq.n	2006b38 <_mbrtowc_r+0x50>
 2006b04:	4b15      	ldr	r3, [pc, #84]	; (2006b5c <_mbrtowc_r+0x74>)
 2006b06:	681b      	ldr	r3, [r3, #0]
 2006b08:	469a      	mov	sl, r3
 2006b0a:	f7ff f8af 	bl	2005c6c <__locale_charset>
 2006b0e:	9401      	str	r4, [sp, #4]
 2006b10:	9000      	str	r0, [sp, #0]
 2006b12:	1c39      	adds	r1, r7, #0
 2006b14:	1c30      	adds	r0, r6, #0
 2006b16:	1c2a      	adds	r2, r5, #0
 2006b18:	4643      	mov	r3, r8
 2006b1a:	f000 f825 	bl	2006b68 <_mbrtowc_r+0x80>
 2006b1e:	1c43      	adds	r3, r0, #1
 2006b20:	d103      	bne.n	2006b2a <_mbrtowc_r+0x42>
 2006b22:	2300      	movs	r3, #0
 2006b24:	6023      	str	r3, [r4, #0]
 2006b26:	238a      	movs	r3, #138	; 0x8a
 2006b28:	6033      	str	r3, [r6, #0]
 2006b2a:	b003      	add	sp, #12
 2006b2c:	bc0c      	pop	{r2, r3}
 2006b2e:	4690      	mov	r8, r2
 2006b30:	469a      	mov	sl, r3
 2006b32:	bcf0      	pop	{r4, r5, r6, r7}
 2006b34:	bc02      	pop	{r1}
 2006b36:	4708      	bx	r1
 2006b38:	4b08      	ldr	r3, [pc, #32]	; (2006b5c <_mbrtowc_r+0x74>)
 2006b3a:	681d      	ldr	r5, [r3, #0]
 2006b3c:	f7ff f896 	bl	2005c6c <__locale_charset>
 2006b40:	9401      	str	r4, [sp, #4]
 2006b42:	9000      	str	r0, [sp, #0]
 2006b44:	2100      	movs	r1, #0
 2006b46:	1c30      	adds	r0, r6, #0
 2006b48:	4a05      	ldr	r2, [pc, #20]	; (2006b60 <_mbrtowc_r+0x78>)
 2006b4a:	2301      	movs	r3, #1
 2006b4c:	f000 f80a 	bl	2006b64 <_mbrtowc_r+0x7c>
 2006b50:	e7e5      	b.n	2006b1e <_mbrtowc_r+0x36>
 2006b52:	2382      	movs	r3, #130	; 0x82
 2006b54:	005b      	lsls	r3, r3, #1
 2006b56:	18c4      	adds	r4, r0, r3
 2006b58:	e7d2      	b.n	2006b00 <_mbrtowc_r+0x18>
 2006b5a:	46c0      	nop			; (mov r8, r8)
 2006b5c:	0200f2cc 	.word	0x0200f2cc
 2006b60:	0200e340 	.word	0x0200e340
 2006b64:	4728      	bx	r5
 2006b66:	4748      	bx	r9
 2006b68:	4750      	bx	sl
 2006b6a:	46c0      	nop			; (mov r8, r8)

02006b6c <__ascii_mbtowc>:
 2006b6c:	b500      	push	{lr}
 2006b6e:	b083      	sub	sp, #12
 2006b70:	2900      	cmp	r1, #0
 2006b72:	d00d      	beq.n	2006b90 <__ascii_mbtowc+0x24>
 2006b74:	2a00      	cmp	r2, #0
 2006b76:	d103      	bne.n	2006b80 <__ascii_mbtowc+0x14>
 2006b78:	2000      	movs	r0, #0
 2006b7a:	b003      	add	sp, #12
 2006b7c:	bc02      	pop	{r1}
 2006b7e:	4708      	bx	r1
 2006b80:	2b00      	cmp	r3, #0
 2006b82:	d007      	beq.n	2006b94 <__ascii_mbtowc+0x28>
 2006b84:	7813      	ldrb	r3, [r2, #0]
 2006b86:	600b      	str	r3, [r1, #0]
 2006b88:	7810      	ldrb	r0, [r2, #0]
 2006b8a:	1e43      	subs	r3, r0, #1
 2006b8c:	4198      	sbcs	r0, r3
 2006b8e:	e7f4      	b.n	2006b7a <__ascii_mbtowc+0xe>
 2006b90:	a901      	add	r1, sp, #4
 2006b92:	e7ef      	b.n	2006b74 <__ascii_mbtowc+0x8>
 2006b94:	2002      	movs	r0, #2
 2006b96:	4240      	negs	r0, r0
 2006b98:	e7ef      	b.n	2006b7a <__ascii_mbtowc+0xe>
 2006b9a:	46c0      	nop			; (mov r8, r8)

02006b9c <__utf8_mbtowc>:
 2006b9c:	b5f0      	push	{r4, r5, r6, r7, lr}
 2006b9e:	4647      	mov	r7, r8
 2006ba0:	b480      	push	{r7}
 2006ba2:	b082      	sub	sp, #8
 2006ba4:	9c09      	ldr	r4, [sp, #36]	; 0x24
 2006ba6:	2900      	cmp	r1, #0
 2006ba8:	d067      	beq.n	2006c7a <__utf8_mbtowc+0xde>
 2006baa:	2a00      	cmp	r2, #0
 2006bac:	d106      	bne.n	2006bbc <__utf8_mbtowc+0x20>
 2006bae:	2000      	movs	r0, #0
 2006bb0:	b002      	add	sp, #8
 2006bb2:	bc04      	pop	{r2}
 2006bb4:	4690      	mov	r8, r2
 2006bb6:	bcf0      	pop	{r4, r5, r6, r7}
 2006bb8:	bc02      	pop	{r1}
 2006bba:	4708      	bx	r1
 2006bbc:	2b00      	cmp	r3, #0
 2006bbe:	d062      	beq.n	2006c86 <__utf8_mbtowc+0xea>
 2006bc0:	6826      	ldr	r6, [r4, #0]
 2006bc2:	2e00      	cmp	r6, #0
 2006bc4:	d162      	bne.n	2006c8c <__utf8_mbtowc+0xf0>
 2006bc6:	2701      	movs	r7, #1
 2006bc8:	7815      	ldrb	r5, [r2, #0]
 2006bca:	46b8      	mov	r8, r7
 2006bcc:	2d00      	cmp	r5, #0
 2006bce:	d066      	beq.n	2006c9e <__utf8_mbtowc+0x102>
 2006bd0:	2d7f      	cmp	r5, #127	; 0x7f
 2006bd2:	dd5f      	ble.n	2006c94 <__utf8_mbtowc+0xf8>
 2006bd4:	27c0      	movs	r7, #192	; 0xc0
 2006bd6:	427f      	negs	r7, r7
 2006bd8:	197f      	adds	r7, r7, r5
 2006bda:	2f1f      	cmp	r7, #31
 2006bdc:	d800      	bhi.n	2006be0 <__utf8_mbtowc+0x44>
 2006bde:	e0ad      	b.n	2006d3c <__utf8_mbtowc+0x1a0>
 2006be0:	27e0      	movs	r7, #224	; 0xe0
 2006be2:	427f      	negs	r7, r7
 2006be4:	197f      	adds	r7, r7, r5
 2006be6:	2f0f      	cmp	r7, #15
 2006be8:	d976      	bls.n	2006cd8 <__utf8_mbtowc+0x13c>
 2006bea:	27f0      	movs	r7, #240	; 0xf0
 2006bec:	427f      	negs	r7, r7
 2006bee:	197f      	adds	r7, r7, r5
 2006bf0:	2f04      	cmp	r7, #4
 2006bf2:	d859      	bhi.n	2006ca8 <__utf8_mbtowc+0x10c>
 2006bf4:	7125      	strb	r5, [r4, #4]
 2006bf6:	2e00      	cmp	r6, #0
 2006bf8:	d15b      	bne.n	2006cb2 <__utf8_mbtowc+0x116>
 2006bfa:	2501      	movs	r5, #1
 2006bfc:	6025      	str	r5, [r4, #0]
 2006bfe:	2b01      	cmp	r3, #1
 2006c00:	d941      	bls.n	2006c86 <__utf8_mbtowc+0xea>
 2006c02:	6826      	ldr	r6, [r4, #0]
 2006c04:	7925      	ldrb	r5, [r4, #4]
 2006c06:	2e01      	cmp	r6, #1
 2006c08:	d057      	beq.n	2006cba <__utf8_mbtowc+0x11e>
 2006c0a:	7967      	ldrb	r7, [r4, #5]
 2006c0c:	46bc      	mov	ip, r7
 2006c0e:	4667      	mov	r7, ip
 2006c10:	2f8f      	cmp	r7, #143	; 0x8f
 2006c12:	dc47      	bgt.n	2006ca4 <__utf8_mbtowc+0x108>
 2006c14:	2df0      	cmp	r5, #240	; 0xf0
 2006c16:	d047      	beq.n	2006ca8 <__utf8_mbtowc+0x10c>
 2006c18:	4665      	mov	r5, ip
 2006c1a:	3d80      	subs	r5, #128	; 0x80
 2006c1c:	2d3f      	cmp	r5, #63	; 0x3f
 2006c1e:	d843      	bhi.n	2006ca8 <__utf8_mbtowc+0x10c>
 2006c20:	4665      	mov	r5, ip
 2006c22:	7165      	strb	r5, [r4, #5]
 2006c24:	2e01      	cmp	r6, #1
 2006c26:	d04e      	beq.n	2006cc6 <__utf8_mbtowc+0x12a>
 2006c28:	1c5f      	adds	r7, r3, #1
 2006c2a:	d000      	beq.n	2006c2e <__utf8_mbtowc+0x92>
 2006c2c:	3301      	adds	r3, #1
 2006c2e:	2e02      	cmp	r6, #2
 2006c30:	d04d      	beq.n	2006cce <__utf8_mbtowc+0x132>
 2006c32:	79a5      	ldrb	r5, [r4, #6]
 2006c34:	1c2e      	adds	r6, r5, #0
 2006c36:	3e80      	subs	r6, #128	; 0x80
 2006c38:	2e3f      	cmp	r6, #63	; 0x3f
 2006c3a:	d835      	bhi.n	2006ca8 <__utf8_mbtowc+0x10c>
 2006c3c:	71a5      	strb	r5, [r4, #6]
 2006c3e:	6825      	ldr	r5, [r4, #0]
 2006c40:	2d02      	cmp	r5, #2
 2006c42:	d01c      	beq.n	2006c7e <__utf8_mbtowc+0xe2>
 2006c44:	4643      	mov	r3, r8
 2006c46:	5cd2      	ldrb	r2, [r2, r3]
 2006c48:	1c13      	adds	r3, r2, #0
 2006c4a:	3b80      	subs	r3, #128	; 0x80
 2006c4c:	2b3f      	cmp	r3, #63	; 0x3f
 2006c4e:	d82b      	bhi.n	2006ca8 <__utf8_mbtowc+0x10c>
 2006c50:	7966      	ldrb	r6, [r4, #5]
 2006c52:	7927      	ldrb	r7, [r4, #4]
 2006c54:	233f      	movs	r3, #63	; 0x3f
 2006c56:	2507      	movs	r5, #7
 2006c58:	401e      	ands	r6, r3
 2006c5a:	403d      	ands	r5, r7
 2006c5c:	04ad      	lsls	r5, r5, #18
 2006c5e:	0336      	lsls	r6, r6, #12
 2006c60:	432e      	orrs	r6, r5
 2006c62:	79a5      	ldrb	r5, [r4, #6]
 2006c64:	401d      	ands	r5, r3
 2006c66:	01ad      	lsls	r5, r5, #6
 2006c68:	4335      	orrs	r5, r6
 2006c6a:	4013      	ands	r3, r2
 2006c6c:	432b      	orrs	r3, r5
 2006c6e:	600b      	str	r3, [r1, #0]
 2006c70:	4640      	mov	r0, r8
 2006c72:	2300      	movs	r3, #0
 2006c74:	3001      	adds	r0, #1
 2006c76:	6023      	str	r3, [r4, #0]
 2006c78:	e79a      	b.n	2006bb0 <__utf8_mbtowc+0x14>
 2006c7a:	a901      	add	r1, sp, #4
 2006c7c:	e795      	b.n	2006baa <__utf8_mbtowc+0xe>
 2006c7e:	2503      	movs	r5, #3
 2006c80:	6025      	str	r5, [r4, #0]
 2006c82:	2b03      	cmp	r3, #3
 2006c84:	d1de      	bne.n	2006c44 <__utf8_mbtowc+0xa8>
 2006c86:	2002      	movs	r0, #2
 2006c88:	4240      	negs	r0, r0
 2006c8a:	e791      	b.n	2006bb0 <__utf8_mbtowc+0x14>
 2006c8c:	2700      	movs	r7, #0
 2006c8e:	7925      	ldrb	r5, [r4, #4]
 2006c90:	46b8      	mov	r8, r7
 2006c92:	e79b      	b.n	2006bcc <__utf8_mbtowc+0x30>
 2006c94:	2300      	movs	r3, #0
 2006c96:	6023      	str	r3, [r4, #0]
 2006c98:	2001      	movs	r0, #1
 2006c9a:	600d      	str	r5, [r1, #0]
 2006c9c:	e788      	b.n	2006bb0 <__utf8_mbtowc+0x14>
 2006c9e:	600d      	str	r5, [r1, #0]
 2006ca0:	6025      	str	r5, [r4, #0]
 2006ca2:	e784      	b.n	2006bae <__utf8_mbtowc+0x12>
 2006ca4:	2df4      	cmp	r5, #244	; 0xf4
 2006ca6:	d1b7      	bne.n	2006c18 <__utf8_mbtowc+0x7c>
 2006ca8:	238a      	movs	r3, #138	; 0x8a
 2006caa:	6003      	str	r3, [r0, #0]
 2006cac:	2001      	movs	r0, #1
 2006cae:	4240      	negs	r0, r0
 2006cb0:	e77e      	b.n	2006bb0 <__utf8_mbtowc+0x14>
 2006cb2:	1c5f      	adds	r7, r3, #1
 2006cb4:	d0a7      	beq.n	2006c06 <__utf8_mbtowc+0x6a>
 2006cb6:	3301      	adds	r3, #1
 2006cb8:	e7a1      	b.n	2006bfe <__utf8_mbtowc+0x62>
 2006cba:	4647      	mov	r7, r8
 2006cbc:	5dd7      	ldrb	r7, [r2, r7]
 2006cbe:	46bc      	mov	ip, r7
 2006cc0:	2701      	movs	r7, #1
 2006cc2:	44b8      	add	r8, r7
 2006cc4:	e7a3      	b.n	2006c0e <__utf8_mbtowc+0x72>
 2006cc6:	2502      	movs	r5, #2
 2006cc8:	6025      	str	r5, [r4, #0]
 2006cca:	2b02      	cmp	r3, #2
 2006ccc:	d0db      	beq.n	2006c86 <__utf8_mbtowc+0xea>
 2006cce:	4646      	mov	r6, r8
 2006cd0:	2701      	movs	r7, #1
 2006cd2:	5d95      	ldrb	r5, [r2, r6]
 2006cd4:	44b8      	add	r8, r7
 2006cd6:	e7ad      	b.n	2006c34 <__utf8_mbtowc+0x98>
 2006cd8:	46ac      	mov	ip, r5
 2006cda:	7125      	strb	r5, [r4, #4]
 2006cdc:	2e00      	cmp	r6, #0
 2006cde:	d14d      	bne.n	2006d7c <__utf8_mbtowc+0x1e0>
 2006ce0:	2501      	movs	r5, #1
 2006ce2:	6025      	str	r5, [r4, #0]
 2006ce4:	2b01      	cmp	r3, #1
 2006ce6:	d9ce      	bls.n	2006c86 <__utf8_mbtowc+0xea>
 2006ce8:	7925      	ldrb	r5, [r4, #4]
 2006cea:	6826      	ldr	r6, [r4, #0]
 2006cec:	46ac      	mov	ip, r5
 2006cee:	2e01      	cmp	r6, #1
 2006cf0:	d048      	beq.n	2006d84 <__utf8_mbtowc+0x1e8>
 2006cf2:	7965      	ldrb	r5, [r4, #5]
 2006cf4:	2d9f      	cmp	r5, #159	; 0x9f
 2006cf6:	dc02      	bgt.n	2006cfe <__utf8_mbtowc+0x162>
 2006cf8:	4667      	mov	r7, ip
 2006cfa:	2fe0      	cmp	r7, #224	; 0xe0
 2006cfc:	d0d4      	beq.n	2006ca8 <__utf8_mbtowc+0x10c>
 2006cfe:	2780      	movs	r7, #128	; 0x80
 2006d00:	427f      	negs	r7, r7
 2006d02:	197f      	adds	r7, r7, r5
 2006d04:	2f3f      	cmp	r7, #63	; 0x3f
 2006d06:	d8cf      	bhi.n	2006ca8 <__utf8_mbtowc+0x10c>
 2006d08:	7165      	strb	r5, [r4, #5]
 2006d0a:	2e01      	cmp	r6, #1
 2006d0c:	d03f      	beq.n	2006d8e <__utf8_mbtowc+0x1f2>
 2006d0e:	4643      	mov	r3, r8
 2006d10:	5cd2      	ldrb	r2, [r2, r3]
 2006d12:	1c13      	adds	r3, r2, #0
 2006d14:	3b80      	subs	r3, #128	; 0x80
 2006d16:	2b3f      	cmp	r3, #63	; 0x3f
 2006d18:	d8c6      	bhi.n	2006ca8 <__utf8_mbtowc+0x10c>
 2006d1a:	7965      	ldrb	r5, [r4, #5]
 2006d1c:	7926      	ldrb	r6, [r4, #4]
 2006d1e:	2300      	movs	r3, #0
 2006d20:	6023      	str	r3, [r4, #0]
 2006d22:	233f      	movs	r3, #63	; 0x3f
 2006d24:	4c1d      	ldr	r4, [pc, #116]	; (2006d9c <__utf8_mbtowc+0x200>)
 2006d26:	401d      	ands	r5, r3
 2006d28:	0336      	lsls	r6, r6, #12
 2006d2a:	01ad      	lsls	r5, r5, #6
 2006d2c:	4034      	ands	r4, r6
 2006d2e:	432c      	orrs	r4, r5
 2006d30:	4013      	ands	r3, r2
 2006d32:	4640      	mov	r0, r8
 2006d34:	4323      	orrs	r3, r4
 2006d36:	3001      	adds	r0, #1
 2006d38:	600b      	str	r3, [r1, #0]
 2006d3a:	e739      	b.n	2006bb0 <__utf8_mbtowc+0x14>
 2006d3c:	7125      	strb	r5, [r4, #4]
 2006d3e:	2e00      	cmp	r6, #0
 2006d40:	d118      	bne.n	2006d74 <__utf8_mbtowc+0x1d8>
 2006d42:	2501      	movs	r5, #1
 2006d44:	6025      	str	r5, [r4, #0]
 2006d46:	2b01      	cmp	r3, #1
 2006d48:	d99d      	bls.n	2006c86 <__utf8_mbtowc+0xea>
 2006d4a:	4646      	mov	r6, r8
 2006d4c:	5d92      	ldrb	r2, [r2, r6]
 2006d4e:	1c13      	adds	r3, r2, #0
 2006d50:	3b80      	subs	r3, #128	; 0x80
 2006d52:	2b3f      	cmp	r3, #63	; 0x3f
 2006d54:	d8a8      	bhi.n	2006ca8 <__utf8_mbtowc+0x10c>
 2006d56:	7923      	ldrb	r3, [r4, #4]
 2006d58:	2bc1      	cmp	r3, #193	; 0xc1
 2006d5a:	d9a5      	bls.n	2006ca8 <__utf8_mbtowc+0x10c>
 2006d5c:	2500      	movs	r5, #0
 2006d5e:	6025      	str	r5, [r4, #0]
 2006d60:	243f      	movs	r4, #63	; 0x3f
 2006d62:	4022      	ands	r2, r4
 2006d64:	241f      	movs	r4, #31
 2006d66:	4023      	ands	r3, r4
 2006d68:	019b      	lsls	r3, r3, #6
 2006d6a:	4640      	mov	r0, r8
 2006d6c:	431a      	orrs	r2, r3
 2006d6e:	3001      	adds	r0, #1
 2006d70:	600a      	str	r2, [r1, #0]
 2006d72:	e71d      	b.n	2006bb0 <__utf8_mbtowc+0x14>
 2006d74:	1c5d      	adds	r5, r3, #1
 2006d76:	d0e8      	beq.n	2006d4a <__utf8_mbtowc+0x1ae>
 2006d78:	3301      	adds	r3, #1
 2006d7a:	e7e4      	b.n	2006d46 <__utf8_mbtowc+0x1aa>
 2006d7c:	1c5f      	adds	r7, r3, #1
 2006d7e:	d0b6      	beq.n	2006cee <__utf8_mbtowc+0x152>
 2006d80:	3301      	adds	r3, #1
 2006d82:	e7af      	b.n	2006ce4 <__utf8_mbtowc+0x148>
 2006d84:	4647      	mov	r7, r8
 2006d86:	5dd5      	ldrb	r5, [r2, r7]
 2006d88:	2701      	movs	r7, #1
 2006d8a:	44b8      	add	r8, r7
 2006d8c:	e7b2      	b.n	2006cf4 <__utf8_mbtowc+0x158>
 2006d8e:	2502      	movs	r5, #2
 2006d90:	6025      	str	r5, [r4, #0]
 2006d92:	2b02      	cmp	r3, #2
 2006d94:	d100      	bne.n	2006d98 <__utf8_mbtowc+0x1fc>
 2006d96:	e776      	b.n	2006c86 <__utf8_mbtowc+0xea>
 2006d98:	e7b9      	b.n	2006d0e <__utf8_mbtowc+0x172>
 2006d9a:	46c0      	nop			; (mov r8, r8)
 2006d9c:	0000ffff 	.word	0x0000ffff

02006da0 <__sjis_mbtowc>:
 2006da0:	b5f0      	push	{r4, r5, r6, r7, lr}
 2006da2:	b083      	sub	sp, #12
 2006da4:	1c04      	adds	r4, r0, #0
 2006da6:	9d09      	ldr	r5, [sp, #36]	; 0x24
 2006da8:	2900      	cmp	r1, #0
 2006daa:	d01c      	beq.n	2006de6 <__sjis_mbtowc+0x46>
 2006dac:	2a00      	cmp	r2, #0
 2006dae:	d104      	bne.n	2006dba <__sjis_mbtowc+0x1a>
 2006db0:	2000      	movs	r0, #0
 2006db2:	b003      	add	sp, #12
 2006db4:	bcf0      	pop	{r4, r5, r6, r7}
 2006db6:	bc02      	pop	{r1}
 2006db8:	4708      	bx	r1
 2006dba:	2b00      	cmp	r3, #0
 2006dbc:	d015      	beq.n	2006dea <__sjis_mbtowc+0x4a>
 2006dbe:	7810      	ldrb	r0, [r2, #0]
 2006dc0:	682e      	ldr	r6, [r5, #0]
 2006dc2:	1c07      	adds	r7, r0, #0
 2006dc4:	2e00      	cmp	r6, #0
 2006dc6:	d113      	bne.n	2006df0 <__sjis_mbtowc+0x50>
 2006dc8:	1c06      	adds	r6, r0, #0
 2006dca:	3ee0      	subs	r6, #224	; 0xe0
 2006dcc:	2e0f      	cmp	r6, #15
 2006dce:	d902      	bls.n	2006dd6 <__sjis_mbtowc+0x36>
 2006dd0:	365f      	adds	r6, #95	; 0x5f
 2006dd2:	2e1e      	cmp	r6, #30
 2006dd4:	d81b      	bhi.n	2006e0e <__sjis_mbtowc+0x6e>
 2006dd6:	7128      	strb	r0, [r5, #4]
 2006dd8:	2001      	movs	r0, #1
 2006dda:	6028      	str	r0, [r5, #0]
 2006ddc:	2b01      	cmp	r3, #1
 2006dde:	d904      	bls.n	2006dea <__sjis_mbtowc+0x4a>
 2006de0:	7857      	ldrb	r7, [r2, #1]
 2006de2:	2002      	movs	r0, #2
 2006de4:	e007      	b.n	2006df6 <__sjis_mbtowc+0x56>
 2006de6:	a901      	add	r1, sp, #4
 2006de8:	e7e0      	b.n	2006dac <__sjis_mbtowc+0xc>
 2006dea:	2002      	movs	r0, #2
 2006dec:	4240      	negs	r0, r0
 2006dee:	e7e0      	b.n	2006db2 <__sjis_mbtowc+0x12>
 2006df0:	2e01      	cmp	r6, #1
 2006df2:	d10c      	bne.n	2006e0e <__sjis_mbtowc+0x6e>
 2006df4:	2001      	movs	r0, #1
 2006df6:	1c3b      	adds	r3, r7, #0
 2006df8:	3b80      	subs	r3, #128	; 0x80
 2006dfa:	2b7c      	cmp	r3, #124	; 0x7c
 2006dfc:	d90c      	bls.n	2006e18 <__sjis_mbtowc+0x78>
 2006dfe:	3340      	adds	r3, #64	; 0x40
 2006e00:	2b3e      	cmp	r3, #62	; 0x3e
 2006e02:	d909      	bls.n	2006e18 <__sjis_mbtowc+0x78>
 2006e04:	238a      	movs	r3, #138	; 0x8a
 2006e06:	2001      	movs	r0, #1
 2006e08:	6023      	str	r3, [r4, #0]
 2006e0a:	4240      	negs	r0, r0
 2006e0c:	e7d1      	b.n	2006db2 <__sjis_mbtowc+0x12>
 2006e0e:	6008      	str	r0, [r1, #0]
 2006e10:	7810      	ldrb	r0, [r2, #0]
 2006e12:	1e43      	subs	r3, r0, #1
 2006e14:	4198      	sbcs	r0, r3
 2006e16:	e7cc      	b.n	2006db2 <__sjis_mbtowc+0x12>
 2006e18:	792b      	ldrb	r3, [r5, #4]
 2006e1a:	021b      	lsls	r3, r3, #8
 2006e1c:	18ff      	adds	r7, r7, r3
 2006e1e:	2300      	movs	r3, #0
 2006e20:	600f      	str	r7, [r1, #0]
 2006e22:	602b      	str	r3, [r5, #0]
 2006e24:	e7c5      	b.n	2006db2 <__sjis_mbtowc+0x12>
 2006e26:	46c0      	nop			; (mov r8, r8)

02006e28 <__eucjp_mbtowc>:
 2006e28:	b5f0      	push	{r4, r5, r6, r7, lr}
 2006e2a:	b083      	sub	sp, #12
 2006e2c:	9d09      	ldr	r5, [sp, #36]	; 0x24
 2006e2e:	2900      	cmp	r1, #0
 2006e30:	d028      	beq.n	2006e84 <__eucjp_mbtowc+0x5c>
 2006e32:	2a00      	cmp	r2, #0
 2006e34:	d105      	bne.n	2006e42 <__eucjp_mbtowc+0x1a>
 2006e36:	2400      	movs	r4, #0
 2006e38:	b003      	add	sp, #12
 2006e3a:	1c20      	adds	r0, r4, #0
 2006e3c:	bcf0      	pop	{r4, r5, r6, r7}
 2006e3e:	bc02      	pop	{r1}
 2006e40:	4708      	bx	r1
 2006e42:	2b00      	cmp	r3, #0
 2006e44:	d020      	beq.n	2006e88 <__eucjp_mbtowc+0x60>
 2006e46:	682c      	ldr	r4, [r5, #0]
 2006e48:	7816      	ldrb	r6, [r2, #0]
 2006e4a:	2c00      	cmp	r4, #0
 2006e4c:	d11f      	bne.n	2006e8e <__eucjp_mbtowc+0x66>
 2006e4e:	1c34      	adds	r4, r6, #0
 2006e50:	3ca1      	subs	r4, #161	; 0xa1
 2006e52:	2c5d      	cmp	r4, #93	; 0x5d
 2006e54:	d902      	bls.n	2006e5c <__eucjp_mbtowc+0x34>
 2006e56:	3413      	adds	r4, #19
 2006e58:	2c01      	cmp	r4, #1
 2006e5a:	d81c      	bhi.n	2006e96 <__eucjp_mbtowc+0x6e>
 2006e5c:	2401      	movs	r4, #1
 2006e5e:	712e      	strb	r6, [r5, #4]
 2006e60:	602c      	str	r4, [r5, #0]
 2006e62:	2b01      	cmp	r3, #1
 2006e64:	d910      	bls.n	2006e88 <__eucjp_mbtowc+0x60>
 2006e66:	7856      	ldrb	r6, [r2, #1]
 2006e68:	2402      	movs	r4, #2
 2006e6a:	1c37      	adds	r7, r6, #0
 2006e6c:	3fa1      	subs	r7, #161	; 0xa1
 2006e6e:	2f5d      	cmp	r7, #93	; 0x5d
 2006e70:	d824      	bhi.n	2006ebc <__eucjp_mbtowc+0x94>
 2006e72:	792f      	ldrb	r7, [r5, #4]
 2006e74:	2f8f      	cmp	r7, #143	; 0x8f
 2006e76:	d026      	beq.n	2006ec6 <__eucjp_mbtowc+0x9e>
 2006e78:	023f      	lsls	r7, r7, #8
 2006e7a:	19f6      	adds	r6, r6, r7
 2006e7c:	2300      	movs	r3, #0
 2006e7e:	600e      	str	r6, [r1, #0]
 2006e80:	602b      	str	r3, [r5, #0]
 2006e82:	e7d9      	b.n	2006e38 <__eucjp_mbtowc+0x10>
 2006e84:	a901      	add	r1, sp, #4
 2006e86:	e7d4      	b.n	2006e32 <__eucjp_mbtowc+0xa>
 2006e88:	2402      	movs	r4, #2
 2006e8a:	4264      	negs	r4, r4
 2006e8c:	e7d4      	b.n	2006e38 <__eucjp_mbtowc+0x10>
 2006e8e:	2c01      	cmp	r4, #1
 2006e90:	d0eb      	beq.n	2006e6a <__eucjp_mbtowc+0x42>
 2006e92:	2c02      	cmp	r4, #2
 2006e94:	d004      	beq.n	2006ea0 <__eucjp_mbtowc+0x78>
 2006e96:	600e      	str	r6, [r1, #0]
 2006e98:	7814      	ldrb	r4, [r2, #0]
 2006e9a:	1e63      	subs	r3, r4, #1
 2006e9c:	419c      	sbcs	r4, r3
 2006e9e:	e7cb      	b.n	2006e38 <__eucjp_mbtowc+0x10>
 2006ea0:	2401      	movs	r4, #1
 2006ea2:	1c33      	adds	r3, r6, #0
 2006ea4:	3ba1      	subs	r3, #161	; 0xa1
 2006ea6:	2b5d      	cmp	r3, #93	; 0x5d
 2006ea8:	d808      	bhi.n	2006ebc <__eucjp_mbtowc+0x94>
 2006eaa:	237f      	movs	r3, #127	; 0x7f
 2006eac:	401e      	ands	r6, r3
 2006eae:	796b      	ldrb	r3, [r5, #5]
 2006eb0:	021b      	lsls	r3, r3, #8
 2006eb2:	18f6      	adds	r6, r6, r3
 2006eb4:	2300      	movs	r3, #0
 2006eb6:	600e      	str	r6, [r1, #0]
 2006eb8:	602b      	str	r3, [r5, #0]
 2006eba:	e7bd      	b.n	2006e38 <__eucjp_mbtowc+0x10>
 2006ebc:	238a      	movs	r3, #138	; 0x8a
 2006ebe:	2401      	movs	r4, #1
 2006ec0:	6003      	str	r3, [r0, #0]
 2006ec2:	4264      	negs	r4, r4
 2006ec4:	e7b8      	b.n	2006e38 <__eucjp_mbtowc+0x10>
 2006ec6:	716e      	strb	r6, [r5, #5]
 2006ec8:	2602      	movs	r6, #2
 2006eca:	602e      	str	r6, [r5, #0]
 2006ecc:	42a3      	cmp	r3, r4
 2006ece:	d9db      	bls.n	2006e88 <__eucjp_mbtowc+0x60>
 2006ed0:	5d16      	ldrb	r6, [r2, r4]
 2006ed2:	3401      	adds	r4, #1
 2006ed4:	e7e5      	b.n	2006ea2 <__eucjp_mbtowc+0x7a>
 2006ed6:	46c0      	nop			; (mov r8, r8)

02006ed8 <__jis_mbtowc>:
 2006ed8:	b5f0      	push	{r4, r5, r6, r7, lr}
 2006eda:	465f      	mov	r7, fp
 2006edc:	4656      	mov	r6, sl
 2006ede:	464d      	mov	r5, r9
 2006ee0:	4644      	mov	r4, r8
 2006ee2:	b4f0      	push	{r4, r5, r6, r7}
 2006ee4:	b087      	sub	sp, #28
 2006ee6:	9c11      	ldr	r4, [sp, #68]	; 0x44
 2006ee8:	2900      	cmp	r1, #0
 2006eea:	d028      	beq.n	2006f3e <__jis_mbtowc+0x66>
 2006eec:	2a00      	cmp	r2, #0
 2006eee:	d10a      	bne.n	2006f06 <__jis_mbtowc+0x2e>
 2006ef0:	6022      	str	r2, [r4, #0]
 2006ef2:	2001      	movs	r0, #1
 2006ef4:	b007      	add	sp, #28
 2006ef6:	bc3c      	pop	{r2, r3, r4, r5}
 2006ef8:	4690      	mov	r8, r2
 2006efa:	4699      	mov	r9, r3
 2006efc:	46a2      	mov	sl, r4
 2006efe:	46ab      	mov	fp, r5
 2006f00:	bcf0      	pop	{r4, r5, r6, r7}
 2006f02:	bc02      	pop	{r1}
 2006f04:	4708      	bx	r1
 2006f06:	2b00      	cmp	r3, #0
 2006f08:	d01c      	beq.n	2006f44 <__jis_mbtowc+0x6c>
 2006f0a:	4d3b      	ldr	r5, [pc, #236]	; (2006ff8 <__jis_mbtowc+0x120>)
 2006f0c:	7826      	ldrb	r6, [r4, #0]
 2006f0e:	46a9      	mov	r9, r5
 2006f10:	9203      	str	r2, [sp, #12]
 2006f12:	1c0d      	adds	r5, r1, #0
 2006f14:	9001      	str	r0, [sp, #4]
 2006f16:	2701      	movs	r7, #1
 2006f18:	1c11      	adds	r1, r2, #0
 2006f1a:	4690      	mov	r8, r2
 2006f1c:	469c      	mov	ip, r3
 2006f1e:	46aa      	mov	sl, r5
 2006f20:	780d      	ldrb	r5, [r1, #0]
 2006f22:	1e78      	subs	r0, r7, #1
 2006f24:	4683      	mov	fp, r0
 2006f26:	2d28      	cmp	r5, #40	; 0x28
 2006f28:	d05d      	beq.n	2006fe6 <__jis_mbtowc+0x10e>
 2006f2a:	2d28      	cmp	r5, #40	; 0x28
 2006f2c:	d80d      	bhi.n	2006f4a <__jis_mbtowc+0x72>
 2006f2e:	2d1b      	cmp	r5, #27
 2006f30:	d029      	beq.n	2006f86 <__jis_mbtowc+0xae>
 2006f32:	2d24      	cmp	r5, #36	; 0x24
 2006f34:	d055      	beq.n	2006fe2 <__jis_mbtowc+0x10a>
 2006f36:	2d00      	cmp	r5, #0
 2006f38:	d10d      	bne.n	2006f56 <__jis_mbtowc+0x7e>
 2006f3a:	2206      	movs	r2, #6
 2006f3c:	e010      	b.n	2006f60 <__jis_mbtowc+0x88>
 2006f3e:	a905      	add	r1, sp, #20
 2006f40:	e7d4      	b.n	2006eec <__jis_mbtowc+0x14>
 2006f42:	6026      	str	r6, [r4, #0]
 2006f44:	2002      	movs	r0, #2
 2006f46:	4240      	negs	r0, r0
 2006f48:	e7d4      	b.n	2006ef4 <__jis_mbtowc+0x1c>
 2006f4a:	2d42      	cmp	r5, #66	; 0x42
 2006f4c:	d019      	beq.n	2006f82 <__jis_mbtowc+0xaa>
 2006f4e:	2d4a      	cmp	r5, #74	; 0x4a
 2006f50:	d04d      	beq.n	2006fee <__jis_mbtowc+0x116>
 2006f52:	2d40      	cmp	r5, #64	; 0x40
 2006f54:	d049      	beq.n	2006fea <__jis_mbtowc+0x112>
 2006f56:	1c2b      	adds	r3, r5, #0
 2006f58:	3b21      	subs	r3, #33	; 0x21
 2006f5a:	2b5d      	cmp	r3, #93	; 0x5d
 2006f5c:	d949      	bls.n	2006ff2 <__jis_mbtowc+0x11a>
 2006f5e:	2208      	movs	r2, #8
 2006f60:	00f3      	lsls	r3, r6, #3
 2006f62:	199b      	adds	r3, r3, r6
 2006f64:	189e      	adds	r6, r3, r2
 2006f66:	444b      	add	r3, r9
 2006f68:	189b      	adds	r3, r3, r2
 2006f6a:	3348      	adds	r3, #72	; 0x48
 2006f6c:	781b      	ldrb	r3, [r3, #0]
 2006f6e:	4648      	mov	r0, r9
 2006f70:	5d86      	ldrb	r6, [r0, r6]
 2006f72:	2b05      	cmp	r3, #5
 2006f74:	d909      	bls.n	2006f8a <__jis_mbtowc+0xb2>
 2006f76:	9801      	ldr	r0, [sp, #4]
 2006f78:	238a      	movs	r3, #138	; 0x8a
 2006f7a:	6003      	str	r3, [r0, #0]
 2006f7c:	2001      	movs	r0, #1
 2006f7e:	4240      	negs	r0, r0
 2006f80:	e7b8      	b.n	2006ef4 <__jis_mbtowc+0x1c>
 2006f82:	2204      	movs	r2, #4
 2006f84:	e7ec      	b.n	2006f60 <__jis_mbtowc+0x88>
 2006f86:	2200      	movs	r2, #0
 2006f88:	e7ea      	b.n	2006f60 <__jis_mbtowc+0x88>
 2006f8a:	4a1c      	ldr	r2, [pc, #112]	; (2006ffc <__jis_mbtowc+0x124>)
 2006f8c:	009b      	lsls	r3, r3, #2
 2006f8e:	58d3      	ldr	r3, [r2, r3]
 2006f90:	469f      	mov	pc, r3
 2006f92:	7125      	strb	r5, [r4, #4]
 2006f94:	3101      	adds	r1, #1
 2006f96:	1c7b      	adds	r3, r7, #1
 2006f98:	45bc      	cmp	ip, r7
 2006f9a:	d9d2      	bls.n	2006f42 <__jis_mbtowc+0x6a>
 2006f9c:	1c1f      	adds	r7, r3, #0
 2006f9e:	e7bf      	b.n	2006f20 <__jis_mbtowc+0x48>
 2006fa0:	4645      	mov	r5, r8
 2006fa2:	19ed      	adds	r5, r5, r7
 2006fa4:	9503      	str	r5, [sp, #12]
 2006fa6:	e7f5      	b.n	2006f94 <__jis_mbtowc+0xbc>
 2006fa8:	4653      	mov	r3, sl
 2006faa:	468a      	mov	sl, r1
 2006fac:	1c19      	adds	r1, r3, #0
 2006fae:	2301      	movs	r3, #1
 2006fb0:	6023      	str	r3, [r4, #0]
 2006fb2:	4653      	mov	r3, sl
 2006fb4:	781a      	ldrb	r2, [r3, #0]
 2006fb6:	7923      	ldrb	r3, [r4, #4]
 2006fb8:	021b      	lsls	r3, r3, #8
 2006fba:	18d3      	adds	r3, r2, r3
 2006fbc:	4658      	mov	r0, fp
 2006fbe:	600b      	str	r3, [r1, #0]
 2006fc0:	3001      	adds	r0, #1
 2006fc2:	e797      	b.n	2006ef4 <__jis_mbtowc+0x1c>
 2006fc4:	2300      	movs	r3, #0
 2006fc6:	6023      	str	r3, [r4, #0]
 2006fc8:	9a03      	ldr	r2, [sp, #12]
 2006fca:	7813      	ldrb	r3, [r2, #0]
 2006fcc:	4651      	mov	r1, sl
 2006fce:	4658      	mov	r0, fp
 2006fd0:	600b      	str	r3, [r1, #0]
 2006fd2:	3001      	adds	r0, #1
 2006fd4:	e78e      	b.n	2006ef4 <__jis_mbtowc+0x1c>
 2006fd6:	2300      	movs	r3, #0
 2006fd8:	4651      	mov	r1, sl
 2006fda:	6023      	str	r3, [r4, #0]
 2006fdc:	2000      	movs	r0, #0
 2006fde:	600b      	str	r3, [r1, #0]
 2006fe0:	e788      	b.n	2006ef4 <__jis_mbtowc+0x1c>
 2006fe2:	2201      	movs	r2, #1
 2006fe4:	e7bc      	b.n	2006f60 <__jis_mbtowc+0x88>
 2006fe6:	2202      	movs	r2, #2
 2006fe8:	e7ba      	b.n	2006f60 <__jis_mbtowc+0x88>
 2006fea:	2203      	movs	r2, #3
 2006fec:	e7b8      	b.n	2006f60 <__jis_mbtowc+0x88>
 2006fee:	2205      	movs	r2, #5
 2006ff0:	e7b6      	b.n	2006f60 <__jis_mbtowc+0x88>
 2006ff2:	2207      	movs	r2, #7
 2006ff4:	e7b4      	b.n	2006f60 <__jis_mbtowc+0x88>
 2006ff6:	46c0      	nop			; (mov r8, r8)
 2006ff8:	0200e208 	.word	0x0200e208
 2006ffc:	0200e1f0 	.word	0x0200e1f0

02007000 <_mbtowc_r>:
 2007000:	b5f0      	push	{r4, r5, r6, r7, lr}
 2007002:	4647      	mov	r7, r8
 2007004:	b480      	push	{r7}
 2007006:	b082      	sub	sp, #8
 2007008:	1c1f      	adds	r7, r3, #0
 200700a:	4b0b      	ldr	r3, [pc, #44]	; (2007038 <_mbtowc_r+0x38>)
 200700c:	681b      	ldr	r3, [r3, #0]
 200700e:	1c06      	adds	r6, r0, #0
 2007010:	4698      	mov	r8, r3
 2007012:	1c0d      	adds	r5, r1, #0
 2007014:	1c14      	adds	r4, r2, #0
 2007016:	f7fe fe29 	bl	2005c6c <__locale_charset>
 200701a:	9b08      	ldr	r3, [sp, #32]
 200701c:	9000      	str	r0, [sp, #0]
 200701e:	9301      	str	r3, [sp, #4]
 2007020:	1c30      	adds	r0, r6, #0
 2007022:	1c29      	adds	r1, r5, #0
 2007024:	1c3b      	adds	r3, r7, #0
 2007026:	1c22      	adds	r2, r4, #0
 2007028:	f000 f808 	bl	200703c <_mbtowc_r+0x3c>
 200702c:	b002      	add	sp, #8
 200702e:	bc04      	pop	{r2}
 2007030:	4690      	mov	r8, r2
 2007032:	bcf0      	pop	{r4, r5, r6, r7}
 2007034:	bc02      	pop	{r1}
 2007036:	4708      	bx	r1
 2007038:	0200f2cc 	.word	0x0200f2cc
 200703c:	4740      	bx	r8
 200703e:	46c0      	nop			; (mov r8, r8)

02007040 <memchr>:
 2007040:	b5f0      	push	{r4, r5, r6, r7, lr}
 2007042:	0609      	lsls	r1, r1, #24
 2007044:	0e09      	lsrs	r1, r1, #24
 2007046:	0783      	lsls	r3, r0, #30
 2007048:	d010      	beq.n	200706c <memchr+0x2c>
 200704a:	2a00      	cmp	r2, #0
 200704c:	d01e      	beq.n	200708c <memchr+0x4c>
 200704e:	7803      	ldrb	r3, [r0, #0]
 2007050:	428b      	cmp	r3, r1
 2007052:	d01c      	beq.n	200708e <memchr+0x4e>
 2007054:	3a01      	subs	r2, #1
 2007056:	2403      	movs	r4, #3
 2007058:	e005      	b.n	2007066 <memchr+0x26>
 200705a:	2a00      	cmp	r2, #0
 200705c:	d016      	beq.n	200708c <memchr+0x4c>
 200705e:	7803      	ldrb	r3, [r0, #0]
 2007060:	428b      	cmp	r3, r1
 2007062:	d014      	beq.n	200708e <memchr+0x4e>
 2007064:	3a01      	subs	r2, #1
 2007066:	3001      	adds	r0, #1
 2007068:	4220      	tst	r0, r4
 200706a:	d1f6      	bne.n	200705a <memchr+0x1a>
 200706c:	2a03      	cmp	r2, #3
 200706e:	d811      	bhi.n	2007094 <memchr+0x54>
 2007070:	2a00      	cmp	r2, #0
 2007072:	d00b      	beq.n	200708c <memchr+0x4c>
 2007074:	7803      	ldrb	r3, [r0, #0]
 2007076:	428b      	cmp	r3, r1
 2007078:	d009      	beq.n	200708e <memchr+0x4e>
 200707a:	3a01      	subs	r2, #1
 200707c:	e004      	b.n	2007088 <memchr+0x48>
 200707e:	3001      	adds	r0, #1
 2007080:	7803      	ldrb	r3, [r0, #0]
 2007082:	3a01      	subs	r2, #1
 2007084:	428b      	cmp	r3, r1
 2007086:	d002      	beq.n	200708e <memchr+0x4e>
 2007088:	2a00      	cmp	r2, #0
 200708a:	d1f8      	bne.n	200707e <memchr+0x3e>
 200708c:	2000      	movs	r0, #0
 200708e:	bcf0      	pop	{r4, r5, r6, r7}
 2007090:	bc02      	pop	{r1}
 2007092:	4708      	bx	r1
 2007094:	020e      	lsls	r6, r1, #8
 2007096:	430e      	orrs	r6, r1
 2007098:	0433      	lsls	r3, r6, #16
 200709a:	4d07      	ldr	r5, [pc, #28]	; (20070b8 <memchr+0x78>)
 200709c:	431e      	orrs	r6, r3
 200709e:	6803      	ldr	r3, [r0, #0]
 20070a0:	4f06      	ldr	r7, [pc, #24]	; (20070bc <memchr+0x7c>)
 20070a2:	4073      	eors	r3, r6
 20070a4:	19dc      	adds	r4, r3, r7
 20070a6:	439c      	bics	r4, r3
 20070a8:	422c      	tst	r4, r5
 20070aa:	d1e1      	bne.n	2007070 <memchr+0x30>
 20070ac:	3a04      	subs	r2, #4
 20070ae:	3004      	adds	r0, #4
 20070b0:	2a03      	cmp	r2, #3
 20070b2:	d8f4      	bhi.n	200709e <memchr+0x5e>
 20070b4:	e7dc      	b.n	2007070 <memchr+0x30>
 20070b6:	46c0      	nop			; (mov r8, r8)
 20070b8:	80808080 	.word	0x80808080
 20070bc:	fefefeff 	.word	0xfefefeff

020070c0 <memmove>:
 20070c0:	b5f0      	push	{r4, r5, r6, r7, lr}
 20070c2:	1c06      	adds	r6, r0, #0
 20070c4:	1c0d      	adds	r5, r1, #0
 20070c6:	1c14      	adds	r4, r2, #0
 20070c8:	4288      	cmp	r0, r1
 20070ca:	d90f      	bls.n	20070ec <memmove+0x2c>
 20070cc:	188b      	adds	r3, r1, r2
 20070ce:	4298      	cmp	r0, r3
 20070d0:	d20c      	bcs.n	20070ec <memmove+0x2c>
 20070d2:	2a00      	cmp	r2, #0
 20070d4:	d007      	beq.n	20070e6 <memmove+0x26>
 20070d6:	1881      	adds	r1, r0, r2
 20070d8:	3a01      	subs	r2, #1
 20070da:	3b01      	subs	r3, #1
 20070dc:	781c      	ldrb	r4, [r3, #0]
 20070de:	3901      	subs	r1, #1
 20070e0:	700c      	strb	r4, [r1, #0]
 20070e2:	3a01      	subs	r2, #1
 20070e4:	d2f9      	bcs.n	20070da <memmove+0x1a>
 20070e6:	bcf0      	pop	{r4, r5, r6, r7}
 20070e8:	bc02      	pop	{r1}
 20070ea:	4708      	bx	r1
 20070ec:	2a0f      	cmp	r2, #15
 20070ee:	d808      	bhi.n	2007102 <memmove+0x42>
 20070f0:	2c00      	cmp	r4, #0
 20070f2:	d0f8      	beq.n	20070e6 <memmove+0x26>
 20070f4:	2300      	movs	r3, #0
 20070f6:	5cea      	ldrb	r2, [r5, r3]
 20070f8:	54f2      	strb	r2, [r6, r3]
 20070fa:	3301      	adds	r3, #1
 20070fc:	42a3      	cmp	r3, r4
 20070fe:	d1fa      	bne.n	20070f6 <memmove+0x36>
 2007100:	e7f1      	b.n	20070e6 <memmove+0x26>
 2007102:	1c0b      	adds	r3, r1, #0
 2007104:	4303      	orrs	r3, r0
 2007106:	079f      	lsls	r7, r3, #30
 2007108:	d1f2      	bne.n	20070f0 <memmove+0x30>
 200710a:	1c15      	adds	r5, r2, #0
 200710c:	1c0c      	adds	r4, r1, #0
 200710e:	1c03      	adds	r3, r0, #0
 2007110:	6826      	ldr	r6, [r4, #0]
 2007112:	601e      	str	r6, [r3, #0]
 2007114:	6866      	ldr	r6, [r4, #4]
 2007116:	605e      	str	r6, [r3, #4]
 2007118:	68a6      	ldr	r6, [r4, #8]
 200711a:	609e      	str	r6, [r3, #8]
 200711c:	68e6      	ldr	r6, [r4, #12]
 200711e:	3d10      	subs	r5, #16
 2007120:	60de      	str	r6, [r3, #12]
 2007122:	3410      	adds	r4, #16
 2007124:	3310      	adds	r3, #16
 2007126:	2d0f      	cmp	r5, #15
 2007128:	d8f2      	bhi.n	2007110 <memmove+0x50>
 200712a:	3a10      	subs	r2, #16
 200712c:	0913      	lsrs	r3, r2, #4
 200712e:	1c5d      	adds	r5, r3, #1
 2007130:	012d      	lsls	r5, r5, #4
 2007132:	011b      	lsls	r3, r3, #4
 2007134:	1946      	adds	r6, r0, r5
 2007136:	194d      	adds	r5, r1, r5
 2007138:	1ad1      	subs	r1, r2, r3
 200713a:	1c0c      	adds	r4, r1, #0
 200713c:	2903      	cmp	r1, #3
 200713e:	d9d7      	bls.n	20070f0 <memmove+0x30>
 2007140:	2300      	movs	r3, #0
 2007142:	58ea      	ldr	r2, [r5, r3]
 2007144:	50f2      	str	r2, [r6, r3]
 2007146:	3304      	adds	r3, #4
 2007148:	1aca      	subs	r2, r1, r3
 200714a:	2a03      	cmp	r2, #3
 200714c:	d8f9      	bhi.n	2007142 <memmove+0x82>
 200714e:	3904      	subs	r1, #4
 2007150:	088c      	lsrs	r4, r1, #2
 2007152:	1c63      	adds	r3, r4, #1
 2007154:	009b      	lsls	r3, r3, #2
 2007156:	00a4      	lsls	r4, r4, #2
 2007158:	18f6      	adds	r6, r6, r3
 200715a:	18ed      	adds	r5, r5, r3
 200715c:	1b0c      	subs	r4, r1, r4
 200715e:	e7c7      	b.n	20070f0 <memmove+0x30>

02007160 <__malloc_lock>:
 2007160:	4770      	bx	lr
 2007162:	46c0      	nop			; (mov r8, r8)

02007164 <__malloc_unlock>:
 2007164:	4770      	bx	lr
 2007166:	46c0      	nop			; (mov r8, r8)

02007168 <_realloc_r>:
 2007168:	b5f0      	push	{r4, r5, r6, r7, lr}
 200716a:	465f      	mov	r7, fp
 200716c:	4656      	mov	r6, sl
 200716e:	464d      	mov	r5, r9
 2007170:	4644      	mov	r4, r8
 2007172:	b4f0      	push	{r4, r5, r6, r7}
 2007174:	b085      	sub	sp, #20
 2007176:	4680      	mov	r8, r0
 2007178:	1c0e      	adds	r6, r1, #0
 200717a:	1c17      	adds	r7, r2, #0
 200717c:	2900      	cmp	r1, #0
 200717e:	d100      	bne.n	2007182 <_realloc_r+0x1a>
 2007180:	e10b      	b.n	200739a <_realloc_r+0x232>
 2007182:	1c34      	adds	r4, r6, #0
 2007184:	3c08      	subs	r4, #8
 2007186:	f7ff ffeb 	bl	2007160 <__malloc_lock>
 200718a:	1c3d      	adds	r5, r7, #0
 200718c:	6863      	ldr	r3, [r4, #4]
 200718e:	350b      	adds	r5, #11
 2007190:	1c1a      	adds	r2, r3, #0
 2007192:	2d16      	cmp	r5, #22
 2007194:	d813      	bhi.n	20071be <_realloc_r+0x56>
 2007196:	2110      	movs	r1, #16
 2007198:	2510      	movs	r5, #16
 200719a:	2000      	movs	r0, #0
 200719c:	9101      	str	r1, [sp, #4]
 200719e:	42bd      	cmp	r5, r7
 20071a0:	d213      	bcs.n	20071ca <_realloc_r+0x62>
 20071a2:	230c      	movs	r3, #12
 20071a4:	4642      	mov	r2, r8
 20071a6:	6013      	str	r3, [r2, #0]
 20071a8:	2700      	movs	r7, #0
 20071aa:	b005      	add	sp, #20
 20071ac:	1c38      	adds	r0, r7, #0
 20071ae:	bc3c      	pop	{r2, r3, r4, r5}
 20071b0:	4690      	mov	r8, r2
 20071b2:	4699      	mov	r9, r3
 20071b4:	46a2      	mov	sl, r4
 20071b6:	46ab      	mov	fp, r5
 20071b8:	bcf0      	pop	{r4, r5, r6, r7}
 20071ba:	bc02      	pop	{r1}
 20071bc:	4708      	bx	r1
 20071be:	2107      	movs	r1, #7
 20071c0:	438d      	bics	r5, r1
 20071c2:	9501      	str	r5, [sp, #4]
 20071c4:	0fe8      	lsrs	r0, r5, #31
 20071c6:	42bd      	cmp	r5, r7
 20071c8:	d3eb      	bcc.n	20071a2 <_realloc_r+0x3a>
 20071ca:	2800      	cmp	r0, #0
 20071cc:	d1e9      	bne.n	20071a2 <_realloc_r+0x3a>
 20071ce:	1c18      	adds	r0, r3, #0
 20071d0:	2103      	movs	r1, #3
 20071d2:	4388      	bics	r0, r1
 20071d4:	4681      	mov	r9, r0
 20071d6:	9801      	ldr	r0, [sp, #4]
 20071d8:	4581      	cmp	r9, r0
 20071da:	da66      	bge.n	20072aa <_realloc_r+0x142>
 20071dc:	48b6      	ldr	r0, [pc, #728]	; (20074b8 <_realloc_r+0x350>)
 20071de:	6880      	ldr	r0, [r0, #8]
 20071e0:	4649      	mov	r1, r9
 20071e2:	1862      	adds	r2, r4, r1
 20071e4:	4684      	mov	ip, r0
 20071e6:	4594      	cmp	ip, r2
 20071e8:	d100      	bne.n	20071ec <_realloc_r+0x84>
 20071ea:	e0e0      	b.n	20073ae <_realloc_r+0x246>
 20071ec:	6851      	ldr	r1, [r2, #4]
 20071ee:	2001      	movs	r0, #1
 20071f0:	9103      	str	r1, [sp, #12]
 20071f2:	4381      	bics	r1, r0
 20071f4:	468b      	mov	fp, r1
 20071f6:	4493      	add	fp, r2
 20071f8:	4659      	mov	r1, fp
 20071fa:	6849      	ldr	r1, [r1, #4]
 20071fc:	4201      	tst	r1, r0
 20071fe:	d068      	beq.n	20072d2 <_realloc_r+0x16a>
 2007200:	2000      	movs	r0, #0
 2007202:	2200      	movs	r2, #0
 2007204:	07d9      	lsls	r1, r3, #31
 2007206:	d500      	bpl.n	200720a <_realloc_r+0xa2>
 2007208:	e084      	b.n	2007314 <_realloc_r+0x1ac>
 200720a:	6823      	ldr	r3, [r4, #0]
 200720c:	1ae3      	subs	r3, r4, r3
 200720e:	469b      	mov	fp, r3
 2007210:	685b      	ldr	r3, [r3, #4]
 2007212:	469a      	mov	sl, r3
 2007214:	4651      	mov	r1, sl
 2007216:	2303      	movs	r3, #3
 2007218:	4399      	bics	r1, r3
 200721a:	1c0b      	adds	r3, r1, #0
 200721c:	2a00      	cmp	r2, #0
 200721e:	d100      	bne.n	2007222 <_realloc_r+0xba>
 2007220:	e0ef      	b.n	2007402 <_realloc_r+0x29a>
 2007222:	4562      	cmp	r2, ip
 2007224:	d100      	bne.n	2007228 <_realloc_r+0xc0>
 2007226:	e0ef      	b.n	2007408 <_realloc_r+0x2a0>
 2007228:	444b      	add	r3, r9
 200722a:	18c0      	adds	r0, r0, r3
 200722c:	9901      	ldr	r1, [sp, #4]
 200722e:	4682      	mov	sl, r0
 2007230:	458a      	cmp	sl, r1
 2007232:	db00      	blt.n	2007236 <_realloc_r+0xce>
 2007234:	e0b6      	b.n	20073a4 <_realloc_r+0x23c>
 2007236:	469a      	mov	sl, r3
 2007238:	9901      	ldr	r1, [sp, #4]
 200723a:	458a      	cmp	sl, r1
 200723c:	db6a      	blt.n	2007314 <_realloc_r+0x1ac>
 200723e:	465a      	mov	r2, fp
 2007240:	68d3      	ldr	r3, [r2, #12]
 2007242:	6892      	ldr	r2, [r2, #8]
 2007244:	60d3      	str	r3, [r2, #12]
 2007246:	609a      	str	r2, [r3, #8]
 2007248:	464a      	mov	r2, r9
 200724a:	465f      	mov	r7, fp
 200724c:	3a04      	subs	r2, #4
 200724e:	3708      	adds	r7, #8
 2007250:	2a24      	cmp	r2, #36	; 0x24
 2007252:	d900      	bls.n	2007256 <_realloc_r+0xee>
 2007254:	e0cd      	b.n	20073f2 <_realloc_r+0x28a>
 2007256:	1c39      	adds	r1, r7, #0
 2007258:	2a13      	cmp	r2, #19
 200725a:	d91a      	bls.n	2007292 <_realloc_r+0x12a>
 200725c:	1c33      	adds	r3, r6, #0
 200725e:	cb02      	ldmia	r3!, {r1}
 2007260:	4658      	mov	r0, fp
 2007262:	6081      	str	r1, [r0, #8]
 2007264:	6871      	ldr	r1, [r6, #4]
 2007266:	60c1      	str	r1, [r0, #12]
 2007268:	4659      	mov	r1, fp
 200726a:	3110      	adds	r1, #16
 200726c:	1d1e      	adds	r6, r3, #4
 200726e:	2a1b      	cmp	r2, #27
 2007270:	d90f      	bls.n	2007292 <_realloc_r+0x12a>
 2007272:	685b      	ldr	r3, [r3, #4]
 2007274:	6103      	str	r3, [r0, #16]
 2007276:	6871      	ldr	r1, [r6, #4]
 2007278:	1d33      	adds	r3, r6, #4
 200727a:	6141      	str	r1, [r0, #20]
 200727c:	4659      	mov	r1, fp
 200727e:	3118      	adds	r1, #24
 2007280:	1d1e      	adds	r6, r3, #4
 2007282:	2a24      	cmp	r2, #36	; 0x24
 2007284:	d105      	bne.n	2007292 <_realloc_r+0x12a>
 2007286:	685b      	ldr	r3, [r3, #4]
 2007288:	6183      	str	r3, [r0, #24]
 200728a:	6873      	ldr	r3, [r6, #4]
 200728c:	61c3      	str	r3, [r0, #28]
 200728e:	3108      	adds	r1, #8
 2007290:	3608      	adds	r6, #8
 2007292:	1c32      	adds	r2, r6, #0
 2007294:	ca01      	ldmia	r2!, {r0}
 2007296:	1c0b      	adds	r3, r1, #0
 2007298:	c301      	stmia	r3!, {r0}
 200729a:	6870      	ldr	r0, [r6, #4]
 200729c:	6048      	str	r0, [r1, #4]
 200729e:	6852      	ldr	r2, [r2, #4]
 20072a0:	605a      	str	r2, [r3, #4]
 20072a2:	4659      	mov	r1, fp
 20072a4:	684a      	ldr	r2, [r1, #4]
 20072a6:	465c      	mov	r4, fp
 20072a8:	e002      	b.n	20072b0 <_realloc_r+0x148>
 20072aa:	1c27      	adds	r7, r4, #0
 20072ac:	3708      	adds	r7, #8
 20072ae:	46ca      	mov	sl, r9
 20072b0:	4650      	mov	r0, sl
 20072b2:	1b43      	subs	r3, r0, r5
 20072b4:	2b0f      	cmp	r3, #15
 20072b6:	d81c      	bhi.n	20072f2 <_realloc_r+0x18a>
 20072b8:	2301      	movs	r3, #1
 20072ba:	401a      	ands	r2, r3
 20072bc:	4651      	mov	r1, sl
 20072be:	430a      	orrs	r2, r1
 20072c0:	6062      	str	r2, [r4, #4]
 20072c2:	4454      	add	r4, sl
 20072c4:	6862      	ldr	r2, [r4, #4]
 20072c6:	4313      	orrs	r3, r2
 20072c8:	6063      	str	r3, [r4, #4]
 20072ca:	4640      	mov	r0, r8
 20072cc:	f7ff ff4a 	bl	2007164 <__malloc_unlock>
 20072d0:	e76b      	b.n	20071aa <_realloc_r+0x42>
 20072d2:	9803      	ldr	r0, [sp, #12]
 20072d4:	2103      	movs	r1, #3
 20072d6:	4388      	bics	r0, r1
 20072d8:	4682      	mov	sl, r0
 20072da:	9901      	ldr	r1, [sp, #4]
 20072dc:	44ca      	add	sl, r9
 20072de:	458a      	cmp	sl, r1
 20072e0:	db90      	blt.n	2007204 <_realloc_r+0x9c>
 20072e2:	68d1      	ldr	r1, [r2, #12]
 20072e4:	6892      	ldr	r2, [r2, #8]
 20072e6:	1c27      	adds	r7, r4, #0
 20072e8:	60d1      	str	r1, [r2, #12]
 20072ea:	608a      	str	r2, [r1, #8]
 20072ec:	3708      	adds	r7, #8
 20072ee:	1c1a      	adds	r2, r3, #0
 20072f0:	e7de      	b.n	20072b0 <_realloc_r+0x148>
 20072f2:	2001      	movs	r0, #1
 20072f4:	4002      	ands	r2, r0
 20072f6:	1961      	adds	r1, r4, r5
 20072f8:	4315      	orrs	r5, r2
 20072fa:	1c1a      	adds	r2, r3, #0
 20072fc:	4302      	orrs	r2, r0
 20072fe:	6065      	str	r5, [r4, #4]
 2007300:	604a      	str	r2, [r1, #4]
 2007302:	18cb      	adds	r3, r1, r3
 2007304:	685a      	ldr	r2, [r3, #4]
 2007306:	4310      	orrs	r0, r2
 2007308:	6058      	str	r0, [r3, #4]
 200730a:	3108      	adds	r1, #8
 200730c:	4640      	mov	r0, r8
 200730e:	f7fe f8bf 	bl	2005490 <_free_r>
 2007312:	e7da      	b.n	20072ca <_realloc_r+0x162>
 2007314:	1c39      	adds	r1, r7, #0
 2007316:	4640      	mov	r0, r8
 2007318:	f7ff f91e 	bl	2006558 <_malloc_r>
 200731c:	1c07      	adds	r7, r0, #0
 200731e:	2800      	cmp	r0, #0
 2007320:	d0d3      	beq.n	20072ca <_realloc_r+0x162>
 2007322:	6862      	ldr	r2, [r4, #4]
 2007324:	1c03      	adds	r3, r0, #0
 2007326:	2101      	movs	r1, #1
 2007328:	1c10      	adds	r0, r2, #0
 200732a:	4388      	bics	r0, r1
 200732c:	3b08      	subs	r3, #8
 200732e:	1821      	adds	r1, r4, r0
 2007330:	428b      	cmp	r3, r1
 2007332:	d100      	bne.n	2007336 <_realloc_r+0x1ce>
 2007334:	e0b3      	b.n	200749e <_realloc_r+0x336>
 2007336:	464a      	mov	r2, r9
 2007338:	3a04      	subs	r2, #4
 200733a:	2a24      	cmp	r2, #36	; 0x24
 200733c:	d854      	bhi.n	20073e8 <_realloc_r+0x280>
 200733e:	1c31      	adds	r1, r6, #0
 2007340:	1c3b      	adds	r3, r7, #0
 2007342:	2a13      	cmp	r2, #19
 2007344:	d919      	bls.n	200737a <_realloc_r+0x212>
 2007346:	1c34      	adds	r4, r6, #0
 2007348:	cc08      	ldmia	r4!, {r3}
 200734a:	1c38      	adds	r0, r7, #0
 200734c:	c008      	stmia	r0!, {r3}
 200734e:	6873      	ldr	r3, [r6, #4]
 2007350:	1d21      	adds	r1, r4, #4
 2007352:	607b      	str	r3, [r7, #4]
 2007354:	1d03      	adds	r3, r0, #4
 2007356:	2a1b      	cmp	r2, #27
 2007358:	d90f      	bls.n	200737a <_realloc_r+0x212>
 200735a:	6864      	ldr	r4, [r4, #4]
 200735c:	6044      	str	r4, [r0, #4]
 200735e:	1d0c      	adds	r4, r1, #4
 2007360:	6849      	ldr	r1, [r1, #4]
 2007362:	1d18      	adds	r0, r3, #4
 2007364:	6059      	str	r1, [r3, #4]
 2007366:	1d03      	adds	r3, r0, #4
 2007368:	1d21      	adds	r1, r4, #4
 200736a:	2a24      	cmp	r2, #36	; 0x24
 200736c:	d105      	bne.n	200737a <_realloc_r+0x212>
 200736e:	6862      	ldr	r2, [r4, #4]
 2007370:	6042      	str	r2, [r0, #4]
 2007372:	684a      	ldr	r2, [r1, #4]
 2007374:	3108      	adds	r1, #8
 2007376:	605a      	str	r2, [r3, #4]
 2007378:	3308      	adds	r3, #8
 200737a:	1c08      	adds	r0, r1, #0
 200737c:	c810      	ldmia	r0!, {r4}
 200737e:	1c1a      	adds	r2, r3, #0
 2007380:	c210      	stmia	r2!, {r4}
 2007382:	6849      	ldr	r1, [r1, #4]
 2007384:	6059      	str	r1, [r3, #4]
 2007386:	6843      	ldr	r3, [r0, #4]
 2007388:	6053      	str	r3, [r2, #4]
 200738a:	4640      	mov	r0, r8
 200738c:	1c31      	adds	r1, r6, #0
 200738e:	f7fe f87f 	bl	2005490 <_free_r>
 2007392:	4640      	mov	r0, r8
 2007394:	f7ff fee6 	bl	2007164 <__malloc_unlock>
 2007398:	e707      	b.n	20071aa <_realloc_r+0x42>
 200739a:	1c11      	adds	r1, r2, #0
 200739c:	f7ff f8dc 	bl	2006558 <_malloc_r>
 20073a0:	1c07      	adds	r7, r0, #0
 20073a2:	e702      	b.n	20071aa <_realloc_r+0x42>
 20073a4:	68d3      	ldr	r3, [r2, #12]
 20073a6:	6892      	ldr	r2, [r2, #8]
 20073a8:	60d3      	str	r3, [r2, #12]
 20073aa:	609a      	str	r2, [r3, #8]
 20073ac:	e747      	b.n	200723e <_realloc_r+0xd6>
 20073ae:	6842      	ldr	r2, [r0, #4]
 20073b0:	2103      	movs	r1, #3
 20073b2:	1c10      	adds	r0, r2, #0
 20073b4:	4388      	bics	r0, r1
 20073b6:	4649      	mov	r1, r9
 20073b8:	1842      	adds	r2, r0, r1
 20073ba:	2110      	movs	r1, #16
 20073bc:	1949      	adds	r1, r1, r5
 20073be:	468a      	mov	sl, r1
 20073c0:	4552      	cmp	r2, sl
 20073c2:	da01      	bge.n	20073c8 <_realloc_r+0x260>
 20073c4:	4662      	mov	r2, ip
 20073c6:	e71d      	b.n	2007204 <_realloc_r+0x9c>
 20073c8:	4b3b      	ldr	r3, [pc, #236]	; (20074b8 <_realloc_r+0x350>)
 20073ca:	1961      	adds	r1, r4, r5
 20073cc:	6099      	str	r1, [r3, #8]
 20073ce:	1b52      	subs	r2, r2, r5
 20073d0:	2301      	movs	r3, #1
 20073d2:	431a      	orrs	r2, r3
 20073d4:	604a      	str	r2, [r1, #4]
 20073d6:	6862      	ldr	r2, [r4, #4]
 20073d8:	4013      	ands	r3, r2
 20073da:	431d      	orrs	r5, r3
 20073dc:	6065      	str	r5, [r4, #4]
 20073de:	4640      	mov	r0, r8
 20073e0:	f7ff fec0 	bl	2007164 <__malloc_unlock>
 20073e4:	1c37      	adds	r7, r6, #0
 20073e6:	e6e0      	b.n	20071aa <_realloc_r+0x42>
 20073e8:	1c38      	adds	r0, r7, #0
 20073ea:	1c31      	adds	r1, r6, #0
 20073ec:	f7ff fe68 	bl	20070c0 <memmove>
 20073f0:	e7cb      	b.n	200738a <_realloc_r+0x222>
 20073f2:	1c38      	adds	r0, r7, #0
 20073f4:	1c31      	adds	r1, r6, #0
 20073f6:	f7ff fe63 	bl	20070c0 <memmove>
 20073fa:	465b      	mov	r3, fp
 20073fc:	685a      	ldr	r2, [r3, #4]
 20073fe:	465c      	mov	r4, fp
 2007400:	e756      	b.n	20072b0 <_realloc_r+0x148>
 2007402:	468a      	mov	sl, r1
 2007404:	44ca      	add	sl, r9
 2007406:	e717      	b.n	2007238 <_realloc_r+0xd0>
 2007408:	468a      	mov	sl, r1
 200740a:	44ca      	add	sl, r9
 200740c:	1c2b      	adds	r3, r5, #0
 200740e:	4450      	add	r0, sl
 2007410:	3310      	adds	r3, #16
 2007412:	9003      	str	r0, [sp, #12]
 2007414:	4298      	cmp	r0, r3
 2007416:	da00      	bge.n	200741a <_realloc_r+0x2b2>
 2007418:	e70e      	b.n	2007238 <_realloc_r+0xd0>
 200741a:	4658      	mov	r0, fp
 200741c:	6882      	ldr	r2, [r0, #8]
 200741e:	68c3      	ldr	r3, [r0, #12]
 2007420:	60d3      	str	r3, [r2, #12]
 2007422:	609a      	str	r2, [r3, #8]
 2007424:	464a      	mov	r2, r9
 2007426:	465f      	mov	r7, fp
 2007428:	3a04      	subs	r2, #4
 200742a:	3708      	adds	r7, #8
 200742c:	2a24      	cmp	r2, #36	; 0x24
 200742e:	d83e      	bhi.n	20074ae <_realloc_r+0x346>
 2007430:	1c39      	adds	r1, r7, #0
 2007432:	2a13      	cmp	r2, #19
 2007434:	d919      	bls.n	200746a <_realloc_r+0x302>
 2007436:	1c33      	adds	r3, r6, #0
 2007438:	cb02      	ldmia	r3!, {r1}
 200743a:	6081      	str	r1, [r0, #8]
 200743c:	6871      	ldr	r1, [r6, #4]
 200743e:	60c1      	str	r1, [r0, #12]
 2007440:	4659      	mov	r1, fp
 2007442:	3110      	adds	r1, #16
 2007444:	1d1e      	adds	r6, r3, #4
 2007446:	2a1b      	cmp	r2, #27
 2007448:	d90f      	bls.n	200746a <_realloc_r+0x302>
 200744a:	685b      	ldr	r3, [r3, #4]
 200744c:	6103      	str	r3, [r0, #16]
 200744e:	6871      	ldr	r1, [r6, #4]
 2007450:	1d33      	adds	r3, r6, #4
 2007452:	6141      	str	r1, [r0, #20]
 2007454:	4659      	mov	r1, fp
 2007456:	3118      	adds	r1, #24
 2007458:	1d1e      	adds	r6, r3, #4
 200745a:	2a24      	cmp	r2, #36	; 0x24
 200745c:	d105      	bne.n	200746a <_realloc_r+0x302>
 200745e:	685b      	ldr	r3, [r3, #4]
 2007460:	6183      	str	r3, [r0, #24]
 2007462:	6873      	ldr	r3, [r6, #4]
 2007464:	61c3      	str	r3, [r0, #28]
 2007466:	3108      	adds	r1, #8
 2007468:	3608      	adds	r6, #8
 200746a:	1c32      	adds	r2, r6, #0
 200746c:	ca01      	ldmia	r2!, {r0}
 200746e:	1c0b      	adds	r3, r1, #0
 2007470:	c301      	stmia	r3!, {r0}
 2007472:	6870      	ldr	r0, [r6, #4]
 2007474:	6048      	str	r0, [r1, #4]
 2007476:	6852      	ldr	r2, [r2, #4]
 2007478:	605a      	str	r2, [r3, #4]
 200747a:	4659      	mov	r1, fp
 200747c:	194a      	adds	r2, r1, r5
 200747e:	4b0e      	ldr	r3, [pc, #56]	; (20074b8 <_realloc_r+0x350>)
 2007480:	9903      	ldr	r1, [sp, #12]
 2007482:	609a      	str	r2, [r3, #8]
 2007484:	1b48      	subs	r0, r1, r5
 2007486:	2301      	movs	r3, #1
 2007488:	4318      	orrs	r0, r3
 200748a:	6050      	str	r0, [r2, #4]
 200748c:	4658      	mov	r0, fp
 200748e:	6842      	ldr	r2, [r0, #4]
 2007490:	4013      	ands	r3, r2
 2007492:	431d      	orrs	r5, r3
 2007494:	6045      	str	r5, [r0, #4]
 2007496:	4640      	mov	r0, r8
 2007498:	f7ff fe64 	bl	2007164 <__malloc_unlock>
 200749c:	e685      	b.n	20071aa <_realloc_r+0x42>
 200749e:	685b      	ldr	r3, [r3, #4]
 20074a0:	2103      	movs	r1, #3
 20074a2:	438b      	bics	r3, r1
 20074a4:	469a      	mov	sl, r3
 20074a6:	1c27      	adds	r7, r4, #0
 20074a8:	44ca      	add	sl, r9
 20074aa:	3708      	adds	r7, #8
 20074ac:	e700      	b.n	20072b0 <_realloc_r+0x148>
 20074ae:	1c38      	adds	r0, r7, #0
 20074b0:	1c31      	adds	r1, r6, #0
 20074b2:	f7ff fe05 	bl	20070c0 <memmove>
 20074b6:	e7e0      	b.n	200747a <_realloc_r+0x312>
 20074b8:	0200eebc 	.word	0x0200eebc

020074bc <__sccl>:
 20074bc:	b570      	push	{r4, r5, r6, lr}
 20074be:	780d      	ldrb	r5, [r1, #0]
 20074c0:	1c03      	adds	r3, r0, #0
 20074c2:	1c48      	adds	r0, r1, #1
 20074c4:	2d5e      	cmp	r5, #94	; 0x5e
 20074c6:	d02d      	beq.n	2007524 <__sccl+0x68>
 20074c8:	2400      	movs	r4, #0
 20074ca:	2600      	movs	r6, #0
 20074cc:	2180      	movs	r1, #128	; 0x80
 20074ce:	2200      	movs	r2, #0
 20074d0:	0049      	lsls	r1, r1, #1
 20074d2:	549c      	strb	r4, [r3, r2]
 20074d4:	3201      	adds	r2, #1
 20074d6:	428a      	cmp	r2, r1
 20074d8:	d1fb      	bne.n	20074d2 <__sccl+0x16>
 20074da:	2d00      	cmp	r5, #0
 20074dc:	d013      	beq.n	2007506 <__sccl+0x4a>
 20074de:	2401      	movs	r4, #1
 20074e0:	1ba4      	subs	r4, r4, r6
 20074e2:	0624      	lsls	r4, r4, #24
 20074e4:	0e24      	lsrs	r4, r4, #24
 20074e6:	555c      	strb	r4, [r3, r5]
 20074e8:	1c02      	adds	r2, r0, #0
 20074ea:	7811      	ldrb	r1, [r2, #0]
 20074ec:	1c50      	adds	r0, r2, #1
 20074ee:	292d      	cmp	r1, #45	; 0x2d
 20074f0:	d00b      	beq.n	200750a <__sccl+0x4e>
 20074f2:	295d      	cmp	r1, #93	; 0x5d
 20074f4:	d002      	beq.n	20074fc <__sccl+0x40>
 20074f6:	2900      	cmp	r1, #0
 20074f8:	d103      	bne.n	2007502 <__sccl+0x46>
 20074fa:	1c10      	adds	r0, r2, #0
 20074fc:	bc70      	pop	{r4, r5, r6}
 20074fe:	bc02      	pop	{r1}
 2007500:	4708      	bx	r1
 2007502:	1c0d      	adds	r5, r1, #0
 2007504:	e7ef      	b.n	20074e6 <__sccl+0x2a>
 2007506:	3801      	subs	r0, #1
 2007508:	e7f8      	b.n	20074fc <__sccl+0x40>
 200750a:	7856      	ldrb	r6, [r2, #1]
 200750c:	42ae      	cmp	r6, r5
 200750e:	db0e      	blt.n	200752e <__sccl+0x72>
 2007510:	2e5d      	cmp	r6, #93	; 0x5d
 2007512:	d00c      	beq.n	200752e <__sccl+0x72>
 2007514:	1959      	adds	r1, r3, r5
 2007516:	3501      	adds	r5, #1
 2007518:	704c      	strb	r4, [r1, #1]
 200751a:	3101      	adds	r1, #1
 200751c:	42ae      	cmp	r6, r5
 200751e:	dcfa      	bgt.n	2007516 <__sccl+0x5a>
 2007520:	3202      	adds	r2, #2
 2007522:	e7e2      	b.n	20074ea <__sccl+0x2e>
 2007524:	784d      	ldrb	r5, [r1, #1]
 2007526:	3001      	adds	r0, #1
 2007528:	2401      	movs	r4, #1
 200752a:	2601      	movs	r6, #1
 200752c:	e7ce      	b.n	20074cc <__sccl+0x10>
 200752e:	252d      	movs	r5, #45	; 0x2d
 2007530:	e7d9      	b.n	20074e6 <__sccl+0x2a>
 2007532:	46c0      	nop			; (mov r8, r8)

02007534 <strcasecmp>:
 2007534:	b5f0      	push	{r4, r5, r6, r7, lr}
 2007536:	4a13      	ldr	r2, [pc, #76]	; (2007584 <strcasecmp+0x50>)
 2007538:	1c03      	adds	r3, r0, #0
 200753a:	6816      	ldr	r6, [r2, #0]
 200753c:	2503      	movs	r5, #3
 200753e:	2200      	movs	r2, #0
 2007540:	e00b      	b.n	200755a <strcasecmp+0x26>
 2007542:	5c8c      	ldrb	r4, [r1, r2]
 2007544:	1937      	adds	r7, r6, r4
 2007546:	787f      	ldrb	r7, [r7, #1]
 2007548:	402f      	ands	r7, r5
 200754a:	2f01      	cmp	r7, #1
 200754c:	d012      	beq.n	2007574 <strcasecmp+0x40>
 200754e:	1b00      	subs	r0, r0, r4
 2007550:	2800      	cmp	r0, #0
 2007552:	d113      	bne.n	200757c <strcasecmp+0x48>
 2007554:	3201      	adds	r2, #1
 2007556:	2c00      	cmp	r4, #0
 2007558:	d010      	beq.n	200757c <strcasecmp+0x48>
 200755a:	5c98      	ldrb	r0, [r3, r2]
 200755c:	1834      	adds	r4, r6, r0
 200755e:	7864      	ldrb	r4, [r4, #1]
 2007560:	402c      	ands	r4, r5
 2007562:	2c01      	cmp	r4, #1
 2007564:	d1ed      	bne.n	2007542 <strcasecmp+0xe>
 2007566:	5c8c      	ldrb	r4, [r1, r2]
 2007568:	1937      	adds	r7, r6, r4
 200756a:	787f      	ldrb	r7, [r7, #1]
 200756c:	402f      	ands	r7, r5
 200756e:	3020      	adds	r0, #32
 2007570:	2f01      	cmp	r7, #1
 2007572:	d1ec      	bne.n	200754e <strcasecmp+0x1a>
 2007574:	3420      	adds	r4, #32
 2007576:	1b00      	subs	r0, r0, r4
 2007578:	2800      	cmp	r0, #0
 200757a:	d0eb      	beq.n	2007554 <strcasecmp+0x20>
 200757c:	bcf0      	pop	{r4, r5, r6, r7}
 200757e:	bc02      	pop	{r1}
 2007580:	4708      	bx	r1
 2007582:	46c0      	nop			; (mov r8, r8)
 2007584:	0200ed74 	.word	0x0200ed74

02007588 <strcat>:
 2007588:	b570      	push	{r4, r5, r6, lr}
 200758a:	1c04      	adds	r4, r0, #0
 200758c:	0783      	lsls	r3, r0, #30
 200758e:	d116      	bne.n	20075be <strcat+0x36>
 2007590:	6823      	ldr	r3, [r4, #0]
 2007592:	4d0f      	ldr	r5, [pc, #60]	; (20075d0 <strcat+0x48>)
 2007594:	195a      	adds	r2, r3, r5
 2007596:	4d0f      	ldr	r5, [pc, #60]	; (20075d4 <strcat+0x4c>)
 2007598:	439a      	bics	r2, r3
 200759a:	422a      	tst	r2, r5
 200759c:	d10f      	bne.n	20075be <strcat+0x36>
 200759e:	3004      	adds	r0, #4
 20075a0:	6803      	ldr	r3, [r0, #0]
 20075a2:	4e0b      	ldr	r6, [pc, #44]	; (20075d0 <strcat+0x48>)
 20075a4:	199a      	adds	r2, r3, r6
 20075a6:	439a      	bics	r2, r3
 20075a8:	422a      	tst	r2, r5
 20075aa:	d108      	bne.n	20075be <strcat+0x36>
 20075ac:	3004      	adds	r0, #4
 20075ae:	6803      	ldr	r3, [r0, #0]
 20075b0:	4e07      	ldr	r6, [pc, #28]	; (20075d0 <strcat+0x48>)
 20075b2:	199a      	adds	r2, r3, r6
 20075b4:	439a      	bics	r2, r3
 20075b6:	422a      	tst	r2, r5
 20075b8:	d0f1      	beq.n	200759e <strcat+0x16>
 20075ba:	e000      	b.n	20075be <strcat+0x36>
 20075bc:	3001      	adds	r0, #1
 20075be:	7803      	ldrb	r3, [r0, #0]
 20075c0:	2b00      	cmp	r3, #0
 20075c2:	d1fb      	bne.n	20075bc <strcat+0x34>
 20075c4:	f000 f87c 	bl	20076c0 <strcpy>
 20075c8:	1c20      	adds	r0, r4, #0
 20075ca:	bc70      	pop	{r4, r5, r6}
 20075cc:	bc02      	pop	{r1}
 20075ce:	4708      	bx	r1
 20075d0:	fefefeff 	.word	0xfefefeff
 20075d4:	80808080 	.word	0x80808080

020075d8 <strchr>:
 20075d8:	b570      	push	{r4, r5, r6, lr}
 20075da:	0609      	lsls	r1, r1, #24
 20075dc:	0e09      	lsrs	r1, r1, #24
 20075de:	2900      	cmp	r1, #0
 20075e0:	d03b      	beq.n	200765a <strchr+0x82>
 20075e2:	0782      	lsls	r2, r0, #30
 20075e4:	d00e      	beq.n	2007604 <strchr+0x2c>
 20075e6:	7803      	ldrb	r3, [r0, #0]
 20075e8:	2b00      	cmp	r3, #0
 20075ea:	d059      	beq.n	20076a0 <strchr+0xc8>
 20075ec:	4299      	cmp	r1, r3
 20075ee:	d031      	beq.n	2007654 <strchr+0x7c>
 20075f0:	2203      	movs	r2, #3
 20075f2:	e004      	b.n	20075fe <strchr+0x26>
 20075f4:	7803      	ldrb	r3, [r0, #0]
 20075f6:	2b00      	cmp	r3, #0
 20075f8:	d052      	beq.n	20076a0 <strchr+0xc8>
 20075fa:	4299      	cmp	r1, r3
 20075fc:	d02a      	beq.n	2007654 <strchr+0x7c>
 20075fe:	3001      	adds	r0, #1
 2007600:	4210      	tst	r0, r2
 2007602:	d1f7      	bne.n	20075f4 <strchr+0x1c>
 2007604:	020d      	lsls	r5, r1, #8
 2007606:	430d      	orrs	r5, r1
 2007608:	042b      	lsls	r3, r5, #16
 200760a:	4a26      	ldr	r2, [pc, #152]	; (20076a4 <strchr+0xcc>)
 200760c:	431d      	orrs	r5, r3
 200760e:	6803      	ldr	r3, [r0, #0]
 2007610:	189c      	adds	r4, r3, r2
 2007612:	4a25      	ldr	r2, [pc, #148]	; (20076a8 <strchr+0xd0>)
 2007614:	439c      	bics	r4, r3
 2007616:	4214      	tst	r4, r2
 2007618:	d112      	bne.n	2007640 <strchr+0x68>
 200761a:	4e22      	ldr	r6, [pc, #136]	; (20076a4 <strchr+0xcc>)
 200761c:	406b      	eors	r3, r5
 200761e:	199c      	adds	r4, r3, r6
 2007620:	439c      	bics	r4, r3
 2007622:	4214      	tst	r4, r2
 2007624:	d005      	beq.n	2007632 <strchr+0x5a>
 2007626:	e00b      	b.n	2007640 <strchr+0x68>
 2007628:	406b      	eors	r3, r5
 200762a:	199c      	adds	r4, r3, r6
 200762c:	439c      	bics	r4, r3
 200762e:	4214      	tst	r4, r2
 2007630:	d106      	bne.n	2007640 <strchr+0x68>
 2007632:	3004      	adds	r0, #4
 2007634:	6803      	ldr	r3, [r0, #0]
 2007636:	4e1b      	ldr	r6, [pc, #108]	; (20076a4 <strchr+0xcc>)
 2007638:	199c      	adds	r4, r3, r6
 200763a:	439c      	bics	r4, r3
 200763c:	4214      	tst	r4, r2
 200763e:	d0f3      	beq.n	2007628 <strchr+0x50>
 2007640:	7803      	ldrb	r3, [r0, #0]
 2007642:	2b00      	cmp	r3, #0
 2007644:	d104      	bne.n	2007650 <strchr+0x78>
 2007646:	e02b      	b.n	20076a0 <strchr+0xc8>
 2007648:	3001      	adds	r0, #1
 200764a:	7803      	ldrb	r3, [r0, #0]
 200764c:	2b00      	cmp	r3, #0
 200764e:	d027      	beq.n	20076a0 <strchr+0xc8>
 2007650:	4299      	cmp	r1, r3
 2007652:	d1f9      	bne.n	2007648 <strchr+0x70>
 2007654:	bc70      	pop	{r4, r5, r6}
 2007656:	bc02      	pop	{r1}
 2007658:	4708      	bx	r1
 200765a:	0783      	lsls	r3, r0, #30
 200765c:	d00a      	beq.n	2007674 <strchr+0x9c>
 200765e:	7803      	ldrb	r3, [r0, #0]
 2007660:	2b00      	cmp	r3, #0
 2007662:	d0f7      	beq.n	2007654 <strchr+0x7c>
 2007664:	2203      	movs	r2, #3
 2007666:	e002      	b.n	200766e <strchr+0x96>
 2007668:	7803      	ldrb	r3, [r0, #0]
 200766a:	2b00      	cmp	r3, #0
 200766c:	d0f2      	beq.n	2007654 <strchr+0x7c>
 200766e:	3001      	adds	r0, #1
 2007670:	4210      	tst	r0, r2
 2007672:	d1f9      	bne.n	2007668 <strchr+0x90>
 2007674:	6803      	ldr	r3, [r0, #0]
 2007676:	4c0b      	ldr	r4, [pc, #44]	; (20076a4 <strchr+0xcc>)
 2007678:	490b      	ldr	r1, [pc, #44]	; (20076a8 <strchr+0xd0>)
 200767a:	191a      	adds	r2, r3, r4
 200767c:	439a      	bics	r2, r3
 200767e:	420a      	tst	r2, r1
 2007680:	d106      	bne.n	2007690 <strchr+0xb8>
 2007682:	3004      	adds	r0, #4
 2007684:	6803      	ldr	r3, [r0, #0]
 2007686:	4e07      	ldr	r6, [pc, #28]	; (20076a4 <strchr+0xcc>)
 2007688:	199a      	adds	r2, r3, r6
 200768a:	439a      	bics	r2, r3
 200768c:	420a      	tst	r2, r1
 200768e:	d0f8      	beq.n	2007682 <strchr+0xaa>
 2007690:	7803      	ldrb	r3, [r0, #0]
 2007692:	2b00      	cmp	r3, #0
 2007694:	d0de      	beq.n	2007654 <strchr+0x7c>
 2007696:	3001      	adds	r0, #1
 2007698:	7803      	ldrb	r3, [r0, #0]
 200769a:	2b00      	cmp	r3, #0
 200769c:	d1fb      	bne.n	2007696 <strchr+0xbe>
 200769e:	e7d9      	b.n	2007654 <strchr+0x7c>
 20076a0:	2000      	movs	r0, #0
 20076a2:	e7d7      	b.n	2007654 <strchr+0x7c>
 20076a4:	fefefeff 	.word	0xfefefeff
 20076a8:	80808080 	.word	0x80808080

020076ac <strcmp>:
 20076ac:	7802      	ldrb	r2, [r0, #0]
 20076ae:	780b      	ldrb	r3, [r1, #0]
 20076b0:	3001      	adds	r0, #1
 20076b2:	3101      	adds	r1, #1
 20076b4:	2a00      	cmp	r2, #0
 20076b6:	d001      	beq.n	20076bc <strcmp+0x10>
 20076b8:	429a      	cmp	r2, r3
 20076ba:	d0f7      	beq.n	20076ac <strcmp>
 20076bc:	1ad0      	subs	r0, r2, r3
 20076be:	4770      	bx	lr

020076c0 <strcpy>:
 20076c0:	1c03      	adds	r3, r0, #0
 20076c2:	780a      	ldrb	r2, [r1, #0]
 20076c4:	3101      	adds	r1, #1
 20076c6:	701a      	strb	r2, [r3, #0]
 20076c8:	3301      	adds	r3, #1
 20076ca:	2a00      	cmp	r2, #0
 20076cc:	d1f9      	bne.n	20076c2 <strcpy+0x2>
 20076ce:	4770      	bx	lr

020076d0 <strlcpy>:
 20076d0:	b510      	push	{r4, lr}
 20076d2:	2a00      	cmp	r2, #0
 20076d4:	d109      	bne.n	20076ea <strlcpy+0x1a>
 20076d6:	1c0b      	adds	r3, r1, #0
 20076d8:	781a      	ldrb	r2, [r3, #0]
 20076da:	3301      	adds	r3, #1
 20076dc:	2a00      	cmp	r2, #0
 20076de:	d1fb      	bne.n	20076d8 <strlcpy+0x8>
 20076e0:	43c9      	mvns	r1, r1
 20076e2:	1858      	adds	r0, r3, r1
 20076e4:	bc10      	pop	{r4}
 20076e6:	bc02      	pop	{r1}
 20076e8:	4708      	bx	r1
 20076ea:	3a01      	subs	r2, #1
 20076ec:	2a00      	cmp	r2, #0
 20076ee:	d00d      	beq.n	200770c <strlcpy+0x3c>
 20076f0:	1c0b      	adds	r3, r1, #0
 20076f2:	e002      	b.n	20076fa <strlcpy+0x2a>
 20076f4:	3a01      	subs	r2, #1
 20076f6:	2a00      	cmp	r2, #0
 20076f8:	d009      	beq.n	200770e <strlcpy+0x3e>
 20076fa:	781c      	ldrb	r4, [r3, #0]
 20076fc:	3301      	adds	r3, #1
 20076fe:	7004      	strb	r4, [r0, #0]
 2007700:	3001      	adds	r0, #1
 2007702:	2c00      	cmp	r4, #0
 2007704:	d1f6      	bne.n	20076f4 <strlcpy+0x24>
 2007706:	2a00      	cmp	r2, #0
 2007708:	d1ea      	bne.n	20076e0 <strlcpy+0x10>
 200770a:	e000      	b.n	200770e <strlcpy+0x3e>
 200770c:	1c0b      	adds	r3, r1, #0
 200770e:	2200      	movs	r2, #0
 2007710:	7002      	strb	r2, [r0, #0]
 2007712:	e7e1      	b.n	20076d8 <strlcpy+0x8>

02007714 <strncasecmp>:
 2007714:	b5f0      	push	{r4, r5, r6, r7, lr}
 2007716:	4647      	mov	r7, r8
 2007718:	b480      	push	{r7}
 200771a:	4680      	mov	r8, r0
 200771c:	2a00      	cmp	r2, #0
 200771e:	d02f      	beq.n	2007780 <strncasecmp+0x6c>
 2007720:	4818      	ldr	r0, [pc, #96]	; (2007784 <strncasecmp+0x70>)
 2007722:	2400      	movs	r4, #0
 2007724:	6807      	ldr	r7, [r0, #0]
 2007726:	2603      	movs	r6, #3
 2007728:	e010      	b.n	200774c <strncasecmp+0x38>
 200772a:	4684      	mov	ip, r0
 200772c:	5d08      	ldrb	r0, [r1, r4]
 200772e:	183d      	adds	r5, r7, r0
 2007730:	786d      	ldrb	r5, [r5, #1]
 2007732:	4035      	ands	r5, r6
 2007734:	2d01      	cmp	r5, #1
 2007736:	d018      	beq.n	200776a <strncasecmp+0x56>
 2007738:	1c05      	adds	r5, r0, #0
 200773a:	4663      	mov	r3, ip
 200773c:	1b58      	subs	r0, r3, r5
 200773e:	2800      	cmp	r0, #0
 2007740:	d119      	bne.n	2007776 <strncasecmp+0x62>
 2007742:	2d00      	cmp	r5, #0
 2007744:	d017      	beq.n	2007776 <strncasecmp+0x62>
 2007746:	3401      	adds	r4, #1
 2007748:	42a2      	cmp	r2, r4
 200774a:	d014      	beq.n	2007776 <strncasecmp+0x62>
 200774c:	4643      	mov	r3, r8
 200774e:	5d18      	ldrb	r0, [r3, r4]
 2007750:	183d      	adds	r5, r7, r0
 2007752:	786d      	ldrb	r5, [r5, #1]
 2007754:	4035      	ands	r5, r6
 2007756:	2d01      	cmp	r5, #1
 2007758:	d1e7      	bne.n	200772a <strncasecmp+0x16>
 200775a:	3020      	adds	r0, #32
 200775c:	4684      	mov	ip, r0
 200775e:	5d08      	ldrb	r0, [r1, r4]
 2007760:	183d      	adds	r5, r7, r0
 2007762:	786d      	ldrb	r5, [r5, #1]
 2007764:	4035      	ands	r5, r6
 2007766:	2d01      	cmp	r5, #1
 2007768:	d1e6      	bne.n	2007738 <strncasecmp+0x24>
 200776a:	1c05      	adds	r5, r0, #0
 200776c:	3520      	adds	r5, #32
 200776e:	4663      	mov	r3, ip
 2007770:	1b58      	subs	r0, r3, r5
 2007772:	2800      	cmp	r0, #0
 2007774:	d0e5      	beq.n	2007742 <strncasecmp+0x2e>
 2007776:	bc04      	pop	{r2}
 2007778:	4690      	mov	r8, r2
 200777a:	bcf0      	pop	{r4, r5, r6, r7}
 200777c:	bc02      	pop	{r1}
 200777e:	4708      	bx	r1
 2007780:	2000      	movs	r0, #0
 2007782:	e7f8      	b.n	2007776 <strncasecmp+0x62>
 2007784:	0200ed74 	.word	0x0200ed74

02007788 <strncmp>:
 2007788:	b570      	push	{r4, r5, r6, lr}
 200778a:	2a00      	cmp	r2, #0
 200778c:	d043      	beq.n	2007816 <strncmp+0x8e>
 200778e:	1c0b      	adds	r3, r1, #0
 2007790:	4303      	orrs	r3, r0
 2007792:	079c      	lsls	r4, r3, #30
 2007794:	d125      	bne.n	20077e2 <strncmp+0x5a>
 2007796:	1c04      	adds	r4, r0, #0
 2007798:	1c0d      	adds	r5, r1, #0
 200779a:	2a03      	cmp	r2, #3
 200779c:	d93f      	bls.n	200781e <strncmp+0x96>
 200779e:	6803      	ldr	r3, [r0, #0]
 20077a0:	6809      	ldr	r1, [r1, #0]
 20077a2:	428b      	cmp	r3, r1
 20077a4:	d13b      	bne.n	200781e <strncmp+0x96>
 20077a6:	3a04      	subs	r2, #4
 20077a8:	2a00      	cmp	r2, #0
 20077aa:	d034      	beq.n	2007816 <strncmp+0x8e>
 20077ac:	4e1f      	ldr	r6, [pc, #124]	; (200782c <strncmp+0xa4>)
 20077ae:	4820      	ldr	r0, [pc, #128]	; (2007830 <strncmp+0xa8>)
 20077b0:	1999      	adds	r1, r3, r6
 20077b2:	4399      	bics	r1, r3
 20077b4:	4201      	tst	r1, r0
 20077b6:	d00c      	beq.n	20077d2 <strncmp+0x4a>
 20077b8:	e02d      	b.n	2007816 <strncmp+0x8e>
 20077ba:	6823      	ldr	r3, [r4, #0]
 20077bc:	6829      	ldr	r1, [r5, #0]
 20077be:	428b      	cmp	r3, r1
 20077c0:	d12d      	bne.n	200781e <strncmp+0x96>
 20077c2:	3a04      	subs	r2, #4
 20077c4:	2a00      	cmp	r2, #0
 20077c6:	d026      	beq.n	2007816 <strncmp+0x8e>
 20077c8:	4e18      	ldr	r6, [pc, #96]	; (200782c <strncmp+0xa4>)
 20077ca:	1999      	adds	r1, r3, r6
 20077cc:	4399      	bics	r1, r3
 20077ce:	4201      	tst	r1, r0
 20077d0:	d121      	bne.n	2007816 <strncmp+0x8e>
 20077d2:	3404      	adds	r4, #4
 20077d4:	3504      	adds	r5, #4
 20077d6:	2a03      	cmp	r2, #3
 20077d8:	d8ef      	bhi.n	20077ba <strncmp+0x32>
 20077da:	1c20      	adds	r0, r4, #0
 20077dc:	1c29      	adds	r1, r5, #0
 20077de:	2a00      	cmp	r2, #0
 20077e0:	d020      	beq.n	2007824 <strncmp+0x9c>
 20077e2:	7804      	ldrb	r4, [r0, #0]
 20077e4:	780d      	ldrb	r5, [r1, #0]
 20077e6:	3a01      	subs	r2, #1
 20077e8:	42ac      	cmp	r4, r5
 20077ea:	d112      	bne.n	2007812 <strncmp+0x8a>
 20077ec:	2a00      	cmp	r2, #0
 20077ee:	d012      	beq.n	2007816 <strncmp+0x8e>
 20077f0:	2c00      	cmp	r4, #0
 20077f2:	d010      	beq.n	2007816 <strncmp+0x8e>
 20077f4:	3a01      	subs	r2, #1
 20077f6:	2300      	movs	r3, #0
 20077f8:	e005      	b.n	2007806 <strncmp+0x7e>
 20077fa:	2a00      	cmp	r2, #0
 20077fc:	d00b      	beq.n	2007816 <strncmp+0x8e>
 20077fe:	3301      	adds	r3, #1
 2007800:	2c00      	cmp	r4, #0
 2007802:	d008      	beq.n	2007816 <strncmp+0x8e>
 2007804:	3a01      	subs	r2, #1
 2007806:	18c4      	adds	r4, r0, r3
 2007808:	18cd      	adds	r5, r1, r3
 200780a:	7864      	ldrb	r4, [r4, #1]
 200780c:	786d      	ldrb	r5, [r5, #1]
 200780e:	42ac      	cmp	r4, r5
 2007810:	d0f3      	beq.n	20077fa <strncmp+0x72>
 2007812:	1b60      	subs	r0, r4, r5
 2007814:	e000      	b.n	2007818 <strncmp+0x90>
 2007816:	2000      	movs	r0, #0
 2007818:	bc70      	pop	{r4, r5, r6}
 200781a:	bc02      	pop	{r1}
 200781c:	4708      	bx	r1
 200781e:	1c20      	adds	r0, r4, #0
 2007820:	1c29      	adds	r1, r5, #0
 2007822:	e7de      	b.n	20077e2 <strncmp+0x5a>
 2007824:	7824      	ldrb	r4, [r4, #0]
 2007826:	782d      	ldrb	r5, [r5, #0]
 2007828:	1b60      	subs	r0, r4, r5
 200782a:	e7f5      	b.n	2007818 <strncmp+0x90>
 200782c:	fefefeff 	.word	0xfefefeff
 2007830:	80808080 	.word	0x80808080

02007834 <strncpy>:
 2007834:	b5f0      	push	{r4, r5, r6, r7, lr}
 2007836:	1c0b      	adds	r3, r1, #0
 2007838:	4303      	orrs	r3, r0
 200783a:	079c      	lsls	r4, r3, #30
 200783c:	d101      	bne.n	2007842 <strncpy+0xe>
 200783e:	2a03      	cmp	r2, #3
 2007840:	d817      	bhi.n	2007872 <strncpy+0x3e>
 2007842:	1c04      	adds	r4, r0, #0
 2007844:	2a00      	cmp	r2, #0
 2007846:	d103      	bne.n	2007850 <strncpy+0x1c>
 2007848:	e010      	b.n	200786c <strncpy+0x38>
 200784a:	3101      	adds	r1, #1
 200784c:	2a00      	cmp	r2, #0
 200784e:	d00d      	beq.n	200786c <strncpy+0x38>
 2007850:	780b      	ldrb	r3, [r1, #0]
 2007852:	3a01      	subs	r2, #1
 2007854:	7023      	strb	r3, [r4, #0]
 2007856:	3401      	adds	r4, #1
 2007858:	2b00      	cmp	r3, #0
 200785a:	d1f6      	bne.n	200784a <strncpy+0x16>
 200785c:	2a00      	cmp	r2, #0
 200785e:	d005      	beq.n	200786c <strncpy+0x38>
 2007860:	2300      	movs	r3, #0
 2007862:	2100      	movs	r1, #0
 2007864:	54e1      	strb	r1, [r4, r3]
 2007866:	3301      	adds	r3, #1
 2007868:	4293      	cmp	r3, r2
 200786a:	d1fb      	bne.n	2007864 <strncpy+0x30>
 200786c:	bcf0      	pop	{r4, r5, r6, r7}
 200786e:	bc02      	pop	{r1}
 2007870:	4708      	bx	r1
 2007872:	4e07      	ldr	r6, [pc, #28]	; (2007890 <strncpy+0x5c>)
 2007874:	1c04      	adds	r4, r0, #0
 2007876:	680b      	ldr	r3, [r1, #0]
 2007878:	4f06      	ldr	r7, [pc, #24]	; (2007894 <strncpy+0x60>)
 200787a:	19dd      	adds	r5, r3, r7
 200787c:	439d      	bics	r5, r3
 200787e:	4235      	tst	r5, r6
 2007880:	d1e0      	bne.n	2007844 <strncpy+0x10>
 2007882:	3a04      	subs	r2, #4
 2007884:	c408      	stmia	r4!, {r3}
 2007886:	3104      	adds	r1, #4
 2007888:	2a03      	cmp	r2, #3
 200788a:	d8f4      	bhi.n	2007876 <strncpy+0x42>
 200788c:	e7da      	b.n	2007844 <strncpy+0x10>
 200788e:	46c0      	nop			; (mov r8, r8)
 2007890:	80808080 	.word	0x80808080
 2007894:	fefefeff 	.word	0xfefefeff

02007898 <_strtol_r>:
 2007898:	b5f0      	push	{r4, r5, r6, r7, lr}
 200789a:	465f      	mov	r7, fp
 200789c:	4656      	mov	r6, sl
 200789e:	464d      	mov	r5, r9
 20078a0:	4644      	mov	r4, r8
 20078a2:	b4f0      	push	{r4, r5, r6, r7}
 20078a4:	b087      	sub	sp, #28
 20078a6:	1c1f      	adds	r7, r3, #0
 20078a8:	4b52      	ldr	r3, [pc, #328]	; (20079f4 <_strtol_r+0x15c>)
 20078aa:	9005      	str	r0, [sp, #20]
 20078ac:	9103      	str	r1, [sp, #12]
 20078ae:	681e      	ldr	r6, [r3, #0]
 20078b0:	4691      	mov	r9, r2
 20078b2:	1c0c      	adds	r4, r1, #0
 20078b4:	2208      	movs	r2, #8
 20078b6:	7825      	ldrb	r5, [r4, #0]
 20078b8:	1973      	adds	r3, r6, r5
 20078ba:	785b      	ldrb	r3, [r3, #1]
 20078bc:	3401      	adds	r4, #1
 20078be:	4213      	tst	r3, r2
 20078c0:	d1f9      	bne.n	20078b6 <_strtol_r+0x1e>
 20078c2:	2d2d      	cmp	r5, #45	; 0x2d
 20078c4:	d100      	bne.n	20078c8 <_strtol_r+0x30>
 20078c6:	e072      	b.n	20079ae <_strtol_r+0x116>
 20078c8:	2d2b      	cmp	r5, #43	; 0x2b
 20078ca:	d100      	bne.n	20078ce <_strtol_r+0x36>
 20078cc:	e07c      	b.n	20079c8 <_strtol_r+0x130>
 20078ce:	2200      	movs	r2, #0
 20078d0:	9204      	str	r2, [sp, #16]
 20078d2:	427b      	negs	r3, r7
 20078d4:	417b      	adcs	r3, r7
 20078d6:	2f10      	cmp	r7, #16
 20078d8:	d052      	beq.n	2007980 <_strtol_r+0xe8>
 20078da:	2b00      	cmp	r3, #0
 20078dc:	d150      	bne.n	2007980 <_strtol_r+0xe8>
 20078de:	46ba      	mov	sl, r7
 20078e0:	9b04      	ldr	r3, [sp, #16]
 20078e2:	2b00      	cmp	r3, #0
 20078e4:	d158      	bne.n	2007998 <_strtol_r+0x100>
 20078e6:	4944      	ldr	r1, [pc, #272]	; (20079f8 <_strtol_r+0x160>)
 20078e8:	468b      	mov	fp, r1
 20078ea:	4658      	mov	r0, fp
 20078ec:	4651      	mov	r1, sl
 20078ee:	f000 fd81 	bl	20083f4 <__aeabi_uidivmod>
 20078f2:	4658      	mov	r0, fp
 20078f4:	4688      	mov	r8, r1
 20078f6:	4651      	mov	r1, sl
 20078f8:	f000 fd3e 	bl	2008378 <__aeabi_uidiv>
 20078fc:	2304      	movs	r3, #4
 20078fe:	469b      	mov	fp, r3
 2007900:	2303      	movs	r3, #3
 2007902:	2200      	movs	r2, #0
 2007904:	2100      	movs	r1, #0
 2007906:	469c      	mov	ip, r3
 2007908:	9701      	str	r7, [sp, #4]
 200790a:	e011      	b.n	2007930 <_strtol_r+0x98>
 200790c:	9b01      	ldr	r3, [sp, #4]
 200790e:	3d30      	subs	r5, #48	; 0x30
 2007910:	42ab      	cmp	r3, r5
 2007912:	dd1c      	ble.n	200794e <_strtol_r+0xb6>
 2007914:	4281      	cmp	r1, r0
 2007916:	d842      	bhi.n	200799e <_strtol_r+0x106>
 2007918:	2a00      	cmp	r2, #0
 200791a:	db40      	blt.n	200799e <_strtol_r+0x106>
 200791c:	4545      	cmp	r5, r8
 200791e:	dd01      	ble.n	2007924 <_strtol_r+0x8c>
 2007920:	4281      	cmp	r1, r0
 2007922:	d03c      	beq.n	200799e <_strtol_r+0x106>
 2007924:	4653      	mov	r3, sl
 2007926:	434b      	muls	r3, r1
 2007928:	2201      	movs	r2, #1
 200792a:	18e9      	adds	r1, r5, r3
 200792c:	7825      	ldrb	r5, [r4, #0]
 200792e:	3401      	adds	r4, #1
 2007930:	1973      	adds	r3, r6, r5
 2007932:	785b      	ldrb	r3, [r3, #1]
 2007934:	465f      	mov	r7, fp
 2007936:	423b      	tst	r3, r7
 2007938:	d1e8      	bne.n	200790c <_strtol_r+0x74>
 200793a:	4667      	mov	r7, ip
 200793c:	403b      	ands	r3, r7
 200793e:	d006      	beq.n	200794e <_strtol_r+0xb6>
 2007940:	2b01      	cmp	r3, #1
 2007942:	d02f      	beq.n	20079a4 <_strtol_r+0x10c>
 2007944:	2357      	movs	r3, #87	; 0x57
 2007946:	1aed      	subs	r5, r5, r3
 2007948:	9b01      	ldr	r3, [sp, #4]
 200794a:	42ab      	cmp	r3, r5
 200794c:	dce2      	bgt.n	2007914 <_strtol_r+0x7c>
 200794e:	1c57      	adds	r7, r2, #1
 2007950:	d032      	beq.n	20079b8 <_strtol_r+0x120>
 2007952:	9b04      	ldr	r3, [sp, #16]
 2007954:	2b00      	cmp	r3, #0
 2007956:	d128      	bne.n	20079aa <_strtol_r+0x112>
 2007958:	1c08      	adds	r0, r1, #0
 200795a:	464f      	mov	r7, r9
 200795c:	2f00      	cmp	r7, #0
 200795e:	d006      	beq.n	200796e <_strtol_r+0xd6>
 2007960:	2a00      	cmp	r2, #0
 2007962:	d001      	beq.n	2007968 <_strtol_r+0xd0>
 2007964:	3c01      	subs	r4, #1
 2007966:	9403      	str	r4, [sp, #12]
 2007968:	9903      	ldr	r1, [sp, #12]
 200796a:	464a      	mov	r2, r9
 200796c:	6011      	str	r1, [r2, #0]
 200796e:	b007      	add	sp, #28
 2007970:	bc3c      	pop	{r2, r3, r4, r5}
 2007972:	4690      	mov	r8, r2
 2007974:	4699      	mov	r9, r3
 2007976:	46a2      	mov	sl, r4
 2007978:	46ab      	mov	fp, r5
 200797a:	bcf0      	pop	{r4, r5, r6, r7}
 200797c:	bc02      	pop	{r1}
 200797e:	4708      	bx	r1
 2007980:	2d30      	cmp	r5, #48	; 0x30
 2007982:	d026      	beq.n	20079d2 <_strtol_r+0x13a>
 2007984:	2b00      	cmp	r3, #0
 2007986:	d0aa      	beq.n	20078de <_strtol_r+0x46>
 2007988:	2d30      	cmp	r5, #48	; 0x30
 200798a:	d02e      	beq.n	20079ea <_strtol_r+0x152>
 200798c:	9b04      	ldr	r3, [sp, #16]
 200798e:	210a      	movs	r1, #10
 2007990:	468a      	mov	sl, r1
 2007992:	270a      	movs	r7, #10
 2007994:	2b00      	cmp	r3, #0
 2007996:	d0a6      	beq.n	20078e6 <_strtol_r+0x4e>
 2007998:	4a18      	ldr	r2, [pc, #96]	; (20079fc <_strtol_r+0x164>)
 200799a:	4693      	mov	fp, r2
 200799c:	e7a5      	b.n	20078ea <_strtol_r+0x52>
 200799e:	2201      	movs	r2, #1
 20079a0:	4252      	negs	r2, r2
 20079a2:	e7c3      	b.n	200792c <_strtol_r+0x94>
 20079a4:	2337      	movs	r3, #55	; 0x37
 20079a6:	1aed      	subs	r5, r5, r3
 20079a8:	e7ce      	b.n	2007948 <_strtol_r+0xb0>
 20079aa:	4248      	negs	r0, r1
 20079ac:	e7d5      	b.n	200795a <_strtol_r+0xc2>
 20079ae:	2101      	movs	r1, #1
 20079b0:	7825      	ldrb	r5, [r4, #0]
 20079b2:	3401      	adds	r4, #1
 20079b4:	9104      	str	r1, [sp, #16]
 20079b6:	e78c      	b.n	20078d2 <_strtol_r+0x3a>
 20079b8:	9904      	ldr	r1, [sp, #16]
 20079ba:	2900      	cmp	r1, #0
 20079bc:	d113      	bne.n	20079e6 <_strtol_r+0x14e>
 20079be:	480e      	ldr	r0, [pc, #56]	; (20079f8 <_strtol_r+0x160>)
 20079c0:	9f05      	ldr	r7, [sp, #20]
 20079c2:	2322      	movs	r3, #34	; 0x22
 20079c4:	603b      	str	r3, [r7, #0]
 20079c6:	e7c8      	b.n	200795a <_strtol_r+0xc2>
 20079c8:	2300      	movs	r3, #0
 20079ca:	7825      	ldrb	r5, [r4, #0]
 20079cc:	3401      	adds	r4, #1
 20079ce:	9304      	str	r3, [sp, #16]
 20079d0:	e77f      	b.n	20078d2 <_strtol_r+0x3a>
 20079d2:	7822      	ldrb	r2, [r4, #0]
 20079d4:	2a58      	cmp	r2, #88	; 0x58
 20079d6:	d001      	beq.n	20079dc <_strtol_r+0x144>
 20079d8:	2a78      	cmp	r2, #120	; 0x78
 20079da:	d1d3      	bne.n	2007984 <_strtol_r+0xec>
 20079dc:	2710      	movs	r7, #16
 20079de:	7865      	ldrb	r5, [r4, #1]
 20079e0:	46ba      	mov	sl, r7
 20079e2:	3402      	adds	r4, #2
 20079e4:	e77c      	b.n	20078e0 <_strtol_r+0x48>
 20079e6:	4805      	ldr	r0, [pc, #20]	; (20079fc <_strtol_r+0x164>)
 20079e8:	e7ea      	b.n	20079c0 <_strtol_r+0x128>
 20079ea:	2208      	movs	r2, #8
 20079ec:	4692      	mov	sl, r2
 20079ee:	2708      	movs	r7, #8
 20079f0:	e776      	b.n	20078e0 <_strtol_r+0x48>
 20079f2:	46c0      	nop			; (mov r8, r8)
 20079f4:	0200ed74 	.word	0x0200ed74
 20079f8:	7fffffff 	.word	0x7fffffff
 20079fc:	80000000 	.word	0x80000000

02007a00 <strtol>:
 2007a00:	b570      	push	{r4, r5, r6, lr}
 2007a02:	1c13      	adds	r3, r2, #0
 2007a04:	4a05      	ldr	r2, [pc, #20]	; (2007a1c <strtol+0x1c>)
 2007a06:	1c05      	adds	r5, r0, #0
 2007a08:	1c0c      	adds	r4, r1, #0
 2007a0a:	6810      	ldr	r0, [r2, #0]
 2007a0c:	1c29      	adds	r1, r5, #0
 2007a0e:	1c22      	adds	r2, r4, #0
 2007a10:	f7ff ff42 	bl	2007898 <_strtol_r>
 2007a14:	bc70      	pop	{r4, r5, r6}
 2007a16:	bc02      	pop	{r1}
 2007a18:	4708      	bx	r1
 2007a1a:	46c0      	nop			; (mov r8, r8)
 2007a1c:	0200e940 	.word	0x0200e940

02007a20 <_strtoul_r>:
 2007a20:	b5f0      	push	{r4, r5, r6, r7, lr}
 2007a22:	465f      	mov	r7, fp
 2007a24:	4656      	mov	r6, sl
 2007a26:	464d      	mov	r5, r9
 2007a28:	4644      	mov	r4, r8
 2007a2a:	b4f0      	push	{r4, r5, r6, r7}
 2007a2c:	b087      	sub	sp, #28
 2007a2e:	1c1f      	adds	r7, r3, #0
 2007a30:	4b4f      	ldr	r3, [pc, #316]	; (2007b70 <_strtoul_r+0x150>)
 2007a32:	9005      	str	r0, [sp, #20]
 2007a34:	9103      	str	r1, [sp, #12]
 2007a36:	681e      	ldr	r6, [r3, #0]
 2007a38:	4691      	mov	r9, r2
 2007a3a:	1c0c      	adds	r4, r1, #0
 2007a3c:	2208      	movs	r2, #8
 2007a3e:	7825      	ldrb	r5, [r4, #0]
 2007a40:	1973      	adds	r3, r6, r5
 2007a42:	785b      	ldrb	r3, [r3, #1]
 2007a44:	3401      	adds	r4, #1
 2007a46:	4213      	tst	r3, r2
 2007a48:	d1f9      	bne.n	2007a3e <_strtoul_r+0x1e>
 2007a4a:	2d2d      	cmp	r5, #45	; 0x2d
 2007a4c:	d100      	bne.n	2007a50 <_strtoul_r+0x30>
 2007a4e:	e072      	b.n	2007b36 <_strtoul_r+0x116>
 2007a50:	2d2b      	cmp	r5, #43	; 0x2b
 2007a52:	d100      	bne.n	2007a56 <_strtoul_r+0x36>
 2007a54:	e074      	b.n	2007b40 <_strtoul_r+0x120>
 2007a56:	2200      	movs	r2, #0
 2007a58:	9204      	str	r2, [sp, #16]
 2007a5a:	427b      	negs	r3, r7
 2007a5c:	417b      	adcs	r3, r7
 2007a5e:	2f10      	cmp	r7, #16
 2007a60:	d04d      	beq.n	2007afe <_strtoul_r+0xde>
 2007a62:	2b00      	cmp	r3, #0
 2007a64:	d14b      	bne.n	2007afe <_strtoul_r+0xde>
 2007a66:	2001      	movs	r0, #1
 2007a68:	4240      	negs	r0, r0
 2007a6a:	1c39      	adds	r1, r7, #0
 2007a6c:	f000 fcc2 	bl	20083f4 <__aeabi_uidivmod>
 2007a70:	46ba      	mov	sl, r7
 2007a72:	4688      	mov	r8, r1
 2007a74:	2001      	movs	r0, #1
 2007a76:	4651      	mov	r1, sl
 2007a78:	4240      	negs	r0, r0
 2007a7a:	f000 fc7d 	bl	2008378 <__aeabi_uidiv>
 2007a7e:	2204      	movs	r2, #4
 2007a80:	4693      	mov	fp, r2
 2007a82:	2203      	movs	r2, #3
 2007a84:	2300      	movs	r3, #0
 2007a86:	2100      	movs	r1, #0
 2007a88:	4694      	mov	ip, r2
 2007a8a:	9701      	str	r7, [sp, #4]
 2007a8c:	e011      	b.n	2007ab2 <_strtoul_r+0x92>
 2007a8e:	9a01      	ldr	r2, [sp, #4]
 2007a90:	3d30      	subs	r5, #48	; 0x30
 2007a92:	42aa      	cmp	r2, r5
 2007a94:	dd1c      	ble.n	2007ad0 <_strtoul_r+0xb0>
 2007a96:	4281      	cmp	r1, r0
 2007a98:	d83d      	bhi.n	2007b16 <_strtoul_r+0xf6>
 2007a9a:	2b00      	cmp	r3, #0
 2007a9c:	db3b      	blt.n	2007b16 <_strtoul_r+0xf6>
 2007a9e:	4545      	cmp	r5, r8
 2007aa0:	dd01      	ble.n	2007aa6 <_strtoul_r+0x86>
 2007aa2:	4281      	cmp	r1, r0
 2007aa4:	d037      	beq.n	2007b16 <_strtoul_r+0xf6>
 2007aa6:	4653      	mov	r3, sl
 2007aa8:	434b      	muls	r3, r1
 2007aaa:	18e9      	adds	r1, r5, r3
 2007aac:	2301      	movs	r3, #1
 2007aae:	7825      	ldrb	r5, [r4, #0]
 2007ab0:	3401      	adds	r4, #1
 2007ab2:	1972      	adds	r2, r6, r5
 2007ab4:	7852      	ldrb	r2, [r2, #1]
 2007ab6:	465f      	mov	r7, fp
 2007ab8:	423a      	tst	r2, r7
 2007aba:	d1e8      	bne.n	2007a8e <_strtoul_r+0x6e>
 2007abc:	4667      	mov	r7, ip
 2007abe:	403a      	ands	r2, r7
 2007ac0:	d006      	beq.n	2007ad0 <_strtoul_r+0xb0>
 2007ac2:	2a01      	cmp	r2, #1
 2007ac4:	d02a      	beq.n	2007b1c <_strtoul_r+0xfc>
 2007ac6:	2257      	movs	r2, #87	; 0x57
 2007ac8:	1aad      	subs	r5, r5, r2
 2007aca:	9a01      	ldr	r2, [sp, #4]
 2007acc:	42aa      	cmp	r2, r5
 2007ace:	dce2      	bgt.n	2007a96 <_strtoul_r+0x76>
 2007ad0:	1c5f      	adds	r7, r3, #1
 2007ad2:	d02b      	beq.n	2007b2c <_strtoul_r+0x10c>
 2007ad4:	9a04      	ldr	r2, [sp, #16]
 2007ad6:	2a00      	cmp	r2, #0
 2007ad8:	d126      	bne.n	2007b28 <_strtoul_r+0x108>
 2007ada:	464f      	mov	r7, r9
 2007adc:	2f00      	cmp	r7, #0
 2007ade:	d004      	beq.n	2007aea <_strtoul_r+0xca>
 2007ae0:	2b00      	cmp	r3, #0
 2007ae2:	d11e      	bne.n	2007b22 <_strtoul_r+0x102>
 2007ae4:	9a03      	ldr	r2, [sp, #12]
 2007ae6:	464b      	mov	r3, r9
 2007ae8:	601a      	str	r2, [r3, #0]
 2007aea:	b007      	add	sp, #28
 2007aec:	1c08      	adds	r0, r1, #0
 2007aee:	bc3c      	pop	{r2, r3, r4, r5}
 2007af0:	4690      	mov	r8, r2
 2007af2:	4699      	mov	r9, r3
 2007af4:	46a2      	mov	sl, r4
 2007af6:	46ab      	mov	fp, r5
 2007af8:	bcf0      	pop	{r4, r5, r6, r7}
 2007afa:	bc02      	pop	{r1}
 2007afc:	4708      	bx	r1
 2007afe:	2d30      	cmp	r5, #48	; 0x30
 2007b00:	d023      	beq.n	2007b4a <_strtoul_r+0x12a>
 2007b02:	2b00      	cmp	r3, #0
 2007b04:	d0af      	beq.n	2007a66 <_strtoul_r+0x46>
 2007b06:	2d30      	cmp	r5, #48	; 0x30
 2007b08:	d02c      	beq.n	2007b64 <_strtoul_r+0x144>
 2007b0a:	2205      	movs	r2, #5
 2007b0c:	230a      	movs	r3, #10
 2007b0e:	4690      	mov	r8, r2
 2007b10:	469a      	mov	sl, r3
 2007b12:	270a      	movs	r7, #10
 2007b14:	e7ae      	b.n	2007a74 <_strtoul_r+0x54>
 2007b16:	2301      	movs	r3, #1
 2007b18:	425b      	negs	r3, r3
 2007b1a:	e7c8      	b.n	2007aae <_strtoul_r+0x8e>
 2007b1c:	2237      	movs	r2, #55	; 0x37
 2007b1e:	1aad      	subs	r5, r5, r2
 2007b20:	e7d3      	b.n	2007aca <_strtoul_r+0xaa>
 2007b22:	3c01      	subs	r4, #1
 2007b24:	9403      	str	r4, [sp, #12]
 2007b26:	e7dd      	b.n	2007ae4 <_strtoul_r+0xc4>
 2007b28:	4249      	negs	r1, r1
 2007b2a:	e7d6      	b.n	2007ada <_strtoul_r+0xba>
 2007b2c:	9905      	ldr	r1, [sp, #20]
 2007b2e:	2222      	movs	r2, #34	; 0x22
 2007b30:	600a      	str	r2, [r1, #0]
 2007b32:	1c19      	adds	r1, r3, #0
 2007b34:	e7d1      	b.n	2007ada <_strtoul_r+0xba>
 2007b36:	2101      	movs	r1, #1
 2007b38:	7825      	ldrb	r5, [r4, #0]
 2007b3a:	3401      	adds	r4, #1
 2007b3c:	9104      	str	r1, [sp, #16]
 2007b3e:	e78c      	b.n	2007a5a <_strtoul_r+0x3a>
 2007b40:	2300      	movs	r3, #0
 2007b42:	7825      	ldrb	r5, [r4, #0]
 2007b44:	3401      	adds	r4, #1
 2007b46:	9304      	str	r3, [sp, #16]
 2007b48:	e787      	b.n	2007a5a <_strtoul_r+0x3a>
 2007b4a:	7822      	ldrb	r2, [r4, #0]
 2007b4c:	2a58      	cmp	r2, #88	; 0x58
 2007b4e:	d001      	beq.n	2007b54 <_strtoul_r+0x134>
 2007b50:	2a78      	cmp	r2, #120	; 0x78
 2007b52:	d1d6      	bne.n	2007b02 <_strtoul_r+0xe2>
 2007b54:	270f      	movs	r7, #15
 2007b56:	2110      	movs	r1, #16
 2007b58:	7865      	ldrb	r5, [r4, #1]
 2007b5a:	46b8      	mov	r8, r7
 2007b5c:	3402      	adds	r4, #2
 2007b5e:	468a      	mov	sl, r1
 2007b60:	2710      	movs	r7, #16
 2007b62:	e787      	b.n	2007a74 <_strtoul_r+0x54>
 2007b64:	2707      	movs	r7, #7
 2007b66:	2108      	movs	r1, #8
 2007b68:	46b8      	mov	r8, r7
 2007b6a:	468a      	mov	sl, r1
 2007b6c:	2708      	movs	r7, #8
 2007b6e:	e781      	b.n	2007a74 <_strtoul_r+0x54>
 2007b70:	0200ed74 	.word	0x0200ed74

02007b74 <strtoul>:
 2007b74:	b570      	push	{r4, r5, r6, lr}
 2007b76:	1c13      	adds	r3, r2, #0
 2007b78:	4a05      	ldr	r2, [pc, #20]	; (2007b90 <strtoul+0x1c>)
 2007b7a:	1c05      	adds	r5, r0, #0
 2007b7c:	1c0c      	adds	r4, r1, #0
 2007b7e:	6810      	ldr	r0, [r2, #0]
 2007b80:	1c29      	adds	r1, r5, #0
 2007b82:	1c22      	adds	r2, r4, #0
 2007b84:	f7ff ff4c 	bl	2007a20 <_strtoul_r>
 2007b88:	bc70      	pop	{r4, r5, r6}
 2007b8a:	bc02      	pop	{r1}
 2007b8c:	4708      	bx	r1
 2007b8e:	46c0      	nop			; (mov r8, r8)
 2007b90:	0200e940 	.word	0x0200e940

02007b94 <__swbuf_r>:
 2007b94:	b570      	push	{r4, r5, r6, lr}
 2007b96:	1c06      	adds	r6, r0, #0
 2007b98:	1c0d      	adds	r5, r1, #0
 2007b9a:	1c14      	adds	r4, r2, #0
 2007b9c:	2800      	cmp	r0, #0
 2007b9e:	d002      	beq.n	2007ba6 <__swbuf_r+0x12>
 2007ba0:	6b83      	ldr	r3, [r0, #56]	; 0x38
 2007ba2:	2b00      	cmp	r3, #0
 2007ba4:	d040      	beq.n	2007c28 <__swbuf_r+0x94>
 2007ba6:	69a3      	ldr	r3, [r4, #24]
 2007ba8:	89a1      	ldrh	r1, [r4, #12]
 2007baa:	60a3      	str	r3, [r4, #8]
 2007bac:	1c0a      	adds	r2, r1, #0
 2007bae:	070b      	lsls	r3, r1, #28
 2007bb0:	d524      	bpl.n	2007bfc <__swbuf_r+0x68>
 2007bb2:	6920      	ldr	r0, [r4, #16]
 2007bb4:	2800      	cmp	r0, #0
 2007bb6:	d021      	beq.n	2007bfc <__swbuf_r+0x68>
 2007bb8:	2380      	movs	r3, #128	; 0x80
 2007bba:	019b      	lsls	r3, r3, #6
 2007bbc:	421a      	tst	r2, r3
 2007bbe:	d016      	beq.n	2007bee <__swbuf_r+0x5a>
 2007bc0:	6823      	ldr	r3, [r4, #0]
 2007bc2:	6961      	ldr	r1, [r4, #20]
 2007bc4:	1a1a      	subs	r2, r3, r0
 2007bc6:	428a      	cmp	r2, r1
 2007bc8:	da31      	bge.n	2007c2e <__swbuf_r+0x9a>
 2007bca:	3201      	adds	r2, #1
 2007bcc:	68a1      	ldr	r1, [r4, #8]
 2007bce:	062d      	lsls	r5, r5, #24
 2007bd0:	0e2d      	lsrs	r5, r5, #24
 2007bd2:	3901      	subs	r1, #1
 2007bd4:	60a1      	str	r1, [r4, #8]
 2007bd6:	701d      	strb	r5, [r3, #0]
 2007bd8:	3301      	adds	r3, #1
 2007bda:	6023      	str	r3, [r4, #0]
 2007bdc:	6963      	ldr	r3, [r4, #20]
 2007bde:	4293      	cmp	r3, r2
 2007be0:	d019      	beq.n	2007c16 <__swbuf_r+0x82>
 2007be2:	2d0a      	cmp	r5, #10
 2007be4:	d014      	beq.n	2007c10 <__swbuf_r+0x7c>
 2007be6:	1c28      	adds	r0, r5, #0
 2007be8:	bc70      	pop	{r4, r5, r6}
 2007bea:	bc02      	pop	{r1}
 2007bec:	4708      	bx	r1
 2007bee:	430b      	orrs	r3, r1
 2007bf0:	6e62      	ldr	r2, [r4, #100]	; 0x64
 2007bf2:	81a3      	strh	r3, [r4, #12]
 2007bf4:	4b17      	ldr	r3, [pc, #92]	; (2007c54 <__swbuf_r+0xc0>)
 2007bf6:	4013      	ands	r3, r2
 2007bf8:	6663      	str	r3, [r4, #100]	; 0x64
 2007bfa:	e7e1      	b.n	2007bc0 <__swbuf_r+0x2c>
 2007bfc:	1c30      	adds	r0, r6, #0
 2007bfe:	1c21      	adds	r1, r4, #0
 2007c00:	f7fd f94a 	bl	2004e98 <__swsetup_r>
 2007c04:	2800      	cmp	r0, #0
 2007c06:	d11b      	bne.n	2007c40 <__swbuf_r+0xac>
 2007c08:	89a1      	ldrh	r1, [r4, #12]
 2007c0a:	6920      	ldr	r0, [r4, #16]
 2007c0c:	1c0a      	adds	r2, r1, #0
 2007c0e:	e7d3      	b.n	2007bb8 <__swbuf_r+0x24>
 2007c10:	89a3      	ldrh	r3, [r4, #12]
 2007c12:	07da      	lsls	r2, r3, #31
 2007c14:	d5e7      	bpl.n	2007be6 <__swbuf_r+0x52>
 2007c16:	1c30      	adds	r0, r6, #0
 2007c18:	1c21      	adds	r1, r4, #0
 2007c1a:	f7fd f9ad 	bl	2004f78 <_fflush_r>
 2007c1e:	2800      	cmp	r0, #0
 2007c20:	d0e1      	beq.n	2007be6 <__swbuf_r+0x52>
 2007c22:	2501      	movs	r5, #1
 2007c24:	426d      	negs	r5, r5
 2007c26:	e7de      	b.n	2007be6 <__swbuf_r+0x52>
 2007c28:	f7fd faca 	bl	20051c0 <__sinit>
 2007c2c:	e7bb      	b.n	2007ba6 <__swbuf_r+0x12>
 2007c2e:	1c30      	adds	r0, r6, #0
 2007c30:	1c21      	adds	r1, r4, #0
 2007c32:	f7fd f9a1 	bl	2004f78 <_fflush_r>
 2007c36:	2800      	cmp	r0, #0
 2007c38:	d1f3      	bne.n	2007c22 <__swbuf_r+0x8e>
 2007c3a:	2201      	movs	r2, #1
 2007c3c:	6823      	ldr	r3, [r4, #0]
 2007c3e:	e7c5      	b.n	2007bcc <__swbuf_r+0x38>
 2007c40:	89a2      	ldrh	r2, [r4, #12]
 2007c42:	2340      	movs	r3, #64	; 0x40
 2007c44:	4313      	orrs	r3, r2
 2007c46:	81a3      	strh	r3, [r4, #12]
 2007c48:	2501      	movs	r5, #1
 2007c4a:	2309      	movs	r3, #9
 2007c4c:	6033      	str	r3, [r6, #0]
 2007c4e:	426d      	negs	r5, r5
 2007c50:	e7c9      	b.n	2007be6 <__swbuf_r+0x52>
 2007c52:	46c0      	nop			; (mov r8, r8)
 2007c54:	ffffdfff 	.word	0xffffdfff

02007c58 <__swbuf>:
 2007c58:	b510      	push	{r4, lr}
 2007c5a:	1c0a      	adds	r2, r1, #0
 2007c5c:	4904      	ldr	r1, [pc, #16]	; (2007c70 <__swbuf+0x18>)
 2007c5e:	1c03      	adds	r3, r0, #0
 2007c60:	6808      	ldr	r0, [r1, #0]
 2007c62:	1c19      	adds	r1, r3, #0
 2007c64:	f7ff ff96 	bl	2007b94 <__swbuf_r>
 2007c68:	bc10      	pop	{r4}
 2007c6a:	bc02      	pop	{r1}
 2007c6c:	4708      	bx	r1
 2007c6e:	46c0      	nop			; (mov r8, r8)
 2007c70:	0200e940 	.word	0x0200e940

02007c74 <_wcsnrtombs_r>:
 2007c74:	b5f0      	push	{r4, r5, r6, r7, lr}
 2007c76:	465f      	mov	r7, fp
 2007c78:	4656      	mov	r6, sl
 2007c7a:	464d      	mov	r5, r9
 2007c7c:	4644      	mov	r4, r8
 2007c7e:	b4f0      	push	{r4, r5, r6, r7}
 2007c80:	b08f      	sub	sp, #60	; 0x3c
 2007c82:	9e19      	ldr	r6, [sp, #100]	; 0x64
 2007c84:	9008      	str	r0, [sp, #32]
 2007c86:	9109      	str	r1, [sp, #36]	; 0x24
 2007c88:	4692      	mov	sl, r2
 2007c8a:	2e00      	cmp	r6, #0
 2007c8c:	d068      	beq.n	2007d60 <_wcsnrtombs_r+0xec>
 2007c8e:	9a09      	ldr	r2, [sp, #36]	; 0x24
 2007c90:	2a00      	cmp	r2, #0
 2007c92:	d05f      	beq.n	2007d54 <_wcsnrtombs_r+0xe0>
 2007c94:	9918      	ldr	r1, [sp, #96]	; 0x60
 2007c96:	4655      	mov	r5, sl
 2007c98:	682f      	ldr	r7, [r5, #0]
 2007c9a:	2900      	cmp	r1, #0
 2007c9c:	d06d      	beq.n	2007d7a <_wcsnrtombs_r+0x106>
 2007c9e:	2b00      	cmp	r3, #0
 2007ca0:	d06b      	beq.n	2007d7a <_wcsnrtombs_r+0x106>
 2007ca2:	3b01      	subs	r3, #1
 2007ca4:	9d09      	ldr	r5, [sp, #36]	; 0x24
 2007ca6:	4698      	mov	r8, r3
 2007ca8:	4b35      	ldr	r3, [pc, #212]	; (2007d80 <_wcsnrtombs_r+0x10c>)
 2007caa:	2200      	movs	r2, #0
 2007cac:	9503      	str	r5, [sp, #12]
 2007cae:	4691      	mov	r9, r2
 2007cb0:	469b      	mov	fp, r3
 2007cb2:	ac0b      	add	r4, sp, #44	; 0x2c
 2007cb4:	6835      	ldr	r5, [r6, #0]
 2007cb6:	9507      	str	r5, [sp, #28]
 2007cb8:	465a      	mov	r2, fp
 2007cba:	6871      	ldr	r1, [r6, #4]
 2007cbc:	6812      	ldr	r2, [r2, #0]
 2007cbe:	683d      	ldr	r5, [r7, #0]
 2007cc0:	9106      	str	r1, [sp, #24]
 2007cc2:	9205      	str	r2, [sp, #20]
 2007cc4:	f7fd ffd2 	bl	2005c6c <__locale_charset>
 2007cc8:	1c21      	adds	r1, r4, #0
 2007cca:	1c03      	adds	r3, r0, #0
 2007ccc:	1c2a      	adds	r2, r5, #0
 2007cce:	9600      	str	r6, [sp, #0]
 2007cd0:	9808      	ldr	r0, [sp, #32]
 2007cd2:	9d05      	ldr	r5, [sp, #20]
 2007cd4:	f000 f86c 	bl	2007db0 <wcsnrtombs+0x2c>
 2007cd8:	1c41      	adds	r1, r0, #1
 2007cda:	d034      	beq.n	2007d46 <_wcsnrtombs_r+0xd2>
 2007cdc:	464d      	mov	r5, r9
 2007cde:	9918      	ldr	r1, [sp, #96]	; 0x60
 2007ce0:	1943      	adds	r3, r0, r5
 2007ce2:	428b      	cmp	r3, r1
 2007ce4:	d820      	bhi.n	2007d28 <_wcsnrtombs_r+0xb4>
 2007ce6:	9a09      	ldr	r2, [sp, #36]	; 0x24
 2007ce8:	2a00      	cmp	r2, #0
 2007cea:	d00e      	beq.n	2007d0a <_wcsnrtombs_r+0x96>
 2007cec:	2800      	cmp	r0, #0
 2007cee:	dd08      	ble.n	2007d02 <_wcsnrtombs_r+0x8e>
 2007cf0:	9d03      	ldr	r5, [sp, #12]
 2007cf2:	2200      	movs	r2, #0
 2007cf4:	5ca1      	ldrb	r1, [r4, r2]
 2007cf6:	54a9      	strb	r1, [r5, r2]
 2007cf8:	3201      	adds	r2, #1
 2007cfa:	4282      	cmp	r2, r0
 2007cfc:	d1fa      	bne.n	2007cf4 <_wcsnrtombs_r+0x80>
 2007cfe:	18ad      	adds	r5, r5, r2
 2007d00:	9503      	str	r5, [sp, #12]
 2007d02:	4655      	mov	r5, sl
 2007d04:	682a      	ldr	r2, [r5, #0]
 2007d06:	3204      	adds	r2, #4
 2007d08:	602a      	str	r2, [r5, #0]
 2007d0a:	683a      	ldr	r2, [r7, #0]
 2007d0c:	2a00      	cmp	r2, #0
 2007d0e:	d02b      	beq.n	2007d68 <_wcsnrtombs_r+0xf4>
 2007d10:	9d18      	ldr	r5, [sp, #96]	; 0x60
 2007d12:	42ab      	cmp	r3, r5
 2007d14:	d20d      	bcs.n	2007d32 <_wcsnrtombs_r+0xbe>
 2007d16:	4641      	mov	r1, r8
 2007d18:	2900      	cmp	r1, #0
 2007d1a:	d00a      	beq.n	2007d32 <_wcsnrtombs_r+0xbe>
 2007d1c:	2201      	movs	r2, #1
 2007d1e:	4252      	negs	r2, r2
 2007d20:	3704      	adds	r7, #4
 2007d22:	4490      	add	r8, r2
 2007d24:	4699      	mov	r9, r3
 2007d26:	e7c5      	b.n	2007cb4 <_wcsnrtombs_r+0x40>
 2007d28:	9907      	ldr	r1, [sp, #28]
 2007d2a:	9a06      	ldr	r2, [sp, #24]
 2007d2c:	6031      	str	r1, [r6, #0]
 2007d2e:	6072      	str	r2, [r6, #4]
 2007d30:	464b      	mov	r3, r9
 2007d32:	b00f      	add	sp, #60	; 0x3c
 2007d34:	1c18      	adds	r0, r3, #0
 2007d36:	bc3c      	pop	{r2, r3, r4, r5}
 2007d38:	4690      	mov	r8, r2
 2007d3a:	4699      	mov	r9, r3
 2007d3c:	46a2      	mov	sl, r4
 2007d3e:	46ab      	mov	fp, r5
 2007d40:	bcf0      	pop	{r4, r5, r6, r7}
 2007d42:	bc02      	pop	{r1}
 2007d44:	4708      	bx	r1
 2007d46:	9a08      	ldr	r2, [sp, #32]
 2007d48:	238a      	movs	r3, #138	; 0x8a
 2007d4a:	6013      	str	r3, [r2, #0]
 2007d4c:	2300      	movs	r3, #0
 2007d4e:	6033      	str	r3, [r6, #0]
 2007d50:	1c03      	adds	r3, r0, #0
 2007d52:	e7ee      	b.n	2007d32 <_wcsnrtombs_r+0xbe>
 2007d54:	2101      	movs	r1, #1
 2007d56:	4655      	mov	r5, sl
 2007d58:	4249      	negs	r1, r1
 2007d5a:	682f      	ldr	r7, [r5, #0]
 2007d5c:	9118      	str	r1, [sp, #96]	; 0x60
 2007d5e:	e79e      	b.n	2007c9e <_wcsnrtombs_r+0x2a>
 2007d60:	218e      	movs	r1, #142	; 0x8e
 2007d62:	0049      	lsls	r1, r1, #1
 2007d64:	1846      	adds	r6, r0, r1
 2007d66:	e792      	b.n	2007c8e <_wcsnrtombs_r+0x1a>
 2007d68:	9909      	ldr	r1, [sp, #36]	; 0x24
 2007d6a:	2900      	cmp	r1, #0
 2007d6c:	d001      	beq.n	2007d72 <_wcsnrtombs_r+0xfe>
 2007d6e:	4655      	mov	r5, sl
 2007d70:	602a      	str	r2, [r5, #0]
 2007d72:	2200      	movs	r2, #0
 2007d74:	6032      	str	r2, [r6, #0]
 2007d76:	3b01      	subs	r3, #1
 2007d78:	e7db      	b.n	2007d32 <_wcsnrtombs_r+0xbe>
 2007d7a:	2300      	movs	r3, #0
 2007d7c:	e7d9      	b.n	2007d32 <_wcsnrtombs_r+0xbe>
 2007d7e:	46c0      	nop			; (mov r8, r8)
 2007d80:	0200ed70 	.word	0x0200ed70

02007d84 <wcsnrtombs>:
 2007d84:	b570      	push	{r4, r5, r6, lr}
 2007d86:	b082      	sub	sp, #8
 2007d88:	1c14      	adds	r4, r2, #0
 2007d8a:	4a08      	ldr	r2, [pc, #32]	; (2007dac <wcsnrtombs+0x28>)
 2007d8c:	1c06      	adds	r6, r0, #0
 2007d8e:	6810      	ldr	r0, [r2, #0]
 2007d90:	9300      	str	r3, [sp, #0]
 2007d92:	9b06      	ldr	r3, [sp, #24]
 2007d94:	1c0d      	adds	r5, r1, #0
 2007d96:	9301      	str	r3, [sp, #4]
 2007d98:	1c31      	adds	r1, r6, #0
 2007d9a:	1c2a      	adds	r2, r5, #0
 2007d9c:	1c23      	adds	r3, r4, #0
 2007d9e:	f7ff ff69 	bl	2007c74 <_wcsnrtombs_r>
 2007da2:	b002      	add	sp, #8
 2007da4:	bc70      	pop	{r4, r5, r6}
 2007da6:	bc02      	pop	{r1}
 2007da8:	4708      	bx	r1
 2007daa:	46c0      	nop			; (mov r8, r8)
 2007dac:	0200e940 	.word	0x0200e940
 2007db0:	4728      	bx	r5
 2007db2:	46c0      	nop			; (mov r8, r8)

02007db4 <_fclose_r>:
 2007db4:	b570      	push	{r4, r5, r6, lr}
 2007db6:	1c05      	adds	r5, r0, #0
 2007db8:	1c0c      	adds	r4, r1, #0
 2007dba:	2900      	cmp	r1, #0
 2007dbc:	d036      	beq.n	2007e2c <_fclose_r+0x78>
 2007dbe:	f7fd f99d 	bl	20050fc <__sfp_lock_acquire>
 2007dc2:	2d00      	cmp	r5, #0
 2007dc4:	d002      	beq.n	2007dcc <_fclose_r+0x18>
 2007dc6:	6bab      	ldr	r3, [r5, #56]	; 0x38
 2007dc8:	2b00      	cmp	r3, #0
 2007dca:	d034      	beq.n	2007e36 <_fclose_r+0x82>
 2007dcc:	220c      	movs	r2, #12
 2007dce:	5ea3      	ldrsh	r3, [r4, r2]
 2007dd0:	2b00      	cmp	r3, #0
 2007dd2:	d029      	beq.n	2007e28 <_fclose_r+0x74>
 2007dd4:	1c28      	adds	r0, r5, #0
 2007dd6:	1c21      	adds	r1, r4, #0
 2007dd8:	f7fd f8ce 	bl	2004f78 <_fflush_r>
 2007ddc:	6ae3      	ldr	r3, [r4, #44]	; 0x2c
 2007dde:	1c06      	adds	r6, r0, #0
 2007de0:	2b00      	cmp	r3, #0
 2007de2:	d005      	beq.n	2007df0 <_fclose_r+0x3c>
 2007de4:	69e1      	ldr	r1, [r4, #28]
 2007de6:	1c28      	adds	r0, r5, #0
 2007de8:	f000 f842 	bl	2007e70 <fclose+0x18>
 2007dec:	2800      	cmp	r0, #0
 2007dee:	db2f      	blt.n	2007e50 <_fclose_r+0x9c>
 2007df0:	89a3      	ldrh	r3, [r4, #12]
 2007df2:	061a      	lsls	r2, r3, #24
 2007df4:	d427      	bmi.n	2007e46 <_fclose_r+0x92>
 2007df6:	6b21      	ldr	r1, [r4, #48]	; 0x30
 2007df8:	2900      	cmp	r1, #0
 2007dfa:	d008      	beq.n	2007e0e <_fclose_r+0x5a>
 2007dfc:	1c23      	adds	r3, r4, #0
 2007dfe:	3340      	adds	r3, #64	; 0x40
 2007e00:	4299      	cmp	r1, r3
 2007e02:	d002      	beq.n	2007e0a <_fclose_r+0x56>
 2007e04:	1c28      	adds	r0, r5, #0
 2007e06:	f7fd fb43 	bl	2005490 <_free_r>
 2007e0a:	2300      	movs	r3, #0
 2007e0c:	6323      	str	r3, [r4, #48]	; 0x30
 2007e0e:	6c61      	ldr	r1, [r4, #68]	; 0x44
 2007e10:	2900      	cmp	r1, #0
 2007e12:	d004      	beq.n	2007e1e <_fclose_r+0x6a>
 2007e14:	1c28      	adds	r0, r5, #0
 2007e16:	f7fd fb3b 	bl	2005490 <_free_r>
 2007e1a:	2300      	movs	r3, #0
 2007e1c:	6463      	str	r3, [r4, #68]	; 0x44
 2007e1e:	2300      	movs	r3, #0
 2007e20:	81a3      	strh	r3, [r4, #12]
 2007e22:	f7fd f96d 	bl	2005100 <__sfp_lock_release>
 2007e26:	e002      	b.n	2007e2e <_fclose_r+0x7a>
 2007e28:	f7fd f96a 	bl	2005100 <__sfp_lock_release>
 2007e2c:	2600      	movs	r6, #0
 2007e2e:	1c30      	adds	r0, r6, #0
 2007e30:	bc70      	pop	{r4, r5, r6}
 2007e32:	bc02      	pop	{r1}
 2007e34:	4708      	bx	r1
 2007e36:	1c28      	adds	r0, r5, #0
 2007e38:	f7fd f9c2 	bl	20051c0 <__sinit>
 2007e3c:	220c      	movs	r2, #12
 2007e3e:	5ea3      	ldrsh	r3, [r4, r2]
 2007e40:	2b00      	cmp	r3, #0
 2007e42:	d1c7      	bne.n	2007dd4 <_fclose_r+0x20>
 2007e44:	e7f0      	b.n	2007e28 <_fclose_r+0x74>
 2007e46:	6921      	ldr	r1, [r4, #16]
 2007e48:	1c28      	adds	r0, r5, #0
 2007e4a:	f7fd fb21 	bl	2005490 <_free_r>
 2007e4e:	e7d2      	b.n	2007df6 <_fclose_r+0x42>
 2007e50:	2601      	movs	r6, #1
 2007e52:	4276      	negs	r6, r6
 2007e54:	e7cc      	b.n	2007df0 <_fclose_r+0x3c>
 2007e56:	46c0      	nop			; (mov r8, r8)

02007e58 <fclose>:
 2007e58:	b510      	push	{r4, lr}
 2007e5a:	4b04      	ldr	r3, [pc, #16]	; (2007e6c <fclose+0x14>)
 2007e5c:	1c01      	adds	r1, r0, #0
 2007e5e:	6818      	ldr	r0, [r3, #0]
 2007e60:	f7ff ffa8 	bl	2007db4 <_fclose_r>
 2007e64:	bc10      	pop	{r4}
 2007e66:	bc02      	pop	{r1}
 2007e68:	4708      	bx	r1
 2007e6a:	46c0      	nop			; (mov r8, r8)
 2007e6c:	0200e940 	.word	0x0200e940
 2007e70:	4718      	bx	r3
 2007e72:	46c0      	nop			; (mov r8, r8)

02007e74 <_findenv_r>:
 2007e74:	b5f0      	push	{r4, r5, r6, r7, lr}
 2007e76:	4657      	mov	r7, sl
 2007e78:	464e      	mov	r6, r9
 2007e7a:	4645      	mov	r5, r8
 2007e7c:	b4e0      	push	{r5, r6, r7}
 2007e7e:	4691      	mov	r9, r2
 2007e80:	4682      	mov	sl, r0
 2007e82:	1c0e      	adds	r6, r1, #0
 2007e84:	f000 f848 	bl	2007f18 <__env_lock>
 2007e88:	4a1e      	ldr	r2, [pc, #120]	; (2007f04 <_findenv_r+0x90>)
 2007e8a:	6814      	ldr	r4, [r2, #0]
 2007e8c:	4690      	mov	r8, r2
 2007e8e:	2c00      	cmp	r4, #0
 2007e90:	d020      	beq.n	2007ed4 <_findenv_r+0x60>
 2007e92:	7833      	ldrb	r3, [r6, #0]
 2007e94:	2b3d      	cmp	r3, #61	; 0x3d
 2007e96:	d033      	beq.n	2007f00 <_findenv_r+0x8c>
 2007e98:	2b00      	cmp	r3, #0
 2007e9a:	d031      	beq.n	2007f00 <_findenv_r+0x8c>
 2007e9c:	1c35      	adds	r5, r6, #0
 2007e9e:	3501      	adds	r5, #1
 2007ea0:	782b      	ldrb	r3, [r5, #0]
 2007ea2:	2b3d      	cmp	r3, #61	; 0x3d
 2007ea4:	d016      	beq.n	2007ed4 <_findenv_r+0x60>
 2007ea6:	2b00      	cmp	r3, #0
 2007ea8:	d1f9      	bne.n	2007e9e <_findenv_r+0x2a>
 2007eaa:	2b3d      	cmp	r3, #61	; 0x3d
 2007eac:	d012      	beq.n	2007ed4 <_findenv_r+0x60>
 2007eae:	6820      	ldr	r0, [r4, #0]
 2007eb0:	2800      	cmp	r0, #0
 2007eb2:	d00f      	beq.n	2007ed4 <_findenv_r+0x60>
 2007eb4:	1bad      	subs	r5, r5, r6
 2007eb6:	1c31      	adds	r1, r6, #0
 2007eb8:	1c2a      	adds	r2, r5, #0
 2007eba:	f7ff fc65 	bl	2007788 <strncmp>
 2007ebe:	2800      	cmp	r0, #0
 2007ec0:	d104      	bne.n	2007ecc <_findenv_r+0x58>
 2007ec2:	6827      	ldr	r7, [r4, #0]
 2007ec4:	197f      	adds	r7, r7, r5
 2007ec6:	783b      	ldrb	r3, [r7, #0]
 2007ec8:	2b3d      	cmp	r3, #61	; 0x3d
 2007eca:	d00e      	beq.n	2007eea <_findenv_r+0x76>
 2007ecc:	3404      	adds	r4, #4
 2007ece:	6820      	ldr	r0, [r4, #0]
 2007ed0:	2800      	cmp	r0, #0
 2007ed2:	d1f0      	bne.n	2007eb6 <_findenv_r+0x42>
 2007ed4:	4650      	mov	r0, sl
 2007ed6:	f000 f821 	bl	2007f1c <__env_unlock>
 2007eda:	2000      	movs	r0, #0
 2007edc:	bc1c      	pop	{r2, r3, r4}
 2007ede:	4690      	mov	r8, r2
 2007ee0:	4699      	mov	r9, r3
 2007ee2:	46a2      	mov	sl, r4
 2007ee4:	bcf0      	pop	{r4, r5, r6, r7}
 2007ee6:	bc02      	pop	{r1}
 2007ee8:	4708      	bx	r1
 2007eea:	4642      	mov	r2, r8
 2007eec:	6813      	ldr	r3, [r2, #0]
 2007eee:	1ae4      	subs	r4, r4, r3
 2007ef0:	10a4      	asrs	r4, r4, #2
 2007ef2:	464b      	mov	r3, r9
 2007ef4:	4650      	mov	r0, sl
 2007ef6:	601c      	str	r4, [r3, #0]
 2007ef8:	f000 f810 	bl	2007f1c <__env_unlock>
 2007efc:	1c78      	adds	r0, r7, #1
 2007efe:	e7ed      	b.n	2007edc <_findenv_r+0x68>
 2007f00:	1c35      	adds	r5, r6, #0
 2007f02:	e7d2      	b.n	2007eaa <_findenv_r+0x36>
 2007f04:	0200f2d0 	.word	0x0200f2d0

02007f08 <_getenv_r>:
 2007f08:	b500      	push	{lr}
 2007f0a:	b083      	sub	sp, #12
 2007f0c:	aa01      	add	r2, sp, #4
 2007f0e:	f7ff ffb1 	bl	2007e74 <_findenv_r>
 2007f12:	b003      	add	sp, #12
 2007f14:	bc02      	pop	{r1}
 2007f16:	4708      	bx	r1

02007f18 <__env_lock>:
 2007f18:	4770      	bx	lr
 2007f1a:	46c0      	nop			; (mov r8, r8)

02007f1c <__env_unlock>:
 2007f1c:	4770      	bx	lr
 2007f1e:	46c0      	nop			; (mov r8, r8)

02007f20 <setDefaultDevice>:
 2007f20:	b500      	push	{lr}
 2007f22:	1ec3      	subs	r3, r0, #3
 2007f24:	2b0d      	cmp	r3, #13
 2007f26:	d801      	bhi.n	2007f2c <setDefaultDevice+0xc>
 2007f28:	4b01      	ldr	r3, [pc, #4]	; (2007f30 <setDefaultDevice+0x10>)
 2007f2a:	6018      	str	r0, [r3, #0]
 2007f2c:	bc01      	pop	{r0}
 2007f2e:	4700      	bx	r0
 2007f30:	0200f2d4 	.word	0x0200f2d4

02007f34 <AddDevice>:
 2007f34:	b5f8      	push	{r3, r4, r5, r6, r7, lr}
 2007f36:	465f      	mov	r7, fp
 2007f38:	4656      	mov	r6, sl
 2007f3a:	464d      	mov	r5, r9
 2007f3c:	4644      	mov	r4, r8
 2007f3e:	b4f0      	push	{r4, r5, r6, r7}
 2007f40:	4a19      	ldr	r2, [pc, #100]	; (2007fa8 <AddDevice+0x74>)
 2007f42:	4b1a      	ldr	r3, [pc, #104]	; (2007fac <AddDevice+0x78>)
 2007f44:	1c16      	adds	r6, r2, #0
 2007f46:	6807      	ldr	r7, [r0, #0]
 2007f48:	4681      	mov	r9, r0
 2007f4a:	4693      	mov	fp, r2
 2007f4c:	3610      	adds	r6, #16
 2007f4e:	2503      	movs	r5, #3
 2007f50:	4698      	mov	r8, r3
 2007f52:	6833      	ldr	r3, [r6, #0]
 2007f54:	681c      	ldr	r4, [r3, #0]
 2007f56:	1c39      	adds	r1, r7, #0
 2007f58:	1c20      	adds	r0, r4, #0
 2007f5a:	f7ff fba7 	bl	20076ac <strcmp>
 2007f5e:	2800      	cmp	r0, #0
 2007f60:	d108      	bne.n	2007f74 <AddDevice+0x40>
 2007f62:	1c20      	adds	r0, r4, #0
 2007f64:	f7fb f868 	bl	2003038 <strlen>
 2007f68:	4682      	mov	sl, r0
 2007f6a:	1c38      	adds	r0, r7, #0
 2007f6c:	f7fb f864 	bl	2003038 <strlen>
 2007f70:	4582      	cmp	sl, r0
 2007f72:	d014      	beq.n	2007f9e <AddDevice+0x6a>
 2007f74:	1c20      	adds	r0, r4, #0
 2007f76:	4641      	mov	r1, r8
 2007f78:	f7ff fb98 	bl	20076ac <strcmp>
 2007f7c:	2800      	cmp	r0, #0
 2007f7e:	d00e      	beq.n	2007f9e <AddDevice+0x6a>
 2007f80:	3501      	adds	r5, #1
 2007f82:	3604      	adds	r6, #4
 2007f84:	2d10      	cmp	r5, #16
 2007f86:	d1e4      	bne.n	2007f52 <AddDevice+0x1e>
 2007f88:	2501      	movs	r5, #1
 2007f8a:	426d      	negs	r5, r5
 2007f8c:	1c28      	adds	r0, r5, #0
 2007f8e:	bc3c      	pop	{r2, r3, r4, r5}
 2007f90:	4690      	mov	r8, r2
 2007f92:	4699      	mov	r9, r3
 2007f94:	46a2      	mov	sl, r4
 2007f96:	46ab      	mov	fp, r5
 2007f98:	bcf8      	pop	{r3, r4, r5, r6, r7}
 2007f9a:	bc02      	pop	{r1}
 2007f9c:	4708      	bx	r1
 2007f9e:	00ab      	lsls	r3, r5, #2
 2007fa0:	445b      	add	r3, fp
 2007fa2:	464a      	mov	r2, r9
 2007fa4:	605a      	str	r2, [r3, #4]
 2007fa6:	e7f1      	b.n	2007f8c <AddDevice+0x58>
 2007fa8:	0200f2d4 	.word	0x0200f2d4
 2007fac:	0200e540 	.word	0x0200e540

02007fb0 <FindDevice>:
 2007fb0:	b5f0      	push	{r4, r5, r6, r7, lr}
 2007fb2:	4647      	mov	r7, r8
 2007fb4:	b480      	push	{r7}
 2007fb6:	213a      	movs	r1, #58	; 0x3a
 2007fb8:	4680      	mov	r8, r0
 2007fba:	f7ff fb0d 	bl	20075d8 <strchr>
 2007fbe:	2800      	cmp	r0, #0
 2007fc0:	d029      	beq.n	2008016 <FindDevice+0x66>
 2007fc2:	4c16      	ldr	r4, [pc, #88]	; (200801c <FindDevice+0x6c>)
 2007fc4:	2500      	movs	r5, #0
 2007fc6:	3404      	adds	r4, #4
 2007fc8:	6823      	ldr	r3, [r4, #0]
 2007fca:	2b00      	cmp	r3, #0
 2007fcc:	d016      	beq.n	2007ffc <FindDevice+0x4c>
 2007fce:	681e      	ldr	r6, [r3, #0]
 2007fd0:	1c30      	adds	r0, r6, #0
 2007fd2:	f7fb f831 	bl	2003038 <strlen>
 2007fd6:	1c07      	adds	r7, r0, #0
 2007fd8:	4641      	mov	r1, r8
 2007fda:	1c30      	adds	r0, r6, #0
 2007fdc:	1c3a      	adds	r2, r7, #0
 2007fde:	f7ff fbd3 	bl	2007788 <strncmp>
 2007fe2:	2800      	cmp	r0, #0
 2007fe4:	d10a      	bne.n	2007ffc <FindDevice+0x4c>
 2007fe6:	4642      	mov	r2, r8
 2007fe8:	5dd3      	ldrb	r3, [r2, r7]
 2007fea:	2b3a      	cmp	r3, #58	; 0x3a
 2007fec:	d011      	beq.n	2008012 <FindDevice+0x62>
 2007fee:	3b30      	subs	r3, #48	; 0x30
 2007ff0:	2b09      	cmp	r3, #9
 2007ff2:	d803      	bhi.n	2007ffc <FindDevice+0x4c>
 2007ff4:	4447      	add	r7, r8
 2007ff6:	787b      	ldrb	r3, [r7, #1]
 2007ff8:	2b3a      	cmp	r3, #58	; 0x3a
 2007ffa:	d00a      	beq.n	2008012 <FindDevice+0x62>
 2007ffc:	3501      	adds	r5, #1
 2007ffe:	3404      	adds	r4, #4
 2008000:	2d10      	cmp	r5, #16
 2008002:	d1e1      	bne.n	2007fc8 <FindDevice+0x18>
 2008004:	2001      	movs	r0, #1
 2008006:	4240      	negs	r0, r0
 2008008:	bc04      	pop	{r2}
 200800a:	4690      	mov	r8, r2
 200800c:	bcf0      	pop	{r4, r5, r6, r7}
 200800e:	bc02      	pop	{r1}
 2008010:	4708      	bx	r1
 2008012:	1c28      	adds	r0, r5, #0
 2008014:	e7f8      	b.n	2008008 <FindDevice+0x58>
 2008016:	4b01      	ldr	r3, [pc, #4]	; (200801c <FindDevice+0x6c>)
 2008018:	6818      	ldr	r0, [r3, #0]
 200801a:	e7f5      	b.n	2008008 <FindDevice+0x58>
 200801c:	0200f2d4 	.word	0x0200f2d4

02008020 <GetDeviceOpTab>:
 2008020:	b510      	push	{r4, lr}
 2008022:	f7ff ffc5 	bl	2007fb0 <FindDevice>
 2008026:	280f      	cmp	r0, #15
 2008028:	d806      	bhi.n	2008038 <GetDeviceOpTab+0x18>
 200802a:	4b04      	ldr	r3, [pc, #16]	; (200803c <GetDeviceOpTab+0x1c>)
 200802c:	0080      	lsls	r0, r0, #2
 200802e:	1818      	adds	r0, r3, r0
 2008030:	6840      	ldr	r0, [r0, #4]
 2008032:	bc10      	pop	{r4}
 2008034:	bc02      	pop	{r1}
 2008036:	4708      	bx	r1
 2008038:	2000      	movs	r0, #0
 200803a:	e7fa      	b.n	2008032 <GetDeviceOpTab+0x12>
 200803c:	0200f2d4 	.word	0x0200f2d4

02008040 <RemoveDevice>:
 2008040:	b510      	push	{r4, lr}
 2008042:	f7ff ffb5 	bl	2007fb0 <FindDevice>
 2008046:	1c43      	adds	r3, r0, #1
 2008048:	d005      	beq.n	2008056 <RemoveDevice+0x16>
 200804a:	4b04      	ldr	r3, [pc, #16]	; (200805c <RemoveDevice+0x1c>)
 200804c:	0080      	lsls	r0, r0, #2
 200804e:	1818      	adds	r0, r3, r0
 2008050:	4b03      	ldr	r3, [pc, #12]	; (2008060 <RemoveDevice+0x20>)
 2008052:	6043      	str	r3, [r0, #4]
 2008054:	2000      	movs	r0, #0
 2008056:	bc10      	pop	{r4}
 2008058:	bc02      	pop	{r1}
 200805a:	4708      	bx	r1
 200805c:	0200f2d4 	.word	0x0200f2d4
 2008060:	0200e298 	.word	0x0200e298

02008064 <_close_r>:
 2008064:	b570      	push	{r4, r5, r6, lr}
 2008066:	1c04      	adds	r4, r0, #0
 2008068:	1c0d      	adds	r5, r1, #0
 200806a:	1c4b      	adds	r3, r1, #1
 200806c:	d105      	bne.n	200807a <_close_r+0x16>
 200806e:	2401      	movs	r4, #1
 2008070:	4264      	negs	r4, r4
 2008072:	1c20      	adds	r0, r4, #0
 2008074:	bc70      	pop	{r4, r5, r6}
 2008076:	bc02      	pop	{r1}
 2008078:	4708      	bx	r1
 200807a:	1c08      	adds	r0, r1, #0
 200807c:	f000 f938 	bl	20082f0 <__get_handle>
 2008080:	2800      	cmp	r0, #0
 2008082:	d0f4      	beq.n	200806e <_close_r+0xa>
 2008084:	6802      	ldr	r2, [r0, #0]
 2008086:	4b09      	ldr	r3, [pc, #36]	; (20080ac <_close_r+0x48>)
 2008088:	0092      	lsls	r2, r2, #2
 200808a:	58d3      	ldr	r3, [r2, r3]
 200808c:	68db      	ldr	r3, [r3, #12]
 200808e:	6841      	ldr	r1, [r0, #4]
 2008090:	2b00      	cmp	r3, #0
 2008092:	d007      	beq.n	20080a4 <_close_r+0x40>
 2008094:	1c20      	adds	r0, r4, #0
 2008096:	f000 f80b 	bl	20080b0 <_close_r+0x4c>
 200809a:	1c04      	adds	r4, r0, #0
 200809c:	1c28      	adds	r0, r5, #0
 200809e:	f000 f955 	bl	200834c <__release_handle>
 20080a2:	e7e6      	b.n	2008072 <_close_r+0xe>
 20080a4:	2401      	movs	r4, #1
 20080a6:	4264      	negs	r4, r4
 20080a8:	e7f8      	b.n	200809c <_close_r+0x38>
 20080aa:	46c0      	nop			; (mov r8, r8)
 20080ac:	0200f2d8 	.word	0x0200f2d8
 20080b0:	4718      	bx	r3
 20080b2:	46c0      	nop			; (mov r8, r8)

020080b4 <_fstat_r>:
 20080b4:	b570      	push	{r4, r5, r6, lr}
 20080b6:	1c04      	adds	r4, r0, #0
 20080b8:	1c15      	adds	r5, r2, #0
 20080ba:	1c4b      	adds	r3, r1, #1
 20080bc:	d011      	beq.n	20080e2 <_fstat_r+0x2e>
 20080be:	2902      	cmp	r1, #2
 20080c0:	dc17      	bgt.n	20080f2 <_fstat_r+0x3e>
 20080c2:	1c0a      	adds	r2, r1, #0
 20080c4:	2101      	movs	r1, #1
 20080c6:	4249      	negs	r1, r1
 20080c8:	4b0e      	ldr	r3, [pc, #56]	; (2008104 <_fstat_r+0x50>)
 20080ca:	0092      	lsls	r2, r2, #2
 20080cc:	58d3      	ldr	r3, [r2, r3]
 20080ce:	69db      	ldr	r3, [r3, #28]
 20080d0:	2b00      	cmp	r3, #0
 20080d2:	d009      	beq.n	20080e8 <_fstat_r+0x34>
 20080d4:	1c20      	adds	r0, r4, #0
 20080d6:	1c2a      	adds	r2, r5, #0
 20080d8:	f000 f816 	bl	2008108 <_fstat_r+0x54>
 20080dc:	bc70      	pop	{r4, r5, r6}
 20080de:	bc02      	pop	{r1}
 20080e0:	4708      	bx	r1
 20080e2:	2001      	movs	r0, #1
 20080e4:	4240      	negs	r0, r0
 20080e6:	e7f9      	b.n	20080dc <_fstat_r+0x28>
 20080e8:	2358      	movs	r3, #88	; 0x58
 20080ea:	2001      	movs	r0, #1
 20080ec:	6023      	str	r3, [r4, #0]
 20080ee:	4240      	negs	r0, r0
 20080f0:	e7f4      	b.n	20080dc <_fstat_r+0x28>
 20080f2:	1c08      	adds	r0, r1, #0
 20080f4:	f000 f8fc 	bl	20082f0 <__get_handle>
 20080f8:	2800      	cmp	r0, #0
 20080fa:	d0f2      	beq.n	20080e2 <_fstat_r+0x2e>
 20080fc:	6802      	ldr	r2, [r0, #0]
 20080fe:	6841      	ldr	r1, [r0, #4]
 2008100:	e7e2      	b.n	20080c8 <_fstat_r+0x14>
 2008102:	46c0      	nop			; (mov r8, r8)
 2008104:	0200f2d8 	.word	0x0200f2d8
 2008108:	4718      	bx	r3
 200810a:	46c0      	nop			; (mov r8, r8)

0200810c <_isatty_r>:
 200810c:	2000      	movs	r0, #0
 200810e:	4770      	bx	lr

02008110 <_lseek_r>:
 2008110:	b5f8      	push	{r3, r4, r5, r6, r7, lr}
 2008112:	1c06      	adds	r6, r0, #0
 2008114:	1c15      	adds	r5, r2, #0
 2008116:	1c1c      	adds	r4, r3, #0
 2008118:	1c4b      	adds	r3, r1, #1
 200811a:	d012      	beq.n	2008142 <_lseek_r+0x32>
 200811c:	2902      	cmp	r1, #2
 200811e:	dc13      	bgt.n	2008148 <_lseek_r+0x38>
 2008120:	1c0a      	adds	r2, r1, #0
 2008122:	2101      	movs	r1, #1
 2008124:	4249      	negs	r1, r1
 2008126:	4b0c      	ldr	r3, [pc, #48]	; (2008158 <_lseek_r+0x48>)
 2008128:	0092      	lsls	r2, r2, #2
 200812a:	58d3      	ldr	r3, [r2, r3]
 200812c:	699f      	ldr	r7, [r3, #24]
 200812e:	2f00      	cmp	r7, #0
 2008130:	d007      	beq.n	2008142 <_lseek_r+0x32>
 2008132:	1c30      	adds	r0, r6, #0
 2008134:	1c2a      	adds	r2, r5, #0
 2008136:	1c23      	adds	r3, r4, #0
 2008138:	f000 f810 	bl	200815c <_lseek_r+0x4c>
 200813c:	bcf8      	pop	{r3, r4, r5, r6, r7}
 200813e:	bc02      	pop	{r1}
 2008140:	4708      	bx	r1
 2008142:	2001      	movs	r0, #1
 2008144:	4240      	negs	r0, r0
 2008146:	e7f9      	b.n	200813c <_lseek_r+0x2c>
 2008148:	1c08      	adds	r0, r1, #0
 200814a:	f000 f8d1 	bl	20082f0 <__get_handle>
 200814e:	2800      	cmp	r0, #0
 2008150:	d0f7      	beq.n	2008142 <_lseek_r+0x32>
 2008152:	6802      	ldr	r2, [r0, #0]
 2008154:	6841      	ldr	r1, [r0, #4]
 2008156:	e7e6      	b.n	2008126 <_lseek_r+0x16>
 2008158:	0200f2d8 	.word	0x0200f2d8
 200815c:	4738      	bx	r7
 200815e:	46c0      	nop			; (mov r8, r8)

02008160 <_read_r>:
 2008160:	b5f8      	push	{r3, r4, r5, r6, r7, lr}
 2008162:	1c06      	adds	r6, r0, #0
 2008164:	1c15      	adds	r5, r2, #0
 2008166:	1c1c      	adds	r4, r3, #0
 2008168:	1c4b      	adds	r3, r1, #1
 200816a:	d012      	beq.n	2008192 <_read_r+0x32>
 200816c:	2902      	cmp	r1, #2
 200816e:	dc13      	bgt.n	2008198 <_read_r+0x38>
 2008170:	1c0a      	adds	r2, r1, #0
 2008172:	2101      	movs	r1, #1
 2008174:	4249      	negs	r1, r1
 2008176:	4b0c      	ldr	r3, [pc, #48]	; (20081a8 <_read_r+0x48>)
 2008178:	0092      	lsls	r2, r2, #2
 200817a:	58d3      	ldr	r3, [r2, r3]
 200817c:	695f      	ldr	r7, [r3, #20]
 200817e:	2f00      	cmp	r7, #0
 2008180:	d007      	beq.n	2008192 <_read_r+0x32>
 2008182:	1c30      	adds	r0, r6, #0
 2008184:	1c2a      	adds	r2, r5, #0
 2008186:	1c23      	adds	r3, r4, #0
 2008188:	f000 f810 	bl	20081ac <_read_r+0x4c>
 200818c:	bcf8      	pop	{r3, r4, r5, r6, r7}
 200818e:	bc02      	pop	{r1}
 2008190:	4708      	bx	r1
 2008192:	2001      	movs	r0, #1
 2008194:	4240      	negs	r0, r0
 2008196:	e7f9      	b.n	200818c <_read_r+0x2c>
 2008198:	1c08      	adds	r0, r1, #0
 200819a:	f000 f8a9 	bl	20082f0 <__get_handle>
 200819e:	2800      	cmp	r0, #0
 20081a0:	d0f7      	beq.n	2008192 <_read_r+0x32>
 20081a2:	6802      	ldr	r2, [r0, #0]
 20081a4:	6841      	ldr	r1, [r0, #4]
 20081a6:	e7e6      	b.n	2008176 <_read_r+0x16>
 20081a8:	0200f2d8 	.word	0x0200f2d8
 20081ac:	4738      	bx	r7
 20081ae:	46c0      	nop			; (mov r8, r8)

020081b0 <_sbrk_r>:
 20081b0:	b510      	push	{r4, lr}
 20081b2:	4c10      	ldr	r4, [pc, #64]	; (20081f4 <_sbrk_r+0x44>)
 20081b4:	6823      	ldr	r3, [r4, #0]
 20081b6:	2b00      	cmp	r3, #0
 20081b8:	d012      	beq.n	20081e0 <_sbrk_r+0x30>
 20081ba:	4a0f      	ldr	r2, [pc, #60]	; (20081f8 <_sbrk_r+0x48>)
 20081bc:	6812      	ldr	r2, [r2, #0]
 20081be:	2a00      	cmp	r2, #0
 20081c0:	d00c      	beq.n	20081dc <_sbrk_r+0x2c>
 20081c2:	1859      	adds	r1, r3, r1
 20081c4:	428a      	cmp	r2, r1
 20081c6:	d304      	bcc.n	20081d2 <_sbrk_r+0x22>
 20081c8:	6021      	str	r1, [r4, #0]
 20081ca:	1c18      	adds	r0, r3, #0
 20081cc:	bc10      	pop	{r4}
 20081ce:	bc02      	pop	{r1}
 20081d0:	4708      	bx	r1
 20081d2:	230c      	movs	r3, #12
 20081d4:	6003      	str	r3, [r0, #0]
 20081d6:	2001      	movs	r0, #1
 20081d8:	4240      	negs	r0, r0
 20081da:	e7f7      	b.n	20081cc <_sbrk_r+0x1c>
 20081dc:	466a      	mov	r2, sp
 20081de:	e7f0      	b.n	20081c2 <_sbrk_r+0x12>
 20081e0:	4b06      	ldr	r3, [pc, #24]	; (20081fc <_sbrk_r+0x4c>)
 20081e2:	681b      	ldr	r3, [r3, #0]
 20081e4:	2b00      	cmp	r3, #0
 20081e6:	d001      	beq.n	20081ec <_sbrk_r+0x3c>
 20081e8:	6023      	str	r3, [r4, #0]
 20081ea:	e7e6      	b.n	20081ba <_sbrk_r+0xa>
 20081ec:	4b04      	ldr	r3, [pc, #16]	; (2008200 <_sbrk_r+0x50>)
 20081ee:	6023      	str	r3, [r4, #0]
 20081f0:	e7e3      	b.n	20081ba <_sbrk_r+0xa>
 20081f2:	46c0      	nop			; (mov r8, r8)
 20081f4:	0200f638 	.word	0x0200f638
 20081f8:	0200f63c 	.word	0x0200f63c
 20081fc:	0200f640 	.word	0x0200f640
 2008200:	02011234 	.word	0x02011234

02008204 <_times_r>:
 2008204:	2001      	movs	r0, #1
 2008206:	4240      	negs	r0, r0
 2008208:	4770      	bx	lr
 200820a:	46c0      	nop			; (mov r8, r8)

0200820c <_gettimeofday_r>:
 200820c:	b500      	push	{lr}
 200820e:	1c03      	adds	r3, r0, #0
 2008210:	2900      	cmp	r1, #0
 2008212:	d104      	bne.n	200821e <_gettimeofday_r+0x12>
 2008214:	2001      	movs	r0, #1
 2008216:	4240      	negs	r0, r0
 2008218:	6018      	str	r0, [r3, #0]
 200821a:	bc02      	pop	{r1}
 200821c:	4708      	bx	r1
 200821e:	4a05      	ldr	r2, [pc, #20]	; (2008234 <_gettimeofday_r+0x28>)
 2008220:	6812      	ldr	r2, [r2, #0]
 2008222:	2a00      	cmp	r2, #0
 2008224:	d0f6      	beq.n	2008214 <_gettimeofday_r+0x8>
 2008226:	6812      	ldr	r2, [r2, #0]
 2008228:	600a      	str	r2, [r1, #0]
 200822a:	2200      	movs	r2, #0
 200822c:	604a      	str	r2, [r1, #4]
 200822e:	2000      	movs	r0, #0
 2008230:	e7f2      	b.n	2008218 <_gettimeofday_r+0xc>
 2008232:	46c0      	nop			; (mov r8, r8)
 2008234:	02011230 	.word	0x02011230

02008238 <_times>:
 2008238:	b510      	push	{r4, lr}
 200823a:	f000 f8e5 	bl	2008408 <__errno>
 200823e:	2358      	movs	r3, #88	; 0x58
 2008240:	6003      	str	r3, [r0, #0]
 2008242:	2001      	movs	r0, #1
 2008244:	4240      	negs	r0, r0
 2008246:	bc10      	pop	{r4}
 2008248:	bc02      	pop	{r1}
 200824a:	4708      	bx	r1

0200824c <_write_r>:
 200824c:	b5f8      	push	{r3, r4, r5, r6, r7, lr}
 200824e:	1c06      	adds	r6, r0, #0
 2008250:	1c15      	adds	r5, r2, #0
 2008252:	1c1c      	adds	r4, r3, #0
 2008254:	1c4b      	adds	r3, r1, #1
 2008256:	d012      	beq.n	200827e <_write_r+0x32>
 2008258:	2902      	cmp	r1, #2
 200825a:	dc13      	bgt.n	2008284 <_write_r+0x38>
 200825c:	1c0a      	adds	r2, r1, #0
 200825e:	2101      	movs	r1, #1
 2008260:	4249      	negs	r1, r1
 2008262:	4b0c      	ldr	r3, [pc, #48]	; (2008294 <_write_r+0x48>)
 2008264:	0092      	lsls	r2, r2, #2
 2008266:	58d3      	ldr	r3, [r2, r3]
 2008268:	691f      	ldr	r7, [r3, #16]
 200826a:	2f00      	cmp	r7, #0
 200826c:	d007      	beq.n	200827e <_write_r+0x32>
 200826e:	1c30      	adds	r0, r6, #0
 2008270:	1c2a      	adds	r2, r5, #0
 2008272:	1c23      	adds	r3, r4, #0
 2008274:	f000 f810 	bl	2008298 <_write_r+0x4c>
 2008278:	bcf8      	pop	{r3, r4, r5, r6, r7}
 200827a:	bc02      	pop	{r1}
 200827c:	4708      	bx	r1
 200827e:	2001      	movs	r0, #1
 2008280:	4240      	negs	r0, r0
 2008282:	e7f9      	b.n	2008278 <_write_r+0x2c>
 2008284:	1c08      	adds	r0, r1, #0
 2008286:	f000 f833 	bl	20082f0 <__get_handle>
 200828a:	2800      	cmp	r0, #0
 200828c:	d0f7      	beq.n	200827e <_write_r+0x32>
 200828e:	6802      	ldr	r2, [r0, #0]
 2008290:	6841      	ldr	r1, [r0, #4]
 2008292:	e7e6      	b.n	2008262 <_write_r+0x16>
 2008294:	0200f2d8 	.word	0x0200f2d8
 2008298:	4738      	bx	r7
 200829a:	46c0      	nop			; (mov r8, r8)

0200829c <build_argv>:
 200829c:	b530      	push	{r4, r5, lr}
 200829e:	6843      	ldr	r3, [r0, #4]
 20082a0:	6882      	ldr	r2, [r0, #8]
 20082a2:	189d      	adds	r5, r3, r2
 20082a4:	3504      	adds	r5, #4
 20082a6:	2103      	movs	r1, #3
 20082a8:	3a01      	subs	r2, #1
 20082aa:	438d      	bics	r5, r1
 20082ac:	189a      	adds	r2, r3, r2
 20082ae:	2400      	movs	r4, #0
 20082b0:	e002      	b.n	20082b8 <build_argv+0x1c>
 20082b2:	3301      	adds	r3, #1
 20082b4:	429a      	cmp	r2, r3
 20082b6:	d910      	bls.n	20082da <build_argv+0x3e>
 20082b8:	00a1      	lsls	r1, r4, #2
 20082ba:	514b      	str	r3, [r1, r5]
 20082bc:	7819      	ldrb	r1, [r3, #0]
 20082be:	3401      	adds	r4, #1
 20082c0:	2900      	cmp	r1, #0
 20082c2:	d0f6      	beq.n	20082b2 <build_argv+0x16>
 20082c4:	4293      	cmp	r3, r2
 20082c6:	d2f4      	bcs.n	20082b2 <build_argv+0x16>
 20082c8:	3301      	adds	r3, #1
 20082ca:	429a      	cmp	r2, r3
 20082cc:	d9f1      	bls.n	20082b2 <build_argv+0x16>
 20082ce:	7819      	ldrb	r1, [r3, #0]
 20082d0:	2900      	cmp	r1, #0
 20082d2:	d1f9      	bne.n	20082c8 <build_argv+0x2c>
 20082d4:	3301      	adds	r3, #1
 20082d6:	429a      	cmp	r2, r3
 20082d8:	d8ee      	bhi.n	20082b8 <build_argv+0x1c>
 20082da:	2300      	movs	r3, #0
 20082dc:	7013      	strb	r3, [r2, #0]
 20082de:	60c4      	str	r4, [r0, #12]
 20082e0:	00a4      	lsls	r4, r4, #2
 20082e2:	6105      	str	r5, [r0, #16]
 20082e4:	192d      	adds	r5, r5, r4
 20082e6:	6145      	str	r5, [r0, #20]
 20082e8:	bc30      	pop	{r4, r5}
 20082ea:	bc01      	pop	{r0}
 20082ec:	4700      	bx	r0
 20082ee:	46c0      	nop			; (mov r8, r8)

020082f0 <__get_handle>:
 20082f0:	b500      	push	{lr}
 20082f2:	2380      	movs	r3, #128	; 0x80
 20082f4:	3803      	subs	r0, #3
 20082f6:	00db      	lsls	r3, r3, #3
 20082f8:	4298      	cmp	r0, r3
 20082fa:	d804      	bhi.n	2008306 <__get_handle+0x16>
 20082fc:	4b03      	ldr	r3, [pc, #12]	; (200830c <__get_handle+0x1c>)
 20082fe:	0080      	lsls	r0, r0, #2
 2008300:	58c0      	ldr	r0, [r0, r3]
 2008302:	bc02      	pop	{r1}
 2008304:	4708      	bx	r1
 2008306:	2000      	movs	r0, #0
 2008308:	e7fb      	b.n	2008302 <__get_handle+0x12>
 200830a:	46c0      	nop			; (mov r8, r8)
 200830c:	0200f64c 	.word	0x0200f64c

02008310 <__alloc_handle>:
 2008310:	b570      	push	{r4, r5, r6, lr}
 2008312:	4d0d      	ldr	r5, [pc, #52]	; (2008348 <__alloc_handle+0x38>)
 2008314:	2180      	movs	r1, #128	; 0x80
 2008316:	1c2b      	adds	r3, r5, #0
 2008318:	2400      	movs	r4, #0
 200831a:	00c9      	lsls	r1, r1, #3
 200831c:	e003      	b.n	2008326 <__alloc_handle+0x16>
 200831e:	3401      	adds	r4, #1
 2008320:	3304      	adds	r3, #4
 2008322:	428c      	cmp	r4, r1
 2008324:	d00c      	beq.n	2008340 <__alloc_handle+0x30>
 2008326:	681a      	ldr	r2, [r3, #0]
 2008328:	2a00      	cmp	r2, #0
 200832a:	d1f8      	bne.n	200831e <__alloc_handle+0xe>
 200832c:	f7fe f908 	bl	2006540 <malloc>
 2008330:	00a3      	lsls	r3, r4, #2
 2008332:	50e8      	str	r0, [r5, r3]
 2008334:	2800      	cmp	r0, #0
 2008336:	d003      	beq.n	2008340 <__alloc_handle+0x30>
 2008338:	1ce0      	adds	r0, r4, #3
 200833a:	bc70      	pop	{r4, r5, r6}
 200833c:	bc02      	pop	{r1}
 200833e:	4708      	bx	r1
 2008340:	2001      	movs	r0, #1
 2008342:	4240      	negs	r0, r0
 2008344:	e7f9      	b.n	200833a <__alloc_handle+0x2a>
 2008346:	46c0      	nop			; (mov r8, r8)
 2008348:	0200f64c 	.word	0x0200f64c

0200834c <__release_handle>:
 200834c:	b570      	push	{r4, r5, r6, lr}
 200834e:	4b08      	ldr	r3, [pc, #32]	; (2008370 <__release_handle+0x24>)
 2008350:	1ec5      	subs	r5, r0, #3
 2008352:	429d      	cmp	r5, r3
 2008354:	d808      	bhi.n	2008368 <__release_handle+0x1c>
 2008356:	4c07      	ldr	r4, [pc, #28]	; (2008374 <__release_handle+0x28>)
 2008358:	00ad      	lsls	r5, r5, #2
 200835a:	5928      	ldr	r0, [r5, r4]
 200835c:	2800      	cmp	r0, #0
 200835e:	d003      	beq.n	2008368 <__release_handle+0x1c>
 2008360:	f7fe f8e2 	bl	2006528 <free>
 2008364:	2300      	movs	r3, #0
 2008366:	512b      	str	r3, [r5, r4]
 2008368:	bc70      	pop	{r4, r5, r6}
 200836a:	bc01      	pop	{r0}
 200836c:	4700      	bx	r0
 200836e:	46c0      	nop			; (mov r8, r8)
 2008370:	000003ff 	.word	0x000003ff
 2008374:	0200f64c 	.word	0x0200f64c

02008378 <__aeabi_uidiv>:
 2008378:	2900      	cmp	r1, #0
 200837a:	d034      	beq.n	20083e6 <__aeabi_uidiv+0x6e>
 200837c:	2301      	movs	r3, #1
 200837e:	2200      	movs	r2, #0
 2008380:	b410      	push	{r4}
 2008382:	4288      	cmp	r0, r1
 2008384:	d32c      	bcc.n	20083e0 <__aeabi_uidiv+0x68>
 2008386:	2401      	movs	r4, #1
 2008388:	0724      	lsls	r4, r4, #28
 200838a:	42a1      	cmp	r1, r4
 200838c:	d204      	bcs.n	2008398 <__aeabi_uidiv+0x20>
 200838e:	4281      	cmp	r1, r0
 2008390:	d202      	bcs.n	2008398 <__aeabi_uidiv+0x20>
 2008392:	0109      	lsls	r1, r1, #4
 2008394:	011b      	lsls	r3, r3, #4
 2008396:	e7f8      	b.n	200838a <__aeabi_uidiv+0x12>
 2008398:	00e4      	lsls	r4, r4, #3
 200839a:	42a1      	cmp	r1, r4
 200839c:	d204      	bcs.n	20083a8 <__aeabi_uidiv+0x30>
 200839e:	4281      	cmp	r1, r0
 20083a0:	d202      	bcs.n	20083a8 <__aeabi_uidiv+0x30>
 20083a2:	0049      	lsls	r1, r1, #1
 20083a4:	005b      	lsls	r3, r3, #1
 20083a6:	e7f8      	b.n	200839a <__aeabi_uidiv+0x22>
 20083a8:	4288      	cmp	r0, r1
 20083aa:	d301      	bcc.n	20083b0 <__aeabi_uidiv+0x38>
 20083ac:	1a40      	subs	r0, r0, r1
 20083ae:	431a      	orrs	r2, r3
 20083b0:	084c      	lsrs	r4, r1, #1
 20083b2:	42a0      	cmp	r0, r4
 20083b4:	d302      	bcc.n	20083bc <__aeabi_uidiv+0x44>
 20083b6:	1b00      	subs	r0, r0, r4
 20083b8:	085c      	lsrs	r4, r3, #1
 20083ba:	4322      	orrs	r2, r4
 20083bc:	088c      	lsrs	r4, r1, #2
 20083be:	42a0      	cmp	r0, r4
 20083c0:	d302      	bcc.n	20083c8 <__aeabi_uidiv+0x50>
 20083c2:	1b00      	subs	r0, r0, r4
 20083c4:	089c      	lsrs	r4, r3, #2
 20083c6:	4322      	orrs	r2, r4
 20083c8:	08cc      	lsrs	r4, r1, #3
 20083ca:	42a0      	cmp	r0, r4
 20083cc:	d302      	bcc.n	20083d4 <__aeabi_uidiv+0x5c>
 20083ce:	1b00      	subs	r0, r0, r4
 20083d0:	08dc      	lsrs	r4, r3, #3
 20083d2:	4322      	orrs	r2, r4
 20083d4:	2800      	cmp	r0, #0
 20083d6:	d003      	beq.n	20083e0 <__aeabi_uidiv+0x68>
 20083d8:	091b      	lsrs	r3, r3, #4
 20083da:	d001      	beq.n	20083e0 <__aeabi_uidiv+0x68>
 20083dc:	0909      	lsrs	r1, r1, #4
 20083de:	e7e3      	b.n	20083a8 <__aeabi_uidiv+0x30>
 20083e0:	1c10      	adds	r0, r2, #0
 20083e2:	bc10      	pop	{r4}
 20083e4:	4770      	bx	lr
 20083e6:	b502      	push	{r1, lr}
 20083e8:	f000 f80c 	bl	2008404 <__aeabi_idiv0>
 20083ec:	2000      	movs	r0, #0
 20083ee:	bc06      	pop	{r1, r2}
 20083f0:	4710      	bx	r2
 20083f2:	46c0      	nop			; (mov r8, r8)

020083f4 <__aeabi_uidivmod>:
 20083f4:	b503      	push	{r0, r1, lr}
 20083f6:	f7ff ffbf 	bl	2008378 <__aeabi_uidiv>
 20083fa:	bc0e      	pop	{r1, r2, r3}
 20083fc:	4342      	muls	r2, r0
 20083fe:	1a89      	subs	r1, r1, r2
 2008400:	4718      	bx	r3
 2008402:	46c0      	nop			; (mov r8, r8)

02008404 <__aeabi_idiv0>:
 2008404:	4770      	bx	lr
 2008406:	46c0      	nop			; (mov r8, r8)

02008408 <__errno>:
 2008408:	4b01      	ldr	r3, [pc, #4]	; (2008410 <__errno+0x8>)
 200840a:	6818      	ldr	r0, [r3, #0]
 200840c:	4770      	bx	lr
 200840e:	46c0      	nop			; (mov r8, r8)
 2008410:	0200e940 	.word	0x0200e940

Disassembly of section .fini:

02008414 <_fini>:
 2008414:	b5f8      	push	{r3, r4, r5, r6, r7, lr}
 2008416:	46c0      	nop			; (mov r8, r8)
 2008418:	bcf8      	pop	{r3, r4, r5, r6, r7}
 200841a:	bc08      	pop	{r3}
 200841c:	469e      	mov	lr, r3
 200841e:	4770      	bx	lr

Disassembly of section .itcm:

01000100 <irqTable>:
	...

010001c8 <IntrMain>:
 10001c8:	e3a0c301 	.word	0xe3a0c301
 10001cc:	e59c1208 	ldr	r1, [ip, #520]	; 0x208
 10001d0:	e3510000 	cmp	r1, #0
 10001d4:	012fff1e 	bxeq	lr
 10001d8:	e3a00000 	mov	r0, #0
 10001dc:	e58c0208 	str	r0, [ip, #520]	; 0x208
 10001e0:	e14f0000 	mrs	r0, SPSR
 10001e4:	e92d5003 	push	{r0, r1, ip, lr}
 10001e8:	e28cce21 	add	ip, ip, #528	; 0x210
 10001ec:	e89c0006 	ldm	ip, {r1, r2}
 10001f0:	e0111002 	ands	r1, r1, r2
 10001f4:	e59f0090 	ldr	r0, [pc, #144]	; 100028c <IntrRet+0x20>
 10001f8:	e59f2090 	ldr	r2, [pc, #144]	; 1000290 <IntrRet+0x24>

010001fc <setflags>:
 10001fc:	e5903000 	ldr	r3, [r0]
 1000200:	e1833001 	orr	r3, r3, r1
 1000204:	e5803000 	str	r3, [r0]

01000208 <findIRQ>:
 1000208:	e5920004 	ldr	r0, [r2, #4]
 100020c:	e3500000 	cmp	r0, #0
 1000210:	0a000003 	beq	1000224 <no_handler>
 1000214:	e0100001 	ands	r0, r0, r1
 1000218:	1a000005 	bne	1000234 <jump_intr>
 100021c:	e2822008 	add	r2, r2, #8
 1000220:	eafffff8 	b	1000208 <findIRQ>

01000224 <no_handler>:
 1000224:	e58c1004 	str	r1, [ip, #4]
 1000228:	e8bd5003 	pop	{r0, r1, ip, lr}
 100022c:	e58c1208 	str	r1, [ip, #520]	; 0x208
 1000230:	e1a0f00e 	mov	pc, lr

01000234 <jump_intr>:
 1000234:	e5921000 	ldr	r1, [r2]
 1000238:	e3510000 	cmp	r1, #0
 100023c:	1a000001 	bne	1000248 <got_handler>
 1000240:	e1a01000 	mov	r1, r0
 1000244:	eafffff6 	b	1000224 <no_handler>

01000248 <got_handler>:
 1000248:	e58c0004 	str	r0, [ip, #4]
 100024c:	e10f2000 	mrs	r2, CPSR
 1000250:	e1a03002 	mov	r3, r2
 1000254:	e3c330df 	bic	r3, r3, #223	; 0xdf
 1000258:	e383301f 	orr	r3, r3, #31
 100025c:	e129f003 	msr	CPSR_fc, r3
 1000260:	e92d4004 	push	{r2, lr}
 1000264:	e28fe000 	add	lr, pc, #0
 1000268:	e12fff11 	bx	r1

0100026c <IntrRet>:
 100026c:	e3a0c301 	mov	ip, #67108864	; 0x4000000
 1000270:	e58cc208 	str	ip, [ip, #520]	; 0x208
 1000274:	e8bd4004 	pop	{r2, lr}
 1000278:	e129f002 	msr	CPSR_fc, r2
 100027c:	e8bd5003 	pop	{r0, r1, ip, lr}
 1000280:	e169f000 	msr	SPSR_fc, r0
 1000284:	e58c1208 	str	r1, [ip, #520]	; 0x208
 1000288:	e1a0f00e 	mov	pc, lr
 100028c:	0b003ff8 	.word	0x0b003ff8
 1000290:	01000100 	.word	0x01000100
